
XBeeWeatherStation.elf:     file format elf32-littlearm

Sections:
Idx Name          Size      VMA       LMA       File off  Algn
  0 .text         00005dec  00000000  00000000  00010000  2**3
                  CONTENTS, ALLOC, LOAD, READONLY, CODE
  1 .gnu.sgstubs  00000020  0000fb00  0000fb00  0002fb00  2**5
                  CONTENTS, ALLOC, LOAD, READONLY, CODE
  2 .relocate     00000068  20000000  00005dec  00020000  2**2
                  CONTENTS, ALLOC, LOAD, DATA
  3 .bss          000000ec  20000068  00005e54  00020068  2**2
                  ALLOC
  4 .heap         00000204  20000154  00005f40  00020068  2**0
                  ALLOC
  5 .stack        00000400  20000358  00006144  00020068  2**0
                  ALLOC
  6 .userRowBlock 00000020  00804000  00804000  00034000  2**2
                  CONTENTS, ALLOC, LOAD, READONLY, DATA
  7 .ARM.attributes 0000002c  00000000  00000000  00034020  2**0
                  CONTENTS, READONLY
  8 .comment      00000059  00000000  00000000  0003404c  2**0
                  CONTENTS, READONLY
  9 .debug_info   0001b957  00000000  00000000  000340a5  2**0
                  CONTENTS, READONLY, DEBUGGING
 10 .debug_abbrev 0000301a  00000000  00000000  0004f9fc  2**0
                  CONTENTS, READONLY, DEBUGGING
 11 .debug_loc    0000b840  00000000  00000000  00052a16  2**0
                  CONTENTS, READONLY, DEBUGGING
 12 .debug_aranges 00000ad0  00000000  00000000  0005e256  2**0
                  CONTENTS, READONLY, DEBUGGING
 13 .debug_ranges 00000ee8  00000000  00000000  0005ed26  2**0
                  CONTENTS, READONLY, DEBUGGING
 14 .debug_macro  0001c255  00000000  00000000  0005fc0e  2**0
                  CONTENTS, READONLY, DEBUGGING
 15 .debug_line   000109ca  00000000  00000000  0007be63  2**0
                  CONTENTS, READONLY, DEBUGGING
 16 .debug_str    00092a00  00000000  00000000  0008c82d  2**0
                  CONTENTS, READONLY, DEBUGGING
 17 .debug_frame  00002590  00000000  00000000  0011f230  2**2
                  CONTENTS, READONLY, DEBUGGING

Disassembly of section .text:

00000000 <exception_table>:
       0:	58 07 00 20 89 07 00 00 85 07 00 00 85 07 00 00     X.. ............
	...
      2c:	85 07 00 00 00 00 00 00 00 00 00 00 85 07 00 00     ................
      3c:	85 07 00 00 85 07 00 00 85 07 00 00 85 07 00 00     ................
      4c:	85 07 00 00 85 07 00 00 85 07 00 00 85 07 00 00     ................
      5c:	85 07 00 00 85 07 00 00 85 07 00 00 85 07 00 00     ................
      6c:	85 07 00 00 85 07 00 00 85 07 00 00 85 07 00 00     ................
      7c:	85 07 00 00 85 07 00 00 85 07 00 00 85 07 00 00     ................
      8c:	85 07 00 00 85 07 00 00 85 07 00 00 85 07 00 00     ................
      9c:	85 07 00 00 85 07 00 00 85 07 00 00 85 07 00 00     ................
      ac:	85 07 00 00 85 07 00 00 85 07 00 00 85 07 00 00     ................
      bc:	85 07 00 00 85 07 00 00 85 07 00 00 85 07 00 00     ................
      cc:	85 07 00 00 85 07 00 00 85 07 00 00 85 07 00 00     ................
      dc:	85 07 00 00 85 07 00 00 85 07 00 00 85 07 00 00     ................
      ec:	85 07 00 00 85 07 00 00                             ........

000000f4 <__acle_se_nsc_periph_clock_init>:
#if defined(__ICCARM__) /* IAR EWARM */
__cmse_nonsecure_entry int32_t nsc_periph_clock_init(uint32_t gclk_id, uint32_t gclk_src)
#else /* GCC, Keil MDK with ARM Compiler 6 */
int32_t __attribute__((cmse_nonsecure_entry)) nsc_periph_clock_init(uint32_t gclk_id, uint32_t gclk_src)
#endif
{
      f4:	23ff      	movs	r3, #255	; 0xff
      f6:	4003      	ands	r3, r0
      f8:	009b      	lsls	r3, r3, #2
      fa:	f641 4c00 	movw	ip, #7168	; 0x1c00
      fe:	f2c4 0c00 	movt	ip, #16384	; 0x4000
     102:	4463      	add	r3, ip
}

static inline bool hri_gclk_get_PCHCTRL_CHEN_bit(const void *const hw, uint8_t index)
{
	uint32_t tmp;
	tmp = ((Gclk *)hw)->PCHCTRL[index].reg;
     104:	2280      	movs	r2, #128	; 0x80
     106:	589a      	ldr	r2, [r3, r2]
	if (hri_gclk_get_PCHCTRL_CHEN_bit(GCLK, gclk_id)) {
		return 1; /* Already enabled */
     108:	2001      	movs	r0, #1
	if (hri_gclk_get_PCHCTRL_CHEN_bit(GCLK, gclk_id)) {
     10a:	0652      	lsls	r2, r2, #25
     10c:	d404      	bmi.n	118 <__acle_se_nsc_periph_clock_init+0x24>
	} else {
		hri_gclk_write_PCHCTRL_reg(GCLK, gclk_id, gclk_src | (1 << GCLK_PCHCTRL_CHEN_Pos));
     10e:	2240      	movs	r2, #64	; 0x40
     110:	4311      	orrs	r1, r2
}

static inline void hri_gclk_write_PCHCTRL_reg(const void *const hw, uint8_t index, hri_gclk_pchctrl_reg_t data)
{
	GCLK_CRITICAL_SECTION_ENTER();
	((Gclk *)hw)->PCHCTRL[index].reg = data;
     112:	3240      	adds	r2, #64	; 0x40
     114:	5099      	str	r1, [r3, r2]
	}
	return 0;
     116:	2000      	movs	r0, #0
}
     118:	0001      	movs	r1, r0
     11a:	0002      	movs	r2, r0
     11c:	0003      	movs	r3, r0
     11e:	4684      	mov	ip, r0
     120:	f38e 8800 	msr	CPSR_f, lr
     124:	4774      	bxns	lr

00000126 <__acle_se_nsc_ext_irq_init>:
#if defined(__ICCARM__) /* IAR EWARM */
__cmse_nonsecure_entry int32_t nsc_ext_irq_init(struct ext_irq_setting irq_setting)
#else /* GCC, Keil MDK with ARM Compiler 6 */
int32_t __attribute__((cmse_nonsecure_entry)) nsc_ext_irq_init(struct ext_irq_setting irq_setting)
#endif
{
     126:	b5f0      	push	{r4, r5, r6, r7, lr}
     128:	46ce      	mov	lr, r9
     12a:	4647      	mov	r7, r8
     12c:	b580      	push	{r7, lr}
     12e:	b087      	sub	sp, #28
     130:	9002      	str	r0, [sp, #8]
     132:	9103      	str	r1, [sp, #12]
     134:	9204      	str	r2, [sp, #16]
     136:	9305      	str	r3, [sp, #20]
	EIC_CRITICAL_SECTION_LEAVE();
}

static inline hri_eic_evctrl_reg_t hri_eic_read_EVCTRL_reg(const void *const hw)
{
	return ((Eic *)hw)->EVCTRL.reg;
     138:	f642 2300 	movw	r3, #10752	; 0x2a00
     13c:	f2c4 0300 	movt	r3, #16384	; 0x4000
     140:	6898      	ldr	r0, [r3, #8]
	EIC_CRITICAL_SECTION_LEAVE();
}

static inline hri_eic_asynch_reg_t hri_eic_read_ASYNCH_reg(const void *const hw)
{
	return ((Eic *)hw)->ASYNCH.reg;
     142:	6999      	ldr	r1, [r3, #24]
	EIC_CRITICAL_SECTION_LEAVE();
}

static inline hri_eic_debouncen_reg_t hri_eic_read_DEBOUNCEN_reg(const void *const hw)
{
	return ((Eic *)hw)->DEBOUNCEN.reg;
     144:	6b1a      	ldr	r2, [r3, #48]	; 0x30
	return ((Eic *)hw)->CONFIG[index].reg;
     146:	69dc      	ldr	r4, [r3, #28]
     148:	46a4      	mov	ip, r4
	EIC_CRITICAL_SECTION_LEAVE();
}

static inline hri_eic_nonsec_reg_t hri_eic_read_NONSEC_reg(const void *const hw)
{
	return ((Eic *)hw)->NONSEC.reg;
     14a:	6c1f      	ldr	r7, [r3, #64]	; 0x40
	uint32_t config_val         = hri_eic_read_CONFIG_reg(EIC_SEC, 0);
	uint32_t nonsec_mask        = hri_eic_read_NONSEC_reg(EIC_SEC);
	uint32_t config_nonsec_mask = 0;

	/* Calculate external interrupt settings with non-secure part  */
	evctrl_val    = (evctrl_val & (~nonsec_mask)) | (irq_setting.evctrl & nonsec_mask);
     14c:	9e02      	ldr	r6, [sp, #8]
     14e:	4046      	eors	r6, r0
     150:	403e      	ands	r6, r7
     152:	4046      	eors	r6, r0
	asynch_val    = (asynch_val & (~nonsec_mask)) | (irq_setting.asynch & nonsec_mask);
     154:	9b04      	ldr	r3, [sp, #16]
     156:	9301      	str	r3, [sp, #4]
     158:	001d      	movs	r5, r3
     15a:	404d      	eors	r5, r1
     15c:	403d      	ands	r5, r7
     15e:	404d      	eors	r5, r1
	debouncen_val = (debouncen_val & (~nonsec_mask)) | (irq_setting.debouncen & nonsec_mask);
     160:	9c05      	ldr	r4, [sp, #20]
     162:	4054      	eors	r4, r2
     164:	403c      	ands	r4, r7
     166:	4054      	eors	r4, r2
     168:	46a1      	mov	r9, r4
	uint32_t config_nonsec_mask = 0;
     16a:	2100      	movs	r1, #0
	for (i = 0; i < 8; i++) {
     16c:	2300      	movs	r3, #0
		if (nonsec_mask & (1u << i)) {
     16e:	2001      	movs	r0, #1
			config_nonsec_mask |= (0xFu << (i * 4));
     170:	f240 080f 	movw	r8, #15
     174:	e002      	b.n	17c <__acle_se_nsc_ext_irq_init+0x56>
	for (i = 0; i < 8; i++) {
     176:	3301      	adds	r3, #1
     178:	2b08      	cmp	r3, #8
     17a:	d008      	beq.n	18e <__acle_se_nsc_ext_irq_init+0x68>
		if (nonsec_mask & (1u << i)) {
     17c:	0002      	movs	r2, r0
     17e:	409a      	lsls	r2, r3
     180:	4217      	tst	r7, r2
     182:	d0f8      	beq.n	176 <__acle_se_nsc_ext_irq_init+0x50>
			config_nonsec_mask |= (0xFu << (i * 4));
     184:	009a      	lsls	r2, r3, #2
     186:	4644      	mov	r4, r8
     188:	4094      	lsls	r4, r2
     18a:	4321      	orrs	r1, r4
     18c:	e7f3      	b.n	176 <__acle_se_nsc_ext_irq_init+0x50>
		}
	}
	config_val = (config_val & (~config_nonsec_mask)) | (irq_setting.config[0] & config_nonsec_mask);
     18e:	4660      	mov	r0, ip
     190:	9b03      	ldr	r3, [sp, #12]
     192:	4058      	eors	r0, r3
     194:	4008      	ands	r0, r1
     196:	4663      	mov	r3, ip
     198:	4058      	eors	r0, r3
	((Eic *)hw)->CTRLA.reg &= ~EIC_CTRLA_ENABLE_Msk;
     19a:	f642 2300 	movw	r3, #10752	; 0x2a00
     19e:	f2c4 0300 	movt	r3, #16384	; 0x4000
     1a2:	781a      	ldrb	r2, [r3, #0]
     1a4:	2102      	movs	r1, #2
     1a6:	438a      	bics	r2, r1
     1a8:	701a      	strb	r2, [r3, #0]
	while (((Eic *)hw)->SYNCBUSY.reg & reg) {
     1aa:	f642 2200 	movw	r2, #10752	; 0x2a00
     1ae:	f2c4 0200 	movt	r2, #16384	; 0x4000
     1b2:	3101      	adds	r1, #1
     1b4:	6853      	ldr	r3, [r2, #4]
     1b6:	4219      	tst	r1, r3
     1b8:	d1fc      	bne.n	1b4 <__acle_se_nsc_ext_irq_init+0x8e>
     1ba:	f642 2200 	movw	r2, #10752	; 0x2a00
     1be:	f2c4 0200 	movt	r2, #16384	; 0x4000
     1c2:	2102      	movs	r1, #2
     1c4:	6853      	ldr	r3, [r2, #4]
     1c6:	4219      	tst	r1, r3
     1c8:	d1fc      	bne.n	1c4 <__acle_se_nsc_ext_irq_init+0x9e>
	((Eic *)hw)->EVCTRL.reg = data;
     1ca:	f642 2300 	movw	r3, #10752	; 0x2a00
     1ce:	f2c4 0300 	movt	r3, #16384	; 0x4000
     1d2:	609e      	str	r6, [r3, #8]
	((Eic *)hw)->ASYNCH.reg = data;
     1d4:	619d      	str	r5, [r3, #24]
	((Eic *)hw)->DEBOUNCEN.reg = data;
     1d6:	464a      	mov	r2, r9
     1d8:	631a      	str	r2, [r3, #48]	; 0x30
	((Eic *)hw)->CONFIG[index].reg = data;
     1da:	61d8      	str	r0, [r3, #28]
	((Eic *)hw)->CTRLA.reg |= EIC_CTRLA_ENABLE_Msk;
     1dc:	781a      	ldrb	r2, [r3, #0]
     1de:	2102      	movs	r1, #2
     1e0:	430a      	orrs	r2, r1
     1e2:	701a      	strb	r2, [r3, #0]
	while (((Eic *)hw)->SYNCBUSY.reg & reg) {
     1e4:	f642 2200 	movw	r2, #10752	; 0x2a00
     1e8:	f2c4 0200 	movt	r2, #16384	; 0x4000
     1ec:	3101      	adds	r1, #1
     1ee:	6853      	ldr	r3, [r2, #4]
     1f0:	4219      	tst	r1, r3
     1f2:	d1fc      	bne.n	1ee <__acle_se_nsc_ext_irq_init+0xc8>

	/* Enable EIC */
	hri_eic_set_CTRLA_ENABLE_bit(EIC_SEC);

	return 0;
}
     1f4:	2000      	movs	r0, #0
     1f6:	b007      	add	sp, #28
     1f8:	0001      	movs	r1, r0
     1fa:	0002      	movs	r2, r0
     1fc:	0003      	movs	r3, r0
     1fe:	4684      	mov	ip, r0
     200:	bc0c      	pop	{r2, r3}
     202:	4690      	mov	r8, r2
     204:	4699      	mov	r9, r3
     206:	bcf0      	pop	{r4, r5, r6, r7}
     208:	bc02      	pop	{r1}
     20a:	4686      	mov	lr, r0
     20c:	f381 8800 	msr	CPSR_f, r1
     210:	470c      	bxns	r1
	...

00000214 <__do_global_dtors_aux>:
     214:	b510      	push	{r4, lr}
     216:	f240 0468 	movw	r4, #104	; 0x68
     21a:	f2c2 0400 	movt	r4, #8192	; 0x2000
     21e:	7823      	ldrb	r3, [r4, #0]
     220:	b963      	cbnz	r3, 23c <__do_global_dtors_aux+0x28>
     222:	f240 0300 	movw	r3, #0
     226:	f2c0 0300 	movt	r3, #0
     22a:	b12b      	cbz	r3, 238 <__do_global_dtors_aux+0x24>
     22c:	f244 0020 	movw	r0, #16416	; 0x4020
     230:	f2c0 0080 	movt	r0, #128	; 0x80
     234:	e000      	b.n	238 <__do_global_dtors_aux+0x24>
     236:	bf00      	nop
     238:	2301      	movs	r3, #1
     23a:	7023      	strb	r3, [r4, #0]
     23c:	bd10      	pop	{r4, pc}
     23e:	46c0      	nop			; (mov r8, r8)

00000240 <frame_dummy>:
     240:	f240 0300 	movw	r3, #0
     244:	f2c0 0300 	movt	r3, #0
     248:	b510      	push	{r4, lr}
     24a:	b14b      	cbz	r3, 260 <frame_dummy+0x20>
     24c:	f240 016c 	movw	r1, #108	; 0x6c
     250:	f244 0020 	movw	r0, #16416	; 0x4020
     254:	f2c2 0100 	movt	r1, #8192	; 0x2000
     258:	f2c0 0080 	movt	r0, #128	; 0x80
     25c:	e000      	b.n	260 <frame_dummy+0x20>
     25e:	bf00      	nop
     260:	f244 0020 	movw	r0, #16416	; 0x4020
     264:	f2c0 0080 	movt	r0, #128	; 0x80
     268:	6803      	ldr	r3, [r0, #0]
     26a:	b903      	cbnz	r3, 26e <frame_dummy+0x2e>
     26c:	bd10      	pop	{r4, pc}
     26e:	f240 0300 	movw	r3, #0
     272:	f2c0 0300 	movt	r3, #0
     276:	2b00      	cmp	r3, #0
     278:	d0f8      	beq.n	26c <frame_dummy+0x2c>
     27a:	4798      	blx	r3
     27c:	e7f6      	b.n	26c <frame_dummy+0x2c>
     27e:	46c0      	nop			; (mov r8, r8)

00000280 <atmel_start_init>:

/**
 * Initializes MCU, drivers and middleware in the project
 **/
void atmel_start_init(void)
{
     280:	b510      	push	{r4, lr}
	system_init();
     282:	f640 13fb 	movw	r3, #2555	; 0x9fb
     286:	f2c0 0300 	movt	r3, #0
     28a:	4798      	blx	r3
 * \brief TrustZone Manager Initialization.
 */
static inline void trustzone_manager_init(void)
{
	/* Setup Port Security Attribution of I/O Pins */
	PORT_SEC->Group[0].NONSEC.reg = CONF_PORT_INIT_NONSEC0_VAL;
     28c:	f243 2300 	movw	r3, #12800	; 0x3200
     290:	f2c4 0300 	movt	r3, #16384	; 0x4000
     294:	2200      	movs	r2, #0
     296:	66da      	str	r2, [r3, #108]	; 0x6c

	/* Setup NVIC Interrupt Target Non-Secure state */
	NVIC->ITNS[0] = CONF_NVIC_INIT_ITNS0_VAL;
     298:	f24e 1300 	movw	r3, #57600	; 0xe100
     29c:	f2ce 0300 	movt	r3, #57344	; 0xe000
     2a0:	f240 2180 	movw	r1, #640	; 0x280
     2a4:	505a      	str	r2, [r3, r1]
	NVIC->ITNS[1] = CONF_NVIC_INIT_ITNS1_VAL;
     2a6:	3104      	adds	r1, #4
     2a8:	505a      	str	r2, [r3, r1]
	trustzone_manager_init();
}
     2aa:	bd10      	pop	{r4, pc}

000002ac <I2C_WriteRegister>:
long Pressure;
unsigned long Temperature;
unsigned int Humidity;

//--------------- Writes data to device - single location
static void I2C_WriteRegister(char wrAddr, char wrData) {
     2ac:	b510      	push	{r4, lr}
  tmp_data[0] = wrAddr;
     2ae:	f240 03a4 	movw	r3, #164	; 0xa4
     2b2:	f2c2 0300 	movt	r3, #8192	; 0x2000
     2b6:	7018      	strb	r0, [r3, #0]
  tmp_data[1] = wrData;
     2b8:	7059      	strb	r1, [r3, #1]
  io_write(I2C_0_io, tmp_data, 2);
     2ba:	f240 029c 	movw	r2, #156	; 0x9c
     2be:	f2c2 0200 	movt	r2, #8192	; 0x2000
     2c2:	6810      	ldr	r0, [r2, #0]
     2c4:	2202      	movs	r2, #2
     2c6:	0019      	movs	r1, r3
     2c8:	f640 333f 	movw	r3, #2879	; 0xb3f
     2cc:	f2c0 0300 	movt	r3, #0
     2d0:	4798      	blx	r3
  //I2C1_Start();
  //I2C1_Write(BME280_I2C_ADDRESS1, tmp_data,2, END_MODE_STOP);
}
     2d2:	bd10      	pop	{r4, pc}

000002d4 <I2C_ReadRegister>:

//--------------- Reads data from device - single location
static char I2C_ReadRegister(char rAddr) {
     2d4:	b530      	push	{r4, r5, lr}
     2d6:	b083      	sub	sp, #12
  uint8_t read_reg = rAddr;
     2d8:	466b      	mov	r3, sp
     2da:	1ddc      	adds	r4, r3, #7
     2dc:	71d8      	strb	r0, [r3, #7]
  io_write(I2C_0_io, &read_reg, 1);
     2de:	f240 059c 	movw	r5, #156	; 0x9c
     2e2:	f2c2 0500 	movt	r5, #8192	; 0x2000
     2e6:	2201      	movs	r2, #1
     2e8:	0021      	movs	r1, r4
     2ea:	6828      	ldr	r0, [r5, #0]
     2ec:	f640 333f 	movw	r3, #2879	; 0xb3f
     2f0:	f2c0 0300 	movt	r3, #0
     2f4:	4798      	blx	r3
  io_read(I2C_0_io, &read_reg, 1);
     2f6:	6828      	ldr	r0, [r5, #0]
     2f8:	2201      	movs	r2, #1
     2fa:	0021      	movs	r1, r4
     2fc:	f640 3375 	movw	r3, #2933	; 0xb75
     300:	f2c0 0300 	movt	r3, #0
     304:	4798      	blx	r3
  return read_reg;
     306:	7820      	ldrb	r0, [r4, #0]
}
     308:	b003      	add	sp, #12
     30a:	bd30      	pop	{r4, r5, pc}

0000030c <BME280_ReadMeasurements>:

void BME280_ReadMeasurements() {
     30c:	b570      	push	{r4, r5, r6, lr}
  tmp_data[0] = BME280_PRESSURE_MSB_REG;
     30e:	f240 04a4 	movw	r4, #164	; 0xa4
     312:	f2c2 0400 	movt	r4, #8192	; 0x2000
     316:	23f7      	movs	r3, #247	; 0xf7
     318:	7023      	strb	r3, [r4, #0]
  io_write(I2C_0_io, tmp_data, 1);
     31a:	f240 059c 	movw	r5, #156	; 0x9c
     31e:	f2c2 0500 	movt	r5, #8192	; 0x2000
     322:	2201      	movs	r2, #1
     324:	0021      	movs	r1, r4
     326:	6828      	ldr	r0, [r5, #0]
     328:	f640 333f 	movw	r3, #2879	; 0xb3f
     32c:	f2c0 0300 	movt	r3, #0
     330:	4798      	blx	r3
  io_read(I2C_0_io, tmp_data, 8);
     332:	6828      	ldr	r0, [r5, #0]
     334:	2208      	movs	r2, #8
     336:	0021      	movs	r1, r4
     338:	f640 3375 	movw	r3, #2933	; 0xb75
     33c:	f2c0 0300 	movt	r3, #0
     340:	4798      	blx	r3
  //I2C1_Start();              // issue I2C start signal
  //I2C1_Write(BME280_I2C_ADDRESS1 ,tmp_data,1,END_MODE_RESTART);
  //I2C1_Read(BME280_I2C_ADDRESS1, tmp_data, BME280_DATA_FRAME_SIZE , END_MODE_STOP);

  adc_h = tmp_data[BME280_DATA_FRAME_HUMIDITY_LSB_BYTE];
  adc_h |= (unsigned long)tmp_data[BME280_DATA_FRAME_HUMIDITY_MSB_BYTE] << 8;
     342:	f240 1200 	movw	r2, #256	; 0x100
     346:	f2c2 0200 	movt	r2, #8192	; 0x2000
     34a:	79a3      	ldrb	r3, [r4, #6]
     34c:	021b      	lsls	r3, r3, #8
     34e:	79e1      	ldrb	r1, [r4, #7]
     350:	430b      	orrs	r3, r1
     352:	6013      	str	r3, [r2, #0]

  adc_t  = (unsigned long)tmp_data[BME280_DATA_FRAME_TEMPERATURE_XLSB_BYTE] >> 4;
  adc_t |= (unsigned long)tmp_data[BME280_DATA_FRAME_TEMPERATURE_LSB_BYTE] << 4;
  adc_t |= (unsigned long)tmp_data[BME280_DATA_FRAME_TEMPERATURE_MSB_BYTE] << 12;
     354:	f240 0294 	movw	r2, #148	; 0x94
     358:	f2c2 0200 	movt	r2, #8192	; 0x2000
  adc_t |= (unsigned long)tmp_data[BME280_DATA_FRAME_TEMPERATURE_LSB_BYTE] << 4;
     35c:	7923      	ldrb	r3, [r4, #4]
     35e:	011b      	lsls	r3, r3, #4
  adc_t  = (unsigned long)tmp_data[BME280_DATA_FRAME_TEMPERATURE_XLSB_BYTE] >> 4;
     360:	7961      	ldrb	r1, [r4, #5]
  adc_t |= (unsigned long)tmp_data[BME280_DATA_FRAME_TEMPERATURE_LSB_BYTE] << 4;
     362:	0909      	lsrs	r1, r1, #4
     364:	430b      	orrs	r3, r1
  adc_t |= (unsigned long)tmp_data[BME280_DATA_FRAME_TEMPERATURE_MSB_BYTE] << 12;
     366:	78e1      	ldrb	r1, [r4, #3]
     368:	0309      	lsls	r1, r1, #12
     36a:	430b      	orrs	r3, r1
     36c:	6013      	str	r3, [r2, #0]

  adc_p  = (unsigned long)tmp_data[BME280_DATA_FRAME_PRESSURE_XLSB_BYTE] >> 4;
  adc_p |= (unsigned long)tmp_data[BME280_DATA_FRAME_PRESSURE_LSB_BYTE] << 4;
  adc_p |= (unsigned long)tmp_data[BME280_DATA_FRAME_PRESSURE_MSB_BYTE] << 12;
     36e:	f240 02a0 	movw	r2, #160	; 0xa0
     372:	f2c2 0200 	movt	r2, #8192	; 0x2000
  adc_p |= (unsigned long)tmp_data[BME280_DATA_FRAME_PRESSURE_LSB_BYTE] << 4;
     376:	7863      	ldrb	r3, [r4, #1]
     378:	011b      	lsls	r3, r3, #4
  adc_p  = (unsigned long)tmp_data[BME280_DATA_FRAME_PRESSURE_XLSB_BYTE] >> 4;
     37a:	78a1      	ldrb	r1, [r4, #2]
  adc_p |= (unsigned long)tmp_data[BME280_DATA_FRAME_PRESSURE_LSB_BYTE] << 4;
     37c:	0909      	lsrs	r1, r1, #4
     37e:	430b      	orrs	r3, r1
  adc_p |= (unsigned long)tmp_data[BME280_DATA_FRAME_PRESSURE_MSB_BYTE] << 12;
     380:	7821      	ldrb	r1, [r4, #0]
     382:	0309      	lsls	r1, r1, #12
     384:	430b      	orrs	r3, r1
     386:	6013      	str	r3, [r2, #0]
}
     388:	bd70      	pop	{r4, r5, r6, pc}

0000038a <BME280_GetStatus>:

void BME280_SoftReset() {
  I2C_WriteRegister(BME280_RST_REG, BME280_SOFT_RESET);
}

char BME280_GetStatus() {
     38a:	b510      	push	{r4, lr}
  return I2C_ReadRegister(BME280_STAT_REG);
     38c:	20f3      	movs	r0, #243	; 0xf3
     38e:	f240 23d5 	movw	r3, #725	; 0x2d5
     392:	f2c0 0300 	movt	r3, #0
     396:	4798      	blx	r3
}
     398:	bd10      	pop	{r4, pc}

0000039a <BME280_GetCtrlMeasurement>:

char BME280_GetCtrlMeasurement() {
     39a:	b510      	push	{r4, lr}
  return I2C_ReadRegister(BME280_CTRL_MEAS_REG);
     39c:	20f4      	movs	r0, #244	; 0xf4
     39e:	f240 23d5 	movw	r3, #725	; 0x2d5
     3a2:	f2c0 0300 	movt	r3, #0
     3a6:	4798      	blx	r3
}
     3a8:	bd10      	pop	{r4, pc}

000003aa <BME280_GetConfig>:

char BME280_GetCtrlHumidity() {
  return I2C_ReadRegister(BME280_CTRL_HUMIDITY_REG);
}

char BME280_GetConfig() {
     3aa:	b510      	push	{r4, lr}
  return I2C_ReadRegister(BME280_CONFIG_REG);
     3ac:	20f5      	movs	r0, #245	; 0xf5
     3ae:	f240 23d5 	movw	r3, #725	; 0x2d5
     3b2:	f2c0 0300 	movt	r3, #0
     3b6:	4798      	blx	r3
}
     3b8:	bd10      	pop	{r4, pc}

000003ba <BME280_ReadCalibrationParams>:


//Read factory calibration parameters
void BME280_ReadCalibrationParams() {
     3ba:	b570      	push	{r4, r5, r6, lr}
   char lsb, msb;
   

   msb = I2C_ReadRegister(BME280_TEMPERATURE_CALIB_DIG_T1_MSB_REG);
     3bc:	2089      	movs	r0, #137	; 0x89
     3be:	f240 25d5 	movw	r5, #725	; 0x2d5
     3c2:	f2c0 0500 	movt	r5, #0
     3c6:	47a8      	blx	r5
   cal_param.dig_T1 = (unsigned int) msb;
     3c8:	f240 04b8 	movw	r4, #184	; 0xb8
     3cc:	f2c2 0400 	movt	r4, #8192	; 0x2000
     3d0:	6020      	str	r0, [r4, #0]
   lsb = I2C_ReadRegister(BME280_TEMPERATURE_CALIB_DIG_T1_LSB_REG);
     3d2:	2088      	movs	r0, #136	; 0x88
     3d4:	47a8      	blx	r5
   cal_param.dig_T1 = (cal_param.dig_T1 << 8) + lsb;
     3d6:	6823      	ldr	r3, [r4, #0]
     3d8:	021b      	lsls	r3, r3, #8
     3da:	1818      	adds	r0, r3, r0
     3dc:	6020      	str	r0, [r4, #0]
   

   msb = I2C_ReadRegister(BME280_TEMPERATURE_CALIB_DIG_T2_MSB_REG);
     3de:	208b      	movs	r0, #139	; 0x8b
     3e0:	47a8      	blx	r5
   cal_param.dig_T2 = (int) msb;
     3e2:	6060      	str	r0, [r4, #4]
   lsb = I2C_ReadRegister(BME280_TEMPERATURE_CALIB_DIG_T2_LSB_REG);
     3e4:	208a      	movs	r0, #138	; 0x8a
     3e6:	47a8      	blx	r5
   cal_param.dig_T2 = (cal_param.dig_T2 << 8) + lsb;
     3e8:	6863      	ldr	r3, [r4, #4]
     3ea:	021b      	lsls	r3, r3, #8
     3ec:	1818      	adds	r0, r3, r0
     3ee:	6060      	str	r0, [r4, #4]
   

   msb = I2C_ReadRegister(BME280_TEMPERATURE_CALIB_DIG_T3_MSB_REG);
     3f0:	208d      	movs	r0, #141	; 0x8d
     3f2:	47a8      	blx	r5
   cal_param.dig_T3 = (int) msb;
     3f4:	60a0      	str	r0, [r4, #8]
   lsb = I2C_ReadRegister(BME280_TEMPERATURE_CALIB_DIG_T3_LSB_REG);
     3f6:	208c      	movs	r0, #140	; 0x8c
     3f8:	47a8      	blx	r5
   cal_param.dig_T3 = (cal_param.dig_T3 << 8) + lsb;
     3fa:	68a3      	ldr	r3, [r4, #8]
     3fc:	021b      	lsls	r3, r3, #8
     3fe:	1818      	adds	r0, r3, r0
     400:	60a0      	str	r0, [r4, #8]
   

   msb = I2C_ReadRegister(BME280_PRESSURE_CALIB_DIG_P1_MSB_REG);
     402:	208f      	movs	r0, #143	; 0x8f
     404:	47a8      	blx	r5
   cal_param.dig_P1 = (unsigned int) msb;
     406:	60e0      	str	r0, [r4, #12]
   lsb = I2C_ReadRegister(BME280_PRESSURE_CALIB_DIG_P1_LSB_REG);
     408:	208e      	movs	r0, #142	; 0x8e
     40a:	47a8      	blx	r5
   cal_param.dig_P1 = (cal_param.dig_P1 << 8) + lsb;
     40c:	68e3      	ldr	r3, [r4, #12]
     40e:	021b      	lsls	r3, r3, #8
     410:	1818      	adds	r0, r3, r0
     412:	60e0      	str	r0, [r4, #12]
   

   msb = I2C_ReadRegister(BME280_PRESSURE_CALIB_DIG_P2_MSB_REG);
     414:	2091      	movs	r0, #145	; 0x91
     416:	47a8      	blx	r5
   cal_param.dig_P2 = (int) msb;
     418:	6120      	str	r0, [r4, #16]
   lsb = I2C_ReadRegister(BME280_PRESSURE_CALIB_DIG_P2_LSB_REG);
     41a:	2090      	movs	r0, #144	; 0x90
     41c:	47a8      	blx	r5
   cal_param.dig_P2 = (cal_param.dig_P2 << 8) + lsb;
     41e:	6923      	ldr	r3, [r4, #16]
     420:	021b      	lsls	r3, r3, #8
     422:	1818      	adds	r0, r3, r0
     424:	6120      	str	r0, [r4, #16]
   

   msb = I2C_ReadRegister(BME280_PRESSURE_CALIB_DIG_P3_MSB_REG);
     426:	2093      	movs	r0, #147	; 0x93
     428:	47a8      	blx	r5
   cal_param.dig_P3 = (int) msb;
     42a:	6160      	str	r0, [r4, #20]
   lsb = I2C_ReadRegister(BME280_PRESSURE_CALIB_DIG_P3_LSB_REG);
     42c:	2092      	movs	r0, #146	; 0x92
     42e:	47a8      	blx	r5
   cal_param.dig_P3 = (cal_param.dig_P3 << 8) + lsb;
     430:	6963      	ldr	r3, [r4, #20]
     432:	021b      	lsls	r3, r3, #8
     434:	1818      	adds	r0, r3, r0
     436:	6160      	str	r0, [r4, #20]
   

   msb = I2C_ReadRegister(BME280_PRESSURE_CALIB_DIG_P4_MSB_REG);
     438:	2095      	movs	r0, #149	; 0x95
     43a:	47a8      	blx	r5
   cal_param.dig_P4 = (int) msb;
     43c:	61a0      	str	r0, [r4, #24]
   lsb = I2C_ReadRegister(BME280_PRESSURE_CALIB_DIG_P4_LSB_REG);
     43e:	2094      	movs	r0, #148	; 0x94
     440:	47a8      	blx	r5
   cal_param.dig_P4 = (cal_param.dig_P4 << 8) + lsb;
     442:	69a3      	ldr	r3, [r4, #24]
     444:	021b      	lsls	r3, r3, #8
     446:	1818      	adds	r0, r3, r0
     448:	61a0      	str	r0, [r4, #24]
   

   msb = I2C_ReadRegister(BME280_PRESSURE_CALIB_DIG_P5_MSB_REG);
     44a:	2097      	movs	r0, #151	; 0x97
     44c:	47a8      	blx	r5
   cal_param.dig_P5 = (int) msb;
     44e:	61e0      	str	r0, [r4, #28]
   lsb = I2C_ReadRegister(BME280_PRESSURE_CALIB_DIG_P5_LSB_REG);
     450:	2096      	movs	r0, #150	; 0x96
     452:	47a8      	blx	r5
   cal_param.dig_P5 = (cal_param.dig_P5 << 8) + lsb;
     454:	69e3      	ldr	r3, [r4, #28]
     456:	021b      	lsls	r3, r3, #8
     458:	1818      	adds	r0, r3, r0
     45a:	61e0      	str	r0, [r4, #28]
   

   msb = I2C_ReadRegister(BME280_PRESSURE_CALIB_DIG_P6_MSB_REG);
     45c:	2099      	movs	r0, #153	; 0x99
     45e:	47a8      	blx	r5
   cal_param.dig_P6 = (int) msb;
     460:	6220      	str	r0, [r4, #32]
   lsb = I2C_ReadRegister(BME280_PRESSURE_CALIB_DIG_P6_LSB_REG);
     462:	2098      	movs	r0, #152	; 0x98
     464:	47a8      	blx	r5
   cal_param.dig_P6 = (cal_param.dig_P6 << 8) + lsb;
     466:	6a23      	ldr	r3, [r4, #32]
     468:	021b      	lsls	r3, r3, #8
     46a:	1818      	adds	r0, r3, r0
     46c:	6220      	str	r0, [r4, #32]
   

   msb = I2C_ReadRegister(BME280_PRESSURE_CALIB_DIG_P7_MSB_REG);
     46e:	209b      	movs	r0, #155	; 0x9b
     470:	47a8      	blx	r5
   cal_param.dig_P7 = (int) msb;
     472:	6260      	str	r0, [r4, #36]	; 0x24
   lsb = I2C_ReadRegister(BME280_PRESSURE_CALIB_DIG_P7_LSB_REG);
     474:	209a      	movs	r0, #154	; 0x9a
     476:	47a8      	blx	r5
   cal_param.dig_P7 = (cal_param.dig_P7 << 8) + lsb;
     478:	6a63      	ldr	r3, [r4, #36]	; 0x24
     47a:	021b      	lsls	r3, r3, #8
     47c:	1818      	adds	r0, r3, r0
     47e:	6260      	str	r0, [r4, #36]	; 0x24
   

   msb = I2C_ReadRegister(BME280_PRESSURE_CALIB_DIG_P8_MSB_REG);
     480:	209d      	movs	r0, #157	; 0x9d
     482:	47a8      	blx	r5
   cal_param.dig_P8 = (int) msb;
     484:	62a0      	str	r0, [r4, #40]	; 0x28
   lsb = I2C_ReadRegister(BME280_PRESSURE_CALIB_DIG_P8_LSB_REG);
     486:	209c      	movs	r0, #156	; 0x9c
     488:	47a8      	blx	r5
   cal_param.dig_P8 = (cal_param.dig_P8 << 8) + lsb;
     48a:	6aa3      	ldr	r3, [r4, #40]	; 0x28
     48c:	021b      	lsls	r3, r3, #8
     48e:	1818      	adds	r0, r3, r0
     490:	62a0      	str	r0, [r4, #40]	; 0x28
   

   msb = I2C_ReadRegister(BME280_PRESSURE_CALIB_DIG_P9_MSB_REG);
     492:	209f      	movs	r0, #159	; 0x9f
     494:	47a8      	blx	r5
   cal_param.dig_P9 = (int) msb;
     496:	62e0      	str	r0, [r4, #44]	; 0x2c
   lsb = I2C_ReadRegister(BME280_PRESSURE_CALIB_DIG_P9_LSB_REG);
     498:	209e      	movs	r0, #158	; 0x9e
     49a:	47a8      	blx	r5
   cal_param.dig_P9 = (cal_param.dig_P9 << 8) + lsb;
     49c:	6ae3      	ldr	r3, [r4, #44]	; 0x2c
     49e:	021b      	lsls	r3, r3, #8
     4a0:	1818      	adds	r0, r3, r0
     4a2:	62e0      	str	r0, [r4, #44]	; 0x2c
   
   lsb = I2C_ReadRegister(BME280_HUMIDITY_CALIB_DIG_H1_REG);
     4a4:	20a1      	movs	r0, #161	; 0xa1
     4a6:	47a8      	blx	r5
   cal_param.dig_H1 = (char) lsb;
     4a8:	2330      	movs	r3, #48	; 0x30
     4aa:	54e0      	strb	r0, [r4, r3]
   

   msb = I2C_ReadRegister(BME280_HUMIDITY_CALIB_DIG_H2_MSB_REG);
     4ac:	20e2      	movs	r0, #226	; 0xe2
     4ae:	47a8      	blx	r5
   cal_param.dig_H2 = (int) msb;
     4b0:	6360      	str	r0, [r4, #52]	; 0x34
   lsb = I2C_ReadRegister(BME280_HUMIDITY_CALIB_DIG_H2_LSB_REG);
     4b2:	20e1      	movs	r0, #225	; 0xe1
     4b4:	47a8      	blx	r5
   cal_param.dig_H2 = (cal_param.dig_H2 << 8) + lsb;
     4b6:	6b63      	ldr	r3, [r4, #52]	; 0x34
     4b8:	021b      	lsls	r3, r3, #8
     4ba:	1818      	adds	r0, r3, r0
     4bc:	6360      	str	r0, [r4, #52]	; 0x34
   
   lsb = I2C_ReadRegister(BME280_HUMIDITY_CALIB_DIG_H3_REG);
     4be:	20e3      	movs	r0, #227	; 0xe3
     4c0:	47a8      	blx	r5
   cal_param.dig_H3 = (char) lsb;
     4c2:	2338      	movs	r3, #56	; 0x38
     4c4:	54e0      	strb	r0, [r4, r3]
   

   msb = I2C_ReadRegister(BME280_HUMIDITY_CALIB_DIG_H4_MSB_REG);
     4c6:	20e4      	movs	r0, #228	; 0xe4
     4c8:	47a8      	blx	r5
   cal_param.dig_H4 = (int) msb;
     4ca:	63e0      	str	r0, [r4, #60]	; 0x3c
   lsb = I2C_ReadRegister(BME280_HUMIDITY_CALIB_DIG_H4_LSB_REG);
     4cc:	20e5      	movs	r0, #229	; 0xe5
     4ce:	47a8      	blx	r5
     4d0:	0006      	movs	r6, r0
   cal_param.dig_H4 = (cal_param.dig_H4 << 4) | (lsb & 0xF);
     4d2:	6be3      	ldr	r3, [r4, #60]	; 0x3c
     4d4:	011b      	lsls	r3, r3, #4
     4d6:	220f      	movs	r2, #15
     4d8:	4002      	ands	r2, r0
     4da:	4313      	orrs	r3, r2
     4dc:	63e3      	str	r3, [r4, #60]	; 0x3c
   
   msb = I2C_ReadRegister(BME280_HUMIDITY_CALIB_DIG_H5_MSB_REG);
     4de:	20e6      	movs	r0, #230	; 0xe6
     4e0:	47a8      	blx	r5
   cal_param.dig_H5 = (int) msb;
   cal_param.dig_H5 = (cal_param.dig_H5 << 4) | (lsb >> 4);
     4e2:	0100      	lsls	r0, r0, #4
     4e4:	0936      	lsrs	r6, r6, #4
     4e6:	b2f6      	uxtb	r6, r6
     4e8:	4306      	orrs	r6, r0
     4ea:	6426      	str	r6, [r4, #64]	; 0x40
   
   lsb = I2C_ReadRegister(BME280_HUMIDITY_CALIB_DIG_H6_REG);
     4ec:	20e7      	movs	r0, #231	; 0xe7
     4ee:	47a8      	blx	r5
   cal_param.dig_H6 = (short) lsb;
     4f0:	2344      	movs	r3, #68	; 0x44
     4f2:	52e0      	strh	r0, [r4, r3]
}
     4f4:	bd70      	pop	{r4, r5, r6, pc}

000004f6 <BME280_SetOversamplingPressure>:

void BME280_SetOversamplingPressure(char Value) {
     4f6:	b510      	push	{r4, lr}
     4f8:	0004      	movs	r4, r0
  char ctrlm;
  ctrlm = BME280_GetCtrlMeasurement();
     4fa:	f240 339b 	movw	r3, #923	; 0x39b
     4fe:	f2c0 0300 	movt	r3, #0
     502:	4798      	blx	r3
  ctrlm &= ~BME280_CTRL_MEAS_REG_OVERSAMP_PRESSURE__MSK;
  ctrlm |= Value << BME280_CTRL_MEAS_REG_OVERSAMP_PRESSURE__POS;
     504:	00a4      	lsls	r4, r4, #2
  ctrlm &= ~BME280_CTRL_MEAS_REG_OVERSAMP_PRESSURE__MSK;
     506:	231c      	movs	r3, #28
     508:	0001      	movs	r1, r0
     50a:	4399      	bics	r1, r3
  ctrlm |= Value << BME280_CTRL_MEAS_REG_OVERSAMP_PRESSURE__POS;
     50c:	4321      	orrs	r1, r4
  
  I2C_WriteRegister(BME280_CTRL_MEAS_REG, ctrlm);
     50e:	b2c9      	uxtb	r1, r1
     510:	20f4      	movs	r0, #244	; 0xf4
     512:	f240 23ad 	movw	r3, #685	; 0x2ad
     516:	f2c0 0300 	movt	r3, #0
     51a:	4798      	blx	r3
}
     51c:	bd10      	pop	{r4, pc}

0000051e <BME280_SetOversamplingTemperature>:

void BME280_SetOversamplingTemperature(char Value) {
     51e:	b510      	push	{r4, lr}
     520:	0004      	movs	r4, r0
  char ctrlm;
  ctrlm = BME280_GetCtrlMeasurement();
     522:	f240 339b 	movw	r3, #923	; 0x39b
     526:	f2c0 0300 	movt	r3, #0
     52a:	4798      	blx	r3
  ctrlm &= ~BME280_CTRL_MEAS_REG_OVERSAMP_TEMPERATURE__MSK;
  ctrlm |= Value << BME280_CTRL_MEAS_REG_OVERSAMP_TEMPERATURE__POS;
     52c:	0164      	lsls	r4, r4, #5
  ctrlm &= ~BME280_CTRL_MEAS_REG_OVERSAMP_TEMPERATURE__MSK;
     52e:	211f      	movs	r1, #31
     530:	4001      	ands	r1, r0
  ctrlm |= Value << BME280_CTRL_MEAS_REG_OVERSAMP_TEMPERATURE__POS;
     532:	4321      	orrs	r1, r4

  I2C_WriteRegister(BME280_CTRL_MEAS_REG, ctrlm);
     534:	b2c9      	uxtb	r1, r1
     536:	20f4      	movs	r0, #244	; 0xf4
     538:	f240 23ad 	movw	r3, #685	; 0x2ad
     53c:	f2c0 0300 	movt	r3, #0
     540:	4798      	blx	r3
}
     542:	bd10      	pop	{r4, pc}

00000544 <BME280_SetOversamplingHumidity>:

void BME280_SetOversamplingHumidity(char Value) {
     544:	b510      	push	{r4, lr}
     546:	0001      	movs	r1, r0

  I2C_WriteRegister(BME280_CTRL_HUMIDITY_REG, Value );
     548:	20f2      	movs	r0, #242	; 0xf2
     54a:	f240 23ad 	movw	r3, #685	; 0x2ad
     54e:	f2c0 0300 	movt	r3, #0
     552:	4798      	blx	r3
}
     554:	bd10      	pop	{r4, pc}

00000556 <BME280_SetOversamplingMode>:

void BME280_SetOversamplingMode(char Value) {
     556:	b510      	push	{r4, lr}
     558:	0004      	movs	r4, r0
  char ctrlm;
  ctrlm = BME280_GetCtrlMeasurement();
     55a:	f240 339b 	movw	r3, #923	; 0x39b
     55e:	f2c0 0300 	movt	r3, #0
     562:	4798      	blx	r3
  ctrlm |= Value;
     564:	4320      	orrs	r0, r4

  I2C_WriteRegister(BME280_CTRL_MEAS_REG, ctrlm);
     566:	b2c1      	uxtb	r1, r0
     568:	20f4      	movs	r0, #244	; 0xf4
     56a:	f240 23ad 	movw	r3, #685	; 0x2ad
     56e:	f2c0 0300 	movt	r3, #0
     572:	4798      	blx	r3
}
     574:	bd10      	pop	{r4, pc}

00000576 <BME280_SetFilterCoefficient>:

void BME280_SetFilterCoefficient(char Value) {
     576:	b510      	push	{r4, lr}
  char cfgv;
  cfgv = BME280_GetConfig();
     578:	f240 33ab 	movw	r3, #939	; 0x3ab
     57c:	f2c0 0300 	movt	r3, #0
     580:	4798      	blx	r3
  cfgv &= ~BME280_CONFIG_REG_FILTER__MSK;
  cfgv |= Value << BME280_CONFIG_REG_FILTER__POS;
}
     582:	bd10      	pop	{r4, pc}

00000584 <BME280_SetStandbyTime>:

void BME280_SetStandbyTime(char Value) {
     584:	b510      	push	{r4, lr}
  char cfgv;
  cfgv = BME280_GetConfig();
     586:	f240 33ab 	movw	r3, #939	; 0x3ab
     58a:	f2c0 0300 	movt	r3, #0
     58e:	4798      	blx	r3
  cfgv &= ~BME280_CONFIG_REG_TSB__MSK;
  cfgv |= Value << BME280_CONFIG_REG_TSB__POS;
}
     590:	bd10      	pop	{r4, pc}

00000592 <BME280_IsMeasuring>:

char BME280_IsMeasuring() {
     592:	b510      	push	{r4, lr}
  char output;
  output = BME280_GetStatus();
     594:	f240 338b 	movw	r3, #907	; 0x38b
     598:	f2c0 0300 	movt	r3, #0
     59c:	4798      	blx	r3
  return (output & BME280_STAT_REG_MEASURING__MSK);
     59e:	2308      	movs	r3, #8
     5a0:	4018      	ands	r0, r3
}
     5a2:	bd10      	pop	{r4, pc}

000005a4 <BME280_GetTemperature>:
  P = (unsigned long)((long)P + ((press1 + press2 + cal_param.dig_P7) >> 4));
  return P;
}


float BME280_GetTemperature() {
     5a4:	b510      	push	{r4, lr}
  temp1 = ((((adc_t>>3) -((long)cal_param.dig_T1<<1))) * ((long)cal_param.dig_T2)) >> 11;
     5a6:	f240 0394 	movw	r3, #148	; 0x94
     5aa:	f2c2 0300 	movt	r3, #8192	; 0x2000
     5ae:	6818      	ldr	r0, [r3, #0]
     5b0:	f240 02b8 	movw	r2, #184	; 0xb8
     5b4:	f2c2 0200 	movt	r2, #8192	; 0x2000
     5b8:	6811      	ldr	r1, [r2, #0]
  temp2 = (((((adc_t>>4) - ((long)cal_param.dig_T1)) * ((adc_t>>4) - ((long)cal_param.dig_T1))) >> 12) * ((long)cal_param.dig_T3)) >> 14;
     5ba:	1103      	asrs	r3, r0, #4
     5bc:	1a5b      	subs	r3, r3, r1
  temp1 = ((((adc_t>>3) -((long)cal_param.dig_T1<<1))) * ((long)cal_param.dig_T2)) >> 11;
     5be:	10c0      	asrs	r0, r0, #3
     5c0:	0049      	lsls	r1, r1, #1
     5c2:	1a40      	subs	r0, r0, r1
     5c4:	6851      	ldr	r1, [r2, #4]
     5c6:	4348      	muls	r0, r1
     5c8:	12c0      	asrs	r0, r0, #11
  temp2 = (((((adc_t>>4) - ((long)cal_param.dig_T1)) * ((adc_t>>4) - ((long)cal_param.dig_T1))) >> 12) * ((long)cal_param.dig_T3)) >> 14;
     5ca:	435b      	muls	r3, r3
     5cc:	131b      	asrs	r3, r3, #12
     5ce:	6892      	ldr	r2, [r2, #8]
     5d0:	4353      	muls	r3, r2
     5d2:	139b      	asrs	r3, r3, #14
  t_fine = temp1 + temp2;
     5d4:	18c0      	adds	r0, r0, r3
     5d6:	f240 130c 	movw	r3, #268	; 0x10c
     5da:	f2c2 0300 	movt	r3, #8192	; 0x2000
     5de:	6018      	str	r0, [r3, #0]
  T = (t_fine * 5 + 128) >> 8;
     5e0:	0083      	lsls	r3, r0, #2
     5e2:	1818      	adds	r0, r3, r0
     5e4:	3080      	adds	r0, #128	; 0x80
     5e6:	1200      	asrs	r0, r0, #8
  return (float)BME280_Compensate_T() / 100;
     5e8:	f242 33a9 	movw	r3, #9129	; 0x23a9
     5ec:	f2c0 0300 	movt	r3, #0
     5f0:	4798      	blx	r3
     5f2:	f641 63bd 	movw	r3, #7869	; 0x1ebd
     5f6:	f2c0 0300 	movt	r3, #0
     5fa:	2100      	movs	r1, #0
     5fc:	f2c4 21c8 	movt	r1, #17096	; 0x42c8
     600:	4798      	blx	r3
}
     602:	bd10      	pop	{r4, pc}

00000604 <BME280_GetHumidity>:

float BME280_GetHumidity() {
     604:	b570      	push	{r4, r5, r6, lr}
  h1 = (t_fine - ((long)76800));
     606:	f240 130c 	movw	r3, #268	; 0x10c
     60a:	f2c2 0300 	movt	r3, #8192	; 0x2000
     60e:	681a      	ldr	r2, [r3, #0]
     610:	f24d 4c00 	movw	ip, #54272	; 0xd400
     614:	f6cf 7cfe 	movt	ip, #65534	; 0xfffe
     618:	4462      	add	r2, ip
  h1 = (((((adc_h << 14) - (((long)cal_param.dig_H4) << 20) - (((long)cal_param.dig_H5) * h1)) +
     61a:	f240 1300 	movw	r3, #256	; 0x100
     61e:	f2c2 0300 	movt	r3, #8192	; 0x2000
     622:	681b      	ldr	r3, [r3, #0]
     624:	039b      	lsls	r3, r3, #14
     626:	f240 01b8 	movw	r1, #184	; 0xb8
     62a:	f2c2 0100 	movt	r1, #8192	; 0x2000
     62e:	6bc8      	ldr	r0, [r1, #60]	; 0x3c
     630:	0500      	lsls	r0, r0, #20
     632:	1a1b      	subs	r3, r3, r0
     634:	6c08      	ldr	r0, [r1, #64]	; 0x40
     636:	4350      	muls	r0, r2
     638:	1a1b      	subs	r3, r3, r0
     63a:	f244 0c00 	movw	ip, #16384	; 0x4000
     63e:	4463      	add	r3, ip
    ((long)16384)) >> 15) * (((((((h1 * ((long)cal_param.dig_H6)) >> 10) * (((h1 *
     640:	13db      	asrs	r3, r3, #15
    ((long)cal_param.dig_H3)) >> 11) + ((long)32768))) >> 10) + ((long)2097152)) *
     642:	2038      	movs	r0, #56	; 0x38
     644:	5c08      	ldrb	r0, [r1, r0]
    ((long)16384)) >> 15) * (((((((h1 * ((long)cal_param.dig_H6)) >> 10) * (((h1 *
     646:	4350      	muls	r0, r2
    ((long)cal_param.dig_H3)) >> 11) + ((long)32768))) >> 10) + ((long)2097152)) *
     648:	12c0      	asrs	r0, r0, #11
     64a:	f248 0400 	movw	r4, #32768	; 0x8000
     64e:	1904      	adds	r4, r0, r4
    ((long)16384)) >> 15) * (((((((h1 * ((long)cal_param.dig_H6)) >> 10) * (((h1 *
     650:	2044      	movs	r0, #68	; 0x44
     652:	5e08      	ldrsh	r0, [r1, r0]
     654:	4350      	muls	r0, r2
     656:	1280      	asrs	r0, r0, #10
     658:	4360      	muls	r0, r4
    ((long)cal_param.dig_H3)) >> 11) + ((long)32768))) >> 10) + ((long)2097152)) *
     65a:	1280      	asrs	r0, r0, #10
     65c:	2280      	movs	r2, #128	; 0x80
     65e:	0392      	lsls	r2, r2, #14
     660:	4694      	mov	ip, r2
     662:	4460      	add	r0, ip
     664:	6b4a      	ldr	r2, [r1, #52]	; 0x34
     666:	4350      	muls	r0, r2
    ((long)cal_param.dig_H2) + 8192) >> 14));
     668:	f242 0c00 	movw	ip, #8192	; 0x2000
     66c:	4460      	add	r0, ip
     66e:	1380      	asrs	r0, r0, #14
  h1 = (((((adc_h << 14) - (((long)cal_param.dig_H4) << 20) - (((long)cal_param.dig_H5) * h1)) +
     670:	4343      	muls	r3, r0
  h1 = (h1 - (((((h1 >> 15) * (h1 >> 15)) >> 7) * ((long)cal_param.dig_H1)) >> 4));
     672:	13d8      	asrs	r0, r3, #15
     674:	4340      	muls	r0, r0
     676:	11c0      	asrs	r0, r0, #7
     678:	2230      	movs	r2, #48	; 0x30
     67a:	5c8a      	ldrb	r2, [r1, r2]
     67c:	4350      	muls	r0, r2
     67e:	1100      	asrs	r0, r0, #4
     680:	1a18      	subs	r0, r3, r0
  h1 = (h1 < 0 ? 0 : h1);
     682:	43c3      	mvns	r3, r0
     684:	17db      	asrs	r3, r3, #31
  h1 = (h1 > 419430400 ? 419430400 : h1);
     686:	4018      	ands	r0, r3
     688:	23c8      	movs	r3, #200	; 0xc8
     68a:	055b      	lsls	r3, r3, #21
     68c:	4298      	cmp	r0, r3
     68e:	dd00      	ble.n	692 <BME280_GetHumidity+0x8e>
     690:	0018      	movs	r0, r3
  return (unsigned long)(h1>>12);
     692:	1300      	asrs	r0, r0, #12
  return (float)BME280_Compensate_H() / 1024;
     694:	f242 4349 	movw	r3, #9289	; 0x2449
     698:	f2c0 0300 	movt	r3, #0
     69c:	4798      	blx	r3
     69e:	f242 1351 	movw	r3, #8529	; 0x2151
     6a2:	f2c0 0300 	movt	r3, #0
     6a6:	21ea      	movs	r1, #234	; 0xea
     6a8:	0589      	lsls	r1, r1, #22
     6aa:	4798      	blx	r3
}
     6ac:	bd70      	pop	{r4, r5, r6, pc}
	...

000006b0 <BME280_GetPressure>:

float BME280_GetPressure() {
     6b0:	b510      	push	{r4, lr}
  press1 = (((long)t_fine)>>1) - (long)64000;
     6b2:	f240 130c 	movw	r3, #268	; 0x10c
     6b6:	f2c2 0300 	movt	r3, #8192	; 0x2000
     6ba:	681a      	ldr	r2, [r3, #0]
     6bc:	1052      	asrs	r2, r2, #1
     6be:	4b2f      	ldr	r3, [pc, #188]	; (77c <BME280_GetPressure+0xcc>)
     6c0:	469c      	mov	ip, r3
     6c2:	4462      	add	r2, ip
  press2 = (((press1>>2) * (press1>>2)) >> 11 ) * ((long)cal_param.dig_P6);
     6c4:	1091      	asrs	r1, r2, #2
     6c6:	4349      	muls	r1, r1
  press1 = (((cal_param.dig_P3 * (((press1>>2) * (press1>>2)) >> 13 )) >> 3) + ((((long)cal_param.dig_P2) * press1)>>1))>>18;
     6c8:	f240 03b8 	movw	r3, #184	; 0xb8
     6cc:	f2c2 0300 	movt	r3, #8192	; 0x2000
     6d0:	1348      	asrs	r0, r1, #13
     6d2:	695c      	ldr	r4, [r3, #20]
     6d4:	4360      	muls	r0, r4
     6d6:	10c0      	asrs	r0, r0, #3
     6d8:	691c      	ldr	r4, [r3, #16]
     6da:	4354      	muls	r4, r2
     6dc:	1064      	asrs	r4, r4, #1
     6de:	1900      	adds	r0, r0, r4
     6e0:	1480      	asrs	r0, r0, #18
  press1 =((((32768+press1))*((long)cal_param.dig_P1))>>15);
     6e2:	f248 0c00 	movw	ip, #32768	; 0x8000
     6e6:	4460      	add	r0, ip
     6e8:	68dc      	ldr	r4, [r3, #12]
     6ea:	4344      	muls	r4, r0
     6ec:	13e4      	asrs	r4, r4, #15
    return 0; // avoid exception caused by division by zero
     6ee:	2000      	movs	r0, #0
  if (press1 == 0) {
     6f0:	b394      	cbz	r4, 758 <BME280_GetPressure+0xa8>
  press2 = (((press1>>2) * (press1>>2)) >> 11 ) * ((long)cal_param.dig_P6);
     6f2:	12c9      	asrs	r1, r1, #11
     6f4:	f240 03b8 	movw	r3, #184	; 0xb8
     6f8:	f2c2 0300 	movt	r3, #8192	; 0x2000
     6fc:	6a18      	ldr	r0, [r3, #32]
     6fe:	4341      	muls	r1, r0
  press2 = press2 + ((press1*((long)cal_param.dig_P5))<<1);
     700:	69d8      	ldr	r0, [r3, #28]
     702:	4342      	muls	r2, r0
     704:	0052      	lsls	r2, r2, #1
     706:	1851      	adds	r1, r2, r1
  press2 = (press2>>2)+(((long)cal_param.dig_P4)<<16);
     708:	1089      	asrs	r1, r1, #2
     70a:	699a      	ldr	r2, [r3, #24]
     70c:	0412      	lsls	r2, r2, #16
     70e:	1852      	adds	r2, r2, r1
  P = (((unsigned long)(((long)1048576)-adc_p)-(press2>>12)))*3125;
     710:	1312      	asrs	r2, r2, #12
     712:	f240 03a0 	movw	r3, #160	; 0xa0
     716:	f2c2 0300 	movt	r3, #8192	; 0x2000
     71a:	681b      	ldr	r3, [r3, #0]
     71c:	18d2      	adds	r2, r2, r3
     71e:	4918      	ldr	r1, [pc, #96]	; (780 <BME280_GetPressure+0xd0>)
     720:	434a      	muls	r2, r1
  if (P < 0x80000000) {
     722:	2300      	movs	r3, #0
     724:	f2cc 3350 	movt	r3, #50000	; 0xc350
     728:	18d2      	adds	r2, r2, r3
     72a:	d423      	bmi.n	774 <BME280_GetPressure+0xc4>
    P = (P << 1) / ((unsigned long)press1);
     72c:	0052      	lsls	r2, r2, #1
     72e:	fbb2 f4f4 	udiv	r4, r2, r4
  press1 = (((long)cal_param.dig_P9) * ((long)(((P>>3) * (P>>3))>>13)))>>12;
     732:	08e0      	lsrs	r0, r4, #3
     734:	4340      	muls	r0, r0
     736:	0b40      	lsrs	r0, r0, #13
     738:	f240 02b8 	movw	r2, #184	; 0xb8
     73c:	f2c2 0200 	movt	r2, #8192	; 0x2000
     740:	6ad3      	ldr	r3, [r2, #44]	; 0x2c
     742:	4358      	muls	r0, r3
     744:	1300      	asrs	r0, r0, #12
  press2 = (((long)(P>>2)) * ((long)cal_param.dig_P8))>>13;
     746:	08a1      	lsrs	r1, r4, #2
     748:	6a93      	ldr	r3, [r2, #40]	; 0x28
     74a:	4359      	muls	r1, r3
     74c:	1349      	asrs	r1, r1, #13
  P = (unsigned long)((long)P + ((press1 + press2 + cal_param.dig_P7) >> 4));
     74e:	1840      	adds	r0, r0, r1
     750:	6a52      	ldr	r2, [r2, #36]	; 0x24
     752:	1880      	adds	r0, r0, r2
     754:	1100      	asrs	r0, r0, #4
     756:	1900      	adds	r0, r0, r4
  return (float) BME280_Compensate_P() / 100;
     758:	f242 4349 	movw	r3, #9289	; 0x2449
     75c:	f2c0 0300 	movt	r3, #0
     760:	4798      	blx	r3
     762:	f641 63bd 	movw	r3, #7869	; 0x1ebd
     766:	f2c0 0300 	movt	r3, #0
     76a:	2100      	movs	r1, #0
     76c:	f2c4 21c8 	movt	r1, #17096	; 0x42c8
     770:	4798      	blx	r3
}
     772:	bd10      	pop	{r4, pc}
    P = (P / (unsigned long)press1) * 2;
     774:	fbb2 f4f4 	udiv	r4, r2, r4
     778:	0064      	lsls	r4, r4, #1
     77a:	e7da      	b.n	732 <BME280_GetPressure+0x82>
     77c:	ffff0600 	.word	0xffff0600
     780:	fffff3cb 	.word	0xfffff3cb

00000784 <Dummy_Handler>:

/**
 * \brief Default interrupt handler for unused IRQs.
 */
void Dummy_Handler(void)
{
     784:	e7fe      	b.n	784 <Dummy_Handler>
	...

00000788 <Reset_Handler>:
{
     788:	b510      	push	{r4, lr}
        if (pSrc != pDest) {
     78a:	f645 52ec 	movw	r2, #24044	; 0x5dec
     78e:	f2c0 0200 	movt	r2, #0
     792:	f240 0300 	movw	r3, #0
     796:	f2c2 0300 	movt	r3, #8192	; 0x2000
     79a:	429a      	cmp	r2, r3
     79c:	d020      	beq.n	7e0 <Reset_Handler+0x58>
                for (; pDest < &_erelocate;) {
     79e:	001a      	movs	r2, r3
     7a0:	f240 0368 	movw	r3, #104	; 0x68
     7a4:	f2c2 0300 	movt	r3, #8192	; 0x2000
     7a8:	429a      	cmp	r2, r3
     7aa:	d219      	bcs.n	7e0 <Reset_Handler+0x58>
     7ac:	f240 0368 	movw	r3, #104	; 0x68
     7b0:	f2c2 0300 	movt	r3, #8192	; 0x2000
     7b4:	3303      	adds	r3, #3
     7b6:	4a24      	ldr	r2, [pc, #144]	; (848 <Reset_Handler+0xc0>)
     7b8:	1a9b      	subs	r3, r3, r2
     7ba:	089b      	lsrs	r3, r3, #2
     7bc:	3301      	adds	r3, #1
     7be:	009b      	lsls	r3, r3, #2
     7c0:	2200      	movs	r2, #0
                        *pDest++ = *pSrc++;
     7c2:	f240 0100 	movw	r1, #0
     7c6:	f2c2 0100 	movt	r1, #8192	; 0x2000
     7ca:	1851      	adds	r1, r2, r1
     7cc:	f645 50ec 	movw	r0, #24044	; 0x5dec
     7d0:	f2c0 0000 	movt	r0, #0
     7d4:	1810      	adds	r0, r2, r0
     7d6:	6800      	ldr	r0, [r0, #0]
     7d8:	6008      	str	r0, [r1, #0]
     7da:	3204      	adds	r2, #4
                for (; pDest < &_erelocate;) {
     7dc:	429a      	cmp	r2, r3
     7de:	d1f0      	bne.n	7c2 <Reset_Handler+0x3a>
        for (pDest = &_szero; pDest < &_ezero;) {
     7e0:	f240 0268 	movw	r2, #104	; 0x68
     7e4:	f2c2 0200 	movt	r2, #8192	; 0x2000
     7e8:	f240 1354 	movw	r3, #340	; 0x154
     7ec:	f2c2 0300 	movt	r3, #8192	; 0x2000
     7f0:	429a      	cmp	r2, r3
     7f2:	d213      	bcs.n	81c <Reset_Handler+0x94>
     7f4:	f240 0268 	movw	r2, #104	; 0x68
     7f8:	f2c2 0200 	movt	r2, #8192	; 0x2000
     7fc:	43d3      	mvns	r3, r2
     7fe:	f240 1154 	movw	r1, #340	; 0x154
     802:	f2c2 0100 	movt	r1, #8192	; 0x2000
     806:	468c      	mov	ip, r1
     808:	4463      	add	r3, ip
     80a:	2103      	movs	r1, #3
     80c:	438b      	bics	r3, r1
     80e:	3304      	adds	r3, #4
     810:	4694      	mov	ip, r2
     812:	4463      	add	r3, ip
                *pDest++ = 0;
     814:	2100      	movs	r1, #0
     816:	c202      	stmia	r2!, {r1}
        for (pDest = &_szero; pDest < &_ezero;) {
     818:	4293      	cmp	r3, r2
     81a:	d1fc      	bne.n	816 <Reset_Handler+0x8e>
        SCB->VTOR = ((uint32_t) pSrc & SCB_VTOR_TBLOFF_Msk);
     81c:	f240 0300 	movw	r3, #0
     820:	f2c0 0300 	movt	r3, #0
     824:	227f      	movs	r2, #127	; 0x7f
     826:	4393      	bics	r3, r2
     828:	f64e 5200 	movw	r2, #60672	; 0xed00
     82c:	f2ce 0200 	movt	r2, #57344	; 0xe000
     830:	6093      	str	r3, [r2, #8]
        __libc_init_array();
     832:	f643 33c9 	movw	r3, #15305	; 0x3bc9
     836:	f2c0 0300 	movt	r3, #0
     83a:	4798      	blx	r3
        main();
     83c:	f641 2393 	movw	r3, #6803	; 0x1a93
     840:	f2c0 0300 	movt	r3, #0
     844:	4798      	blx	r3
     846:	e7fe      	b.n	846 <Reset_Handler+0xbe>
     848:	20000004 	.word	0x20000004

0000084c <I2C_0_PORT_init>:
struct usart_sync_descriptor USART_0;

struct wdt_descriptor WDT_0;

void I2C_0_PORT_init(void)
{
     84c:	b570      	push	{r4, r5, r6, lr}
}

static inline void hri_port_clear_PINCFG_PULLEN_bit(const void *const hw, uint8_t submodule_index, uint8_t index)
{
	PORT_CRITICAL_SECTION_ENTER();
	((Port *)hw)->Group[submodule_index].PINCFG[index].reg &= ~PORT_PINCFG_PULLEN_Msk;
     84e:	f243 2300 	movw	r3, #12800	; 0x3200
     852:	f2c4 0300 	movt	r3, #16384	; 0x4000
     856:	2050      	movs	r0, #80	; 0x50
     858:	5c19      	ldrb	r1, [r3, r0]
     85a:	2204      	movs	r2, #4
     85c:	4391      	bics	r1, r2
     85e:	5419      	strb	r1, [r3, r0]
	tmp = ((Port *)hw)->Group[submodule_index].PINCFG[index].reg;
     860:	5c19      	ldrb	r1, [r3, r0]
	tmp &= ~PORT_PINCFG_PMUXEN_Msk;
     862:	2501      	movs	r5, #1
     864:	43a9      	bics	r1, r5
	tmp |= value << PORT_PINCFG_PMUXEN_Pos;
     866:	2401      	movs	r4, #1
     868:	4321      	orrs	r1, r4
     86a:	b2c9      	uxtb	r1, r1
	((Port *)hw)->Group[submodule_index].PINCFG[index].reg = tmp;
     86c:	5419      	strb	r1, [r3, r0]
	tmp = ((Port *)hw)->Group[submodule_index].PMUX[index].reg;
     86e:	3818      	subs	r0, #24
     870:	5c19      	ldrb	r1, [r3, r0]
	tmp &= ~PORT_PMUX_PMUXE_Msk;
     872:	260f      	movs	r6, #15
     874:	43b1      	bics	r1, r6
	tmp |= PORT_PMUX_PMUXE(data);
     876:	3e0c      	subs	r6, #12
     878:	4331      	orrs	r1, r6
	((Port *)hw)->Group[submodule_index].PMUX[index].reg = tmp;
     87a:	5419      	strb	r1, [r3, r0]
	((Port *)hw)->Group[submodule_index].PINCFG[index].reg &= ~PORT_PINCFG_PULLEN_Msk;
     87c:	2151      	movs	r1, #81	; 0x51
     87e:	5c5e      	ldrb	r6, [r3, r1]
     880:	4396      	bics	r6, r2
     882:	545e      	strb	r6, [r3, r1]
	tmp = ((Port *)hw)->Group[submodule_index].PINCFG[index].reg;
     884:	5c5a      	ldrb	r2, [r3, r1]
	tmp &= ~PORT_PINCFG_PMUXEN_Msk;
     886:	43aa      	bics	r2, r5
	tmp |= value << PORT_PINCFG_PMUXEN_Pos;
     888:	4322      	orrs	r2, r4
     88a:	b2d2      	uxtb	r2, r2
	((Port *)hw)->Group[submodule_index].PINCFG[index].reg = tmp;
     88c:	545a      	strb	r2, [r3, r1]
	tmp = ((Port *)hw)->Group[submodule_index].PMUX[index].reg;
     88e:	5c1a      	ldrb	r2, [r3, r0]
	tmp &= ~PORT_PMUX_PMUXO_Msk;
     890:	3942      	subs	r1, #66	; 0x42
     892:	400a      	ands	r2, r1
	tmp |= PORT_PMUX_PMUXO(data);
     894:	3121      	adds	r1, #33	; 0x21
     896:	430a      	orrs	r2, r1
	((Port *)hw)->Group[submodule_index].PMUX[index].reg = tmp;
     898:	541a      	strb	r2, [r3, r0]
	                       // <GPIO_PULL_UP"> Pull-up
	                       // <GPIO_PULL_DOWN"> Pull-down
	                       GPIO_PULL_OFF);

	gpio_set_pin_function(PA17, PINMUX_PA17D_SERCOM0_PAD1);
}
     89a:	bd70      	pop	{r4, r5, r6, pc}

0000089c <I2C_0_CLOCK_init>:
     89c:	f641 4300 	movw	r3, #7168	; 0x1c00
     8a0:	f2c4 0300 	movt	r3, #16384	; 0x4000
     8a4:	2140      	movs	r1, #64	; 0x40
     8a6:	22ac      	movs	r2, #172	; 0xac
     8a8:	5099      	str	r1, [r3, r2]
     8aa:	3103      	adds	r1, #3
     8ac:	3a04      	subs	r2, #4
     8ae:	5099      	str	r1, [r3, r2]
}

static inline void hri_mclk_set_APBCMASK_SERCOM0_bit(const void *const hw)
{
	MCLK_CRITICAL_SECTION_ENTER();
	((Mclk *)hw)->APBCMASK.reg |= MCLK_APBCMASK_SERCOM0;
     8b0:	f640 0300 	movw	r3, #2048	; 0x800
     8b4:	f2c4 0300 	movt	r3, #16384	; 0x4000
     8b8:	69da      	ldr	r2, [r3, #28]
     8ba:	3941      	subs	r1, #65	; 0x41
     8bc:	430a      	orrs	r2, r1
     8be:	61da      	str	r2, [r3, #28]
	hri_mclk_set_APBCMASK_SERCOM0_bit(MCLK);
#else
	nsc_periph_clock_init(SERCOM0_GCLK_ID_CORE, CONF_GCLK_SERCOM0_CORE_SRC);
	nsc_periph_clock_init(SERCOM0_GCLK_ID_SLOW, CONF_GCLK_SERCOM0_SLOW_SRC);
#endif
}
     8c0:	4770      	bx	lr

000008c2 <I2C_0_init>:

void I2C_0_init(void)
{
     8c2:	b510      	push	{r4, lr}
	I2C_0_CLOCK_init();
     8c4:	f640 039d 	movw	r3, #2205	; 0x89d
     8c8:	f2c0 0300 	movt	r3, #0
     8cc:	4798      	blx	r3
	i2c_m_sync_init(&I2C_0, SERCOM0);
     8ce:	f240 4100 	movw	r1, #1024	; 0x400
     8d2:	f2c4 2100 	movt	r1, #16896	; 0x4200
     8d6:	f240 1020 	movw	r0, #288	; 0x120
     8da:	f2c2 0000 	movt	r0, #8192	; 0x2000
     8de:	f640 23d1 	movw	r3, #2769	; 0xad1
     8e2:	f2c0 0300 	movt	r3, #0
     8e6:	4798      	blx	r3
	I2C_0_PORT_init();
     8e8:	f640 034d 	movw	r3, #2125	; 0x84d
     8ec:	f2c0 0300 	movt	r3, #0
     8f0:	4798      	blx	r3
}
     8f2:	bd10      	pop	{r4, pc}

000008f4 <USART_0_PORT_init>:

void USART_0_PORT_init(void)
{
     8f4:	b530      	push	{r4, r5, lr}
	tmp = ((Port *)hw)->Group[submodule_index].PINCFG[index].reg;
     8f6:	f243 2300 	movw	r3, #12800	; 0x3200
     8fa:	f2c4 0300 	movt	r3, #16384	; 0x4000
     8fe:	2248      	movs	r2, #72	; 0x48
     900:	5c99      	ldrb	r1, [r3, r2]
	tmp &= ~PORT_PINCFG_PMUXEN_Msk;
     902:	2501      	movs	r5, #1
     904:	43a9      	bics	r1, r5
	tmp |= value << PORT_PINCFG_PMUXEN_Pos;
     906:	2401      	movs	r4, #1
     908:	4321      	orrs	r1, r4
     90a:	b2c9      	uxtb	r1, r1
	((Port *)hw)->Group[submodule_index].PINCFG[index].reg = tmp;
     90c:	5499      	strb	r1, [r3, r2]
	tmp = ((Port *)hw)->Group[submodule_index].PMUX[index].reg;
     90e:	2034      	movs	r0, #52	; 0x34
     910:	5c19      	ldrb	r1, [r3, r0]
	tmp &= ~PORT_PMUX_PMUXE_Msk;
     912:	3a39      	subs	r2, #57	; 0x39
     914:	4391      	bics	r1, r2
	tmp |= PORT_PMUX_PMUXE(data);
     916:	3a0c      	subs	r2, #12
     918:	4311      	orrs	r1, r2
	((Port *)hw)->Group[submodule_index].PMUX[index].reg = tmp;
     91a:	5419      	strb	r1, [r3, r0]
	tmp = ((Port *)hw)->Group[submodule_index].PINCFG[index].reg;
     91c:	2149      	movs	r1, #73	; 0x49
     91e:	5c5a      	ldrb	r2, [r3, r1]
	tmp &= ~PORT_PINCFG_PMUXEN_Msk;
     920:	43aa      	bics	r2, r5
	tmp |= value << PORT_PINCFG_PMUXEN_Pos;
     922:	4322      	orrs	r2, r4
     924:	b2d2      	uxtb	r2, r2
	((Port *)hw)->Group[submodule_index].PINCFG[index].reg = tmp;
     926:	545a      	strb	r2, [r3, r1]
	tmp = ((Port *)hw)->Group[submodule_index].PMUX[index].reg;
     928:	5c1a      	ldrb	r2, [r3, r0]
	tmp &= ~PORT_PMUX_PMUXO_Msk;
     92a:	393a      	subs	r1, #58	; 0x3a
     92c:	400a      	ands	r2, r1
	tmp |= PORT_PMUX_PMUXO(data);
     92e:	3121      	adds	r1, #33	; 0x21
     930:	430a      	orrs	r2, r1
	((Port *)hw)->Group[submodule_index].PMUX[index].reg = tmp;
     932:	541a      	strb	r2, [r3, r0]

	gpio_set_pin_function(PA08, PINMUX_PA08D_SERCOM2_PAD0);

	gpio_set_pin_function(PA09, PINMUX_PA09D_SERCOM2_PAD1);
}
     934:	bd30      	pop	{r4, r5, pc}

00000936 <USART_0_CLOCK_init>:
     936:	f641 4300 	movw	r3, #7168	; 0x1c00
     93a:	f2c4 0300 	movt	r3, #16384	; 0x4000
     93e:	2140      	movs	r1, #64	; 0x40
     940:	22b4      	movs	r2, #180	; 0xb4
     942:	5099      	str	r1, [r3, r2]
     944:	3103      	adds	r1, #3
     946:	3a0c      	subs	r2, #12
     948:	5099      	str	r1, [r3, r2]
}

static inline void hri_mclk_set_APBCMASK_SERCOM2_bit(const void *const hw)
{
	MCLK_CRITICAL_SECTION_ENTER();
	((Mclk *)hw)->APBCMASK.reg |= MCLK_APBCMASK_SERCOM2;
     94a:	f640 0300 	movw	r3, #2048	; 0x800
     94e:	f2c4 0300 	movt	r3, #16384	; 0x4000
     952:	69da      	ldr	r2, [r3, #28]
     954:	393b      	subs	r1, #59	; 0x3b
     956:	430a      	orrs	r2, r1
     958:	61da      	str	r2, [r3, #28]
	hri_mclk_set_APBCMASK_SERCOM2_bit(MCLK);
#else
	nsc_periph_clock_init(SERCOM2_GCLK_ID_CORE, CONF_GCLK_SERCOM2_CORE_SRC);
	nsc_periph_clock_init(SERCOM2_GCLK_ID_SLOW, CONF_GCLK_SERCOM2_SLOW_SRC);
#endif
}
     95a:	4770      	bx	lr

0000095c <USART_0_init>:

void USART_0_init(void)
{
     95c:	b510      	push	{r4, lr}
	USART_0_CLOCK_init();
     95e:	f640 1337 	movw	r3, #2359	; 0x937
     962:	f2c0 0300 	movt	r3, #0
     966:	4798      	blx	r3
	usart_sync_init(&USART_0, SERCOM2, (void *)NULL);
     968:	f640 4100 	movw	r1, #3072	; 0xc00
     96c:	f2c4 2100 	movt	r1, #16896	; 0x4200
     970:	f240 1014 	movw	r0, #276	; 0x114
     974:	f2c2 0000 	movt	r0, #8192	; 0x2000
     978:	2200      	movs	r2, #0
     97a:	f640 439f 	movw	r3, #3231	; 0xc9f
     97e:	f2c0 0300 	movt	r3, #0
     982:	4798      	blx	r3
	USART_0_PORT_init();
     984:	f640 03f5 	movw	r3, #2293	; 0x8f5
     988:	f2c0 0300 	movt	r3, #0
     98c:	4798      	blx	r3
}
     98e:	bd10      	pop	{r4, pc}

00000990 <delay_driver_init>:

void delay_driver_init(void)
{
     990:	b510      	push	{r4, lr}
	delay_init(SysTick);
     992:	f24e 0010 	movw	r0, #57360	; 0xe010
     996:	f2ce 0000 	movt	r0, #57344	; 0xe000
     99a:	f640 2331 	movw	r3, #2609	; 0xa31
     99e:	f2c0 0300 	movt	r3, #0
     9a2:	4798      	blx	r3
}
     9a4:	bd10      	pop	{r4, pc}

000009a6 <WDT_0_CLOCK_init>:
	((Mclk *)hw)->APBAMASK.reg |= MCLK_APBAMASK_WDT;
     9a6:	f640 0300 	movw	r3, #2048	; 0x800
     9aa:	f2c4 0300 	movt	r3, #16384	; 0x4000
     9ae:	695a      	ldr	r2, [r3, #20]
     9b0:	f240 1100 	movw	r1, #256	; 0x100
     9b4:	430a      	orrs	r2, r1
     9b6:	615a      	str	r2, [r3, #20]
void WDT_0_CLOCK_init(void)
{
#if (defined(__ARM_FEATURE_CMSE) && (__ARM_FEATURE_CMSE == 3U))
	hri_mclk_set_APBAMASK_WDT_bit(MCLK);
#endif
}
     9b8:	4770      	bx	lr

000009ba <WDT_0_init>:

void WDT_0_init(void)
{
     9ba:	b510      	push	{r4, lr}
	WDT_0_CLOCK_init();
     9bc:	f640 13a7 	movw	r3, #2471	; 0x9a7
     9c0:	f2c0 0300 	movt	r3, #0
     9c4:	4798      	blx	r3
 * \retval 0 Completed sucessfully.
 * \retval -1 Always on or enabled, don't need init again.
 */
static inline int32_t wdt_init(struct wdt_descriptor *const wdt, const void *hw)
{
	ASSERT(wdt && hw);
     9c6:	f645 11c4 	movw	r1, #22980	; 0x59c4
     9ca:	f2c0 0100 	movt	r1, #0
     9ce:	2248      	movs	r2, #72	; 0x48
     9d0:	2001      	movs	r0, #1
     9d2:	f640 534d 	movw	r3, #3405	; 0xd4d
     9d6:	f2c0 0300 	movt	r3, #0
     9da:	4798      	blx	r3

	wdt->dev.hw = (void *)hw;
     9dc:	f240 1010 	movw	r0, #272	; 0x110
     9e0:	f2c2 0000 	movt	r0, #8192	; 0x2000
     9e4:	f242 0300 	movw	r3, #8192	; 0x2000
     9e8:	f2c4 0300 	movt	r3, #16384	; 0x4000
     9ec:	6003      	str	r3, [r0, #0]

	return _wdt_init(&wdt->dev);
     9ee:	f241 7395 	movw	r3, #6037	; 0x1795
     9f2:	f2c0 0300 	movt	r3, #0
     9f6:	4798      	blx	r3
	wdt_init(&WDT_0, WDT);
}
     9f8:	bd10      	pop	{r4, pc}

000009fa <system_init>:

void system_init(void)
{
     9fa:	b510      	push	{r4, lr}
 * Currently the following initialization functions are supported:
 *  - System clock initialization
 */
static inline void init_mcu(void)
{
	_init_chip();
     9fc:	f640 538d 	movw	r3, #3469	; 0xd8d
     a00:	f2c0 0300 	movt	r3, #0
     a04:	4798      	blx	r3
#if (defined(__ARM_FEATURE_CMSE) && (__ARM_FEATURE_CMSE == 3U))
	/* Only initialize MCU clock when the project is TrustZone secure project  */
	init_mcu();
#endif

	I2C_0_init();
     a06:	f640 03c3 	movw	r3, #2243	; 0x8c3
     a0a:	f2c0 0300 	movt	r3, #0
     a0e:	4798      	blx	r3

	USART_0_init();
     a10:	f640 135d 	movw	r3, #2397	; 0x95d
     a14:	f2c0 0300 	movt	r3, #0
     a18:	4798      	blx	r3

	delay_driver_init();
     a1a:	f640 1391 	movw	r3, #2449	; 0x991
     a1e:	f2c0 0300 	movt	r3, #0
     a22:	4798      	blx	r3

	WDT_0_init();
     a24:	f640 13bb 	movw	r3, #2491	; 0x9bb
     a28:	f2c0 0300 	movt	r3, #0
     a2c:	4798      	blx	r3
}
     a2e:	bd10      	pop	{r4, pc}

00000a30 <delay_init>:

/**
 * \brief Initialize Delay driver
 */
void delay_init(void *const hw)
{
     a30:	b510      	push	{r4, lr}
	_delay_init(hardware = hw);
     a32:	f240 0384 	movw	r3, #132	; 0x84
     a36:	f2c2 0300 	movt	r3, #8192	; 0x2000
     a3a:	6018      	str	r0, [r3, #0]
     a3c:	f241 731d 	movw	r3, #5917	; 0x171d
     a40:	f2c0 0300 	movt	r3, #0
     a44:	4798      	blx	r3
}
     a46:	bd10      	pop	{r4, pc}

00000a48 <delay_ms>:

/**
 * \brief Perform delay in ms
 */
void delay_ms(const uint16_t ms)
{
     a48:	b510      	push	{r4, lr}
	_delay_cycles(hardware, _get_cycles_for_ms(ms));
     a4a:	f240 0384 	movw	r3, #132	; 0x84
     a4e:	f2c2 0300 	movt	r3, #8192	; 0x2000
     a52:	681c      	ldr	r4, [r3, #0]
     a54:	f640 5385 	movw	r3, #3461	; 0xd85
     a58:	f2c0 0300 	movt	r3, #0
     a5c:	4798      	blx	r3
     a5e:	0001      	movs	r1, r0
     a60:	0020      	movs	r0, r4
     a62:	f241 7335 	movw	r3, #5941	; 0x1735
     a66:	f2c0 0300 	movt	r3, #0
     a6a:	4798      	blx	r3
}
     a6c:	bd10      	pop	{r4, pc}
	...

00000a70 <i2c_m_sync_write>:

/**
 * \brief Sync version of I2C I/O write
 */
static int32_t i2c_m_sync_write(struct io_descriptor *io, const uint8_t *buf, const uint16_t n)
{
     a70:	b510      	push	{r4, lr}
     a72:	b084      	sub	sp, #16
     a74:	0014      	movs	r4, r2
	struct i2c_m_sync_desc *i2c = CONTAINER_OF(io, struct i2c_m_sync_desc, io);
	struct _i2c_m_msg       msg;
	int32_t                 ret;

	msg.addr   = i2c->slave_addr;
     a76:	ab01      	add	r3, sp, #4
     a78:	3814      	subs	r0, #20
     a7a:	8b82      	ldrh	r2, [r0, #28]
     a7c:	801a      	strh	r2, [r3, #0]
	msg.len    = n;
     a7e:	9402      	str	r4, [sp, #8]
	msg.flags  = I2C_M_STOP;
     a80:	4a06      	ldr	r2, [pc, #24]	; (a9c <i2c_m_sync_write+0x2c>)
     a82:	805a      	strh	r2, [r3, #2]
	msg.buffer = (uint8_t *)buf;
     a84:	9103      	str	r1, [sp, #12]

	ret = _i2c_m_sync_transfer(&i2c->device, &msg);
     a86:	0019      	movs	r1, r3
     a88:	f241 13e9 	movw	r3, #4585	; 0x11e9
     a8c:	f2c0 0300 	movt	r3, #0
     a90:	4798      	blx	r3

	if (ret) {
     a92:	b900      	cbnz	r0, a96 <i2c_m_sync_write+0x26>
		return ret;
	}

	return n;
     a94:	0020      	movs	r0, r4
}
     a96:	b004      	add	sp, #16
     a98:	bd10      	pop	{r4, pc}
     a9a:	46c0      	nop			; (mov r8, r8)
     a9c:	ffff8000 	.word	0xffff8000

00000aa0 <i2c_m_sync_read>:
{
     aa0:	b510      	push	{r4, lr}
     aa2:	b084      	sub	sp, #16
     aa4:	0014      	movs	r4, r2
	msg.addr   = i2c->slave_addr;
     aa6:	ab01      	add	r3, sp, #4
     aa8:	3814      	subs	r0, #20
     aaa:	8b82      	ldrh	r2, [r0, #28]
     aac:	801a      	strh	r2, [r3, #0]
	msg.len    = n;
     aae:	9402      	str	r4, [sp, #8]
	msg.flags  = I2C_M_STOP | I2C_M_RD;
     ab0:	4a06      	ldr	r2, [pc, #24]	; (acc <i2c_m_sync_read+0x2c>)
     ab2:	805a      	strh	r2, [r3, #2]
	msg.buffer = buf;
     ab4:	9103      	str	r1, [sp, #12]
	ret = _i2c_m_sync_transfer(&i2c->device, &msg);
     ab6:	0019      	movs	r1, r3
     ab8:	f241 13e9 	movw	r3, #4585	; 0x11e9
     abc:	f2c0 0300 	movt	r3, #0
     ac0:	4798      	blx	r3
	if (ret) {
     ac2:	b900      	cbnz	r0, ac6 <i2c_m_sync_read+0x26>
	return n;
     ac4:	0020      	movs	r0, r4
}
     ac6:	b004      	add	sp, #16
     ac8:	bd10      	pop	{r4, pc}
     aca:	46c0      	nop			; (mov r8, r8)
     acc:	ffff8001 	.word	0xffff8001

00000ad0 <i2c_m_sync_init>:

/**
 * \brief Sync version of i2c initialize
 */
int32_t i2c_m_sync_init(struct i2c_m_sync_desc *i2c, void *hw)
{
     ad0:	b570      	push	{r4, r5, r6, lr}
     ad2:	0004      	movs	r4, r0
     ad4:	000d      	movs	r5, r1
	int32_t init_status;
	ASSERT(i2c);
     ad6:	f645 11e0 	movw	r1, #23008	; 0x59e0
     ada:	f2c0 0100 	movt	r1, #0
     ade:	1e43      	subs	r3, r0, #1
     ae0:	4198      	sbcs	r0, r3
     ae2:	b2c0      	uxtb	r0, r0
     ae4:	225e      	movs	r2, #94	; 0x5e
     ae6:	f640 534d 	movw	r3, #3405	; 0xd4d
     aea:	f2c0 0300 	movt	r3, #0
     aee:	4798      	blx	r3

	init_status = _i2c_m_sync_init(&i2c->device, hw);
     af0:	0029      	movs	r1, r5
     af2:	0020      	movs	r0, r4
     af4:	f241 1343 	movw	r3, #4419	; 0x1143
     af8:	f2c0 0300 	movt	r3, #0
     afc:	4798      	blx	r3
	if (init_status) {
     afe:	b948      	cbnz	r0, b14 <i2c_m_sync_init+0x44>
		return init_status;
	}

	/* Init I/O */
	i2c->io.read  = i2c_m_sync_read;
     b00:	f640 23a1 	movw	r3, #2721	; 0xaa1
     b04:	f2c0 0300 	movt	r3, #0
     b08:	61a3      	str	r3, [r4, #24]
	i2c->io.write = i2c_m_sync_write;
     b0a:	f640 2371 	movw	r3, #2673	; 0xa71
     b0e:	f2c0 0300 	movt	r3, #0
     b12:	6163      	str	r3, [r4, #20]

	return ERR_NONE;
}
     b14:	bd70      	pop	{r4, r5, r6, pc}

00000b16 <i2c_m_sync_enable>:

/**
 * \brief Sync version of i2c enable
 */
int32_t i2c_m_sync_enable(struct i2c_m_sync_desc *i2c)
{
     b16:	b510      	push	{r4, lr}
	return _i2c_m_sync_enable(&i2c->device);
     b18:	f241 1377 	movw	r3, #4471	; 0x1177
     b1c:	f2c0 0300 	movt	r3, #0
     b20:	4798      	blx	r3
}
     b22:	bd10      	pop	{r4, pc}

00000b24 <i2c_m_sync_set_slaveaddr>:
/**
 * \brief Sync version of i2c set slave address
 */
int32_t i2c_m_sync_set_slaveaddr(struct i2c_m_sync_desc *i2c, int16_t addr, int32_t addr_len)
{
	return i2c->slave_addr = (addr & 0x3ff) | (addr_len & I2C_M_TEN);
     b24:	f240 33ff 	movw	r3, #1023	; 0x3ff
     b28:	4019      	ands	r1, r3
     b2a:	3301      	adds	r3, #1
     b2c:	401a      	ands	r2, r3
     b2e:	430a      	orrs	r2, r1
     b30:	8382      	strh	r2, [r0, #28]
}
     b32:	0010      	movs	r0, r2
     b34:	4770      	bx	lr

00000b36 <i2c_m_sync_get_io_descriptor>:
/**
 * \brief Retrieve I/O descriptor
 */
int32_t i2c_m_sync_get_io_descriptor(struct i2c_m_sync_desc *const i2c, struct io_descriptor **io)
{
	*io = &i2c->io;
     b36:	3014      	adds	r0, #20
     b38:	6008      	str	r0, [r1, #0]
	return ERR_NONE;
}
     b3a:	2000      	movs	r0, #0
     b3c:	4770      	bx	lr

00000b3e <io_write>:

/**
 * \brief I/O write interface
 */
int32_t io_write(struct io_descriptor *const io_descr, const uint8_t *const buf, const uint16_t length)
{
     b3e:	b570      	push	{r4, r5, r6, lr}
     b40:	0006      	movs	r6, r0
     b42:	000c      	movs	r4, r1
     b44:	0015      	movs	r5, r2
	ASSERT(io_descr && buf);
     b46:	b198      	cbz	r0, b70 <io_write+0x32>
     b48:	0008      	movs	r0, r1
     b4a:	1e43      	subs	r3, r0, #1
     b4c:	4198      	sbcs	r0, r3
     b4e:	b2c0      	uxtb	r0, r0
     b50:	f645 11fc 	movw	r1, #23036	; 0x59fc
     b54:	f2c0 0100 	movt	r1, #0
     b58:	2234      	movs	r2, #52	; 0x34
     b5a:	f640 534d 	movw	r3, #3405	; 0xd4d
     b5e:	f2c0 0300 	movt	r3, #0
     b62:	4798      	blx	r3
	return io_descr->write(io_descr, buf, length);
     b64:	6833      	ldr	r3, [r6, #0]
     b66:	002a      	movs	r2, r5
     b68:	0021      	movs	r1, r4
     b6a:	0030      	movs	r0, r6
     b6c:	4798      	blx	r3
}
     b6e:	bd70      	pop	{r4, r5, r6, pc}
     b70:	2000      	movs	r0, #0
     b72:	e7ed      	b.n	b50 <io_write+0x12>

00000b74 <io_read>:

/**
 * \brief I/O read interface
 */
int32_t io_read(struct io_descriptor *const io_descr, uint8_t *const buf, const uint16_t length)
{
     b74:	b570      	push	{r4, r5, r6, lr}
     b76:	0006      	movs	r6, r0
     b78:	000c      	movs	r4, r1
     b7a:	0015      	movs	r5, r2
	ASSERT(io_descr && buf);
     b7c:	b198      	cbz	r0, ba6 <io_read+0x32>
     b7e:	0008      	movs	r0, r1
     b80:	1e43      	subs	r3, r0, #1
     b82:	4198      	sbcs	r0, r3
     b84:	b2c0      	uxtb	r0, r0
     b86:	f645 11fc 	movw	r1, #23036	; 0x59fc
     b8a:	f2c0 0100 	movt	r1, #0
     b8e:	223d      	movs	r2, #61	; 0x3d
     b90:	f640 534d 	movw	r3, #3405	; 0xd4d
     b94:	f2c0 0300 	movt	r3, #0
     b98:	4798      	blx	r3
	return io_descr->read(io_descr, buf, length);
     b9a:	6873      	ldr	r3, [r6, #4]
     b9c:	002a      	movs	r2, r5
     b9e:	0021      	movs	r1, r4
     ba0:	0030      	movs	r0, r6
     ba2:	4798      	blx	r3
}
     ba4:	bd70      	pop	{r4, r5, r6, pc}
     ba6:	2000      	movs	r0, #0
     ba8:	e7ed      	b.n	b86 <io_read+0x12>

00000baa <usart_sync_write>:
 * \param[in] length The number of bytes to write
 *
 * \return The number of bytes written.
 */
static int32_t usart_sync_write(struct io_descriptor *const io_descr, const uint8_t *const buf, const uint16_t length)
{
     baa:	b5f8      	push	{r3, r4, r5, r6, r7, lr}
     bac:	46ce      	mov	lr, r9
     bae:	4647      	mov	r7, r8
     bb0:	b580      	push	{r7, lr}
     bb2:	0004      	movs	r4, r0
     bb4:	000f      	movs	r7, r1
     bb6:	4690      	mov	r8, r2
	uint32_t                      offset = 0;
	struct usart_sync_descriptor *descr  = CONTAINER_OF(io_descr, struct usart_sync_descriptor, io);

	ASSERT(io_descr && buf && length);
     bb8:	2800      	cmp	r0, #0
     bba:	d037      	beq.n	c2c <usart_sync_write+0x82>
     bbc:	2900      	cmp	r1, #0
     bbe:	d037      	beq.n	c30 <usart_sync_write+0x86>
     bc0:	0010      	movs	r0, r2
     bc2:	1e43      	subs	r3, r0, #1
     bc4:	4198      	sbcs	r0, r3
     bc6:	f645 2110 	movw	r1, #23056	; 0x5a10
     bca:	f2c0 0100 	movt	r1, #0
     bce:	22f1      	movs	r2, #241	; 0xf1
     bd0:	f640 534d 	movw	r3, #3405	; 0xd4d
     bd4:	f2c0 0300 	movt	r3, #0
     bd8:	4798      	blx	r3
	while (!_usart_sync_is_ready_to_send(&descr->device))
     bda:	3408      	adds	r4, #8
     bdc:	f241 1525 	movw	r5, #4389	; 0x1125
     be0:	f2c0 0500 	movt	r5, #0
     be4:	0020      	movs	r0, r4
     be6:	47a8      	blx	r5
     be8:	2800      	cmp	r0, #0
     bea:	d0fb      	beq.n	be4 <usart_sync_write+0x3a>
     bec:	2600      	movs	r6, #0
		;
	do {
		_usart_sync_write_byte(&descr->device, buf[offset]);
     bee:	f241 1915 	movw	r9, #4373	; 0x1115
     bf2:	f2c0 0900 	movt	r9, #0
		while (!_usart_sync_is_ready_to_send(&descr->device))
     bf6:	f241 1525 	movw	r5, #4389	; 0x1125
     bfa:	f2c0 0500 	movt	r5, #0
		_usart_sync_write_byte(&descr->device, buf[offset]);
     bfe:	5db9      	ldrb	r1, [r7, r6]
     c00:	0020      	movs	r0, r4
     c02:	47c8      	blx	r9
		while (!_usart_sync_is_ready_to_send(&descr->device))
     c04:	0020      	movs	r0, r4
     c06:	47a8      	blx	r5
     c08:	2800      	cmp	r0, #0
     c0a:	d0fb      	beq.n	c04 <usart_sync_write+0x5a>
			;
	} while (++offset < length);
     c0c:	3601      	adds	r6, #1
     c0e:	4546      	cmp	r6, r8
     c10:	d3f5      	bcc.n	bfe <usart_sync_write+0x54>
	while (!_usart_sync_is_transmit_done(&descr->device))
     c12:	f241 152f 	movw	r5, #4399	; 0x112f
     c16:	f2c0 0500 	movt	r5, #0
     c1a:	0020      	movs	r0, r4
     c1c:	47a8      	blx	r5
     c1e:	2800      	cmp	r0, #0
     c20:	d0fb      	beq.n	c1a <usart_sync_write+0x70>
		;
	return (int32_t)offset;
}
     c22:	0030      	movs	r0, r6
     c24:	bc0c      	pop	{r2, r3}
     c26:	4690      	mov	r8, r2
     c28:	4699      	mov	r9, r3
     c2a:	bdf8      	pop	{r3, r4, r5, r6, r7, pc}
	ASSERT(io_descr && buf && length);
     c2c:	2000      	movs	r0, #0
     c2e:	e7ca      	b.n	bc6 <usart_sync_write+0x1c>
     c30:	2000      	movs	r0, #0
     c32:	e7c8      	b.n	bc6 <usart_sync_write+0x1c>

00000c34 <usart_sync_read>:
 * \param[in] length The size of a buffer
 *
 * \return The number of bytes read.
 */
static int32_t usart_sync_read(struct io_descriptor *const io_descr, uint8_t *const buf, const uint16_t length)
{
     c34:	b5f8      	push	{r3, r4, r5, r6, r7, lr}
     c36:	46ce      	mov	lr, r9
     c38:	4647      	mov	r7, r8
     c3a:	b580      	push	{r7, lr}
     c3c:	0004      	movs	r4, r0
     c3e:	4688      	mov	r8, r1
     c40:	4691      	mov	r9, r2
	uint32_t                      offset = 0;
	struct usart_sync_descriptor *descr  = CONTAINER_OF(io_descr, struct usart_sync_descriptor, io);

	ASSERT(io_descr && buf && length);
     c42:	b340      	cbz	r0, c96 <usart_sync_read+0x62>
     c44:	b349      	cbz	r1, c9a <usart_sync_read+0x66>
     c46:	0010      	movs	r0, r2
     c48:	1e43      	subs	r3, r0, #1
     c4a:	4198      	sbcs	r0, r3
     c4c:	f645 2110 	movw	r1, #23056	; 0x5a10
     c50:	f2c0 0100 	movt	r1, #0
     c54:	f240 120c 	movw	r2, #268	; 0x10c
     c58:	f640 534d 	movw	r3, #3405	; 0xd4d
     c5c:	f2c0 0300 	movt	r3, #0
     c60:	4798      	blx	r3
	uint32_t                      offset = 0;
     c62:	2600      	movs	r6, #0
	do {
		while (!_usart_sync_is_byte_received(&descr->device))
     c64:	3408      	adds	r4, #8
     c66:	f241 1539 	movw	r5, #4409	; 0x1139
     c6a:	f2c0 0500 	movt	r5, #0
			;
		buf[offset] = _usart_sync_read_byte(&descr->device);
     c6e:	f241 171d 	movw	r7, #4381	; 0x111d
     c72:	f2c0 0700 	movt	r7, #0
		while (!_usart_sync_is_byte_received(&descr->device))
     c76:	0020      	movs	r0, r4
     c78:	47a8      	blx	r5
     c7a:	2800      	cmp	r0, #0
     c7c:	d0fb      	beq.n	c76 <usart_sync_read+0x42>
		buf[offset] = _usart_sync_read_byte(&descr->device);
     c7e:	0020      	movs	r0, r4
     c80:	47b8      	blx	r7
     c82:	4643      	mov	r3, r8
     c84:	5598      	strb	r0, [r3, r6]
	} while (++offset < length);
     c86:	3601      	adds	r6, #1
     c88:	454e      	cmp	r6, r9
     c8a:	d3f4      	bcc.n	c76 <usart_sync_read+0x42>

	return (int32_t)offset;
}
     c8c:	0030      	movs	r0, r6
     c8e:	bc0c      	pop	{r2, r3}
     c90:	4690      	mov	r8, r2
     c92:	4699      	mov	r9, r3
     c94:	bdf8      	pop	{r3, r4, r5, r6, r7, pc}
	ASSERT(io_descr && buf && length);
     c96:	2000      	movs	r0, #0
     c98:	e7d8      	b.n	c4c <usart_sync_read+0x18>
     c9a:	2000      	movs	r0, #0
     c9c:	e7d6      	b.n	c4c <usart_sync_read+0x18>

00000c9e <usart_sync_init>:
{
     c9e:	b570      	push	{r4, r5, r6, lr}
     ca0:	0005      	movs	r5, r0
     ca2:	000c      	movs	r4, r1
	ASSERT(descr && hw);
     ca4:	b308      	cbz	r0, cea <usart_sync_init+0x4c>
     ca6:	0008      	movs	r0, r1
     ca8:	1e43      	subs	r3, r0, #1
     caa:	4198      	sbcs	r0, r3
     cac:	b2c0      	uxtb	r0, r0
     cae:	f645 2110 	movw	r1, #23056	; 0x5a10
     cb2:	f2c0 0100 	movt	r1, #0
     cb6:	2234      	movs	r2, #52	; 0x34
     cb8:	f640 534d 	movw	r3, #3405	; 0xd4d
     cbc:	f2c0 0300 	movt	r3, #0
     cc0:	4798      	blx	r3
	init_status = _usart_sync_init(&descr->device, hw);
     cc2:	0028      	movs	r0, r5
     cc4:	3008      	adds	r0, #8
     cc6:	0021      	movs	r1, r4
     cc8:	f241 03d1 	movw	r3, #4305	; 0x10d1
     ccc:	f2c0 0300 	movt	r3, #0
     cd0:	4798      	blx	r3
	if (init_status) {
     cd2:	b948      	cbnz	r0, ce8 <usart_sync_init+0x4a>
	descr->io.read  = usart_sync_read;
     cd4:	f640 4335 	movw	r3, #3125	; 0xc35
     cd8:	f2c0 0300 	movt	r3, #0
     cdc:	606b      	str	r3, [r5, #4]
	descr->io.write = usart_sync_write;
     cde:	f640 33ab 	movw	r3, #2987	; 0xbab
     ce2:	f2c0 0300 	movt	r3, #0
     ce6:	602b      	str	r3, [r5, #0]
}
     ce8:	bd70      	pop	{r4, r5, r6, pc}
     cea:	2000      	movs	r0, #0
     cec:	e7df      	b.n	cae <usart_sync_init+0x10>

00000cee <usart_sync_enable>:
{
     cee:	b510      	push	{r4, lr}
     cf0:	0004      	movs	r4, r0
	ASSERT(descr);
     cf2:	f645 2110 	movw	r1, #23056	; 0x5a10
     cf6:	f2c0 0100 	movt	r1, #0
     cfa:	1e43      	subs	r3, r0, #1
     cfc:	4198      	sbcs	r0, r3
     cfe:	b2c0      	uxtb	r0, r0
     d00:	2253      	movs	r2, #83	; 0x53
     d02:	f640 534d 	movw	r3, #3405	; 0xd4d
     d06:	f2c0 0300 	movt	r3, #0
     d0a:	4798      	blx	r3
	_usart_sync_enable(&descr->device);
     d0c:	0020      	movs	r0, r4
     d0e:	3008      	adds	r0, #8
     d10:	f241 1301 	movw	r3, #4353	; 0x1101
     d14:	f2c0 0300 	movt	r3, #0
     d18:	4798      	blx	r3
}
     d1a:	2000      	movs	r0, #0
     d1c:	bd10      	pop	{r4, pc}

00000d1e <usart_sync_get_io_descriptor>:
{
     d1e:	b570      	push	{r4, r5, r6, lr}
     d20:	0004      	movs	r4, r0
     d22:	000d      	movs	r5, r1
	ASSERT(descr && io);
     d24:	b180      	cbz	r0, d48 <usart_sync_get_io_descriptor+0x2a>
     d26:	0008      	movs	r0, r1
     d28:	1e43      	subs	r3, r0, #1
     d2a:	4198      	sbcs	r0, r3
     d2c:	b2c0      	uxtb	r0, r0
     d2e:	f645 2110 	movw	r1, #23056	; 0x5a10
     d32:	f2c0 0100 	movt	r1, #0
     d36:	2269      	movs	r2, #105	; 0x69
     d38:	f640 534d 	movw	r3, #3405	; 0xd4d
     d3c:	f2c0 0300 	movt	r3, #0
     d40:	4798      	blx	r3
	*io = &descr->io;
     d42:	602c      	str	r4, [r5, #0]
}
     d44:	2000      	movs	r0, #0
     d46:	bd70      	pop	{r4, r5, r6, pc}
     d48:	2000      	movs	r0, #0
     d4a:	e7f0      	b.n	d2e <usart_sync_get_io_descriptor+0x10>

00000d4c <assert>:
/**
 * \brief Assert function
 */
void assert(const bool condition, const char *const file, const int line)
{
	if (!(condition)) {
     d4c:	b900      	cbnz	r0, d50 <assert+0x4>
		__asm("BKPT #0");
     d4e:	be00      	bkpt	0x0000
	}
	(void)file;
	(void)line;
}
     d50:	4770      	bx	lr

00000d52 <_sbrk>:

/**
 * \brief Replacement of C library of _sbrk
 */
extern caddr_t _sbrk(int incr)
{
     d52:	0002      	movs	r2, r0
	static unsigned char *heap = NULL;
	unsigned char *       prev_heap;

	if (heap == NULL) {
     d54:	f240 0388 	movw	r3, #136	; 0x88
     d58:	f2c2 0300 	movt	r3, #8192	; 0x2000
     d5c:	681b      	ldr	r3, [r3, #0]
     d5e:	b13b      	cbz	r3, d70 <_sbrk+0x1e>
		heap = (unsigned char *)&_end;
	}
	prev_heap = heap;
     d60:	f240 0388 	movw	r3, #136	; 0x88
     d64:	f2c2 0300 	movt	r3, #8192	; 0x2000
     d68:	6818      	ldr	r0, [r3, #0]

	heap += incr;
     d6a:	1882      	adds	r2, r0, r2
     d6c:	601a      	str	r2, [r3, #0]

	return (caddr_t)prev_heap;
}
     d6e:	4770      	bx	lr
		heap = (unsigned char *)&_end;
     d70:	f240 0388 	movw	r3, #136	; 0x88
     d74:	f2c2 0300 	movt	r3, #8192	; 0x2000
     d78:	f240 7158 	movw	r1, #1880	; 0x758
     d7c:	f2c2 0100 	movt	r1, #8192	; 0x2000
     d80:	6019      	str	r1, [r3, #0]
     d82:	e7ed      	b.n	d60 <_sbrk+0xe>

00000d84 <_get_cycles_for_ms>:
{
	switch (power) {
	case 8:
		return (ms * (freq / 100000)) * 100;
	case 7:
		return (ms * (freq / 10000)) * 10;
     d84:	f640 73a0 	movw	r3, #4000	; 0xfa0
     d88:	4358      	muls	r0, r3
 * \brief Retrieve the amount of cycles to delay for the given amount of ms
 */
uint32_t _get_cycles_for_ms(const uint16_t ms)
{
	return _get_cycles_for_ms_internal(ms, CONF_CPU_FREQUENCY, CPU_FREQ_POWER);
}
     d8a:	4770      	bx	lr

00000d8c <_init_chip>:

/**
 * \brief Initialize the hardware abstraction layer
 */
void _init_chip(void)
{
     d8c:	b510      	push	{r4, lr}
}

static inline void hri_nvmctrl_set_CTRLB_RWS_bf(const void *const hw, hri_nvmctrl_ctrlb_reg_t mask)
{
	NVMCTRL_CRITICAL_SECTION_ENTER();
	((Nvmctrl *)hw)->CTRLB.reg |= NVMCTRL_CTRLB_RWS(mask);
     d8e:	f245 0300 	movw	r3, #20480	; 0x5000
     d92:	f2c4 1300 	movt	r3, #16640	; 0x4100
     d96:	685a      	ldr	r2, [r3, #4]
     d98:	605a      	str	r2, [r3, #4]
	hri_nvmctrl_set_CTRLB_RWS_bf(NVMCTRL_SEC, CONF_NVM_WAIT_STATE);
#else
	hri_nvmctrl_set_CTRLB_RWS_bf(NVMCTRL, CONF_NVM_WAIT_STATE);
#endif

	_set_performance_level(CONF_PERFORMANCE_LEVEL);
     d9a:	2000      	movs	r0, #0
     d9c:	f640 638b 	movw	r3, #3723	; 0xe8b
     da0:	f2c0 0300 	movt	r3, #0
     da4:	4798      	blx	r3

	_osc32kctrl_init_sources();
     da6:	f640 6339 	movw	r3, #3641	; 0xe39
     daa:	f2c0 0300 	movt	r3, #0
     dae:	4798      	blx	r3
	_oscctrl_init_sources();
     db0:	f640 635b 	movw	r3, #3675	; 0xe5b
     db4:	f2c0 0300 	movt	r3, #0
     db8:	4798      	blx	r3
	_mclk_init();
     dba:	f640 632b 	movw	r3, #3627	; 0xe2b
     dbe:	f2c0 0300 	movt	r3, #0
     dc2:	4798      	blx	r3
#if _GCLK_INIT_1ST
	_gclk_init_generators_by_fref(_GCLK_INIT_1ST);
#endif
	_oscctrl_init_referenced_generators();
     dc4:	f640 6389 	movw	r3, #3721	; 0xe89
     dc8:	f2c0 0300 	movt	r3, #0
     dcc:	4798      	blx	r3
	_gclk_init_generators_by_fref(_GCLK_INIT_LAST);
     dce:	201f      	movs	r0, #31
     dd0:	f640 53dd 	movw	r3, #3549	; 0xddd
     dd4:	f2c0 0300 	movt	r3, #0
     dd8:	4798      	blx	r3
#endif

#if (CONF_PORT_EVCTRL_PORT_0 | CONF_PORT_EVCTRL_PORT_1 | CONF_PORT_EVCTRL_PORT_2 | CONF_PORT_EVCTRL_PORT_3)
	_port_event_init();
#endif
}
     dda:	bd10      	pop	{r4, pc}

00000ddc <_gclk_init_generators_by_fref>:

void _gclk_init_generators_by_fref(uint32_t bm)
{

#if CONF_GCLK_GENERATOR_0_CONFIG == 1
	if (bm & (1ul << 0)) {
     ddc:	07c3      	lsls	r3, r0, #31
     dde:	d510      	bpl.n	e02 <_gclk_init_generators_by_fref+0x26>
	((Gclk *)hw)->GENCTRL[index].reg = data;
     de0:	f641 4300 	movw	r3, #7168	; 0x1c00
     de4:	f2c4 0300 	movt	r3, #16384	; 0x4000
     de8:	f240 1205 	movw	r2, #261	; 0x105
     dec:	f2c0 0201 	movt	r2, #1
     df0:	621a      	str	r2, [r3, #32]
	while (((Gclk *)hw)->SYNCBUSY.reg & reg) {
     df2:	f641 4200 	movw	r2, #7168	; 0x1c00
     df6:	f2c4 0200 	movt	r2, #16384	; 0x4000
     dfa:	217d      	movs	r1, #125	; 0x7d
     dfc:	6853      	ldr	r3, [r2, #4]
     dfe:	4219      	tst	r1, r3
     e00:	d1fc      	bne.n	dfc <_gclk_init_generators_by_fref+0x20>
		        | (CONF_GCLK_GENERATOR_2_CONFIG << GCLK_GENCTRL_GENEN_Pos) | CONF_GCLK_GEN_2_SOURCE);
	}
#endif

#if CONF_GCLK_GENERATOR_3_CONFIG == 1
	if (bm & (1ul << 3)) {
     e02:	0703      	lsls	r3, r0, #28
     e04:	d510      	bpl.n	e28 <_gclk_init_generators_by_fref+0x4c>
	((Gclk *)hw)->GENCTRL[index].reg = data;
     e06:	f641 4300 	movw	r3, #7168	; 0x1c00
     e0a:	f2c4 0300 	movt	r3, #16384	; 0x4000
     e0e:	f240 1204 	movw	r2, #260	; 0x104
     e12:	f2c0 0201 	movt	r2, #1
     e16:	62da      	str	r2, [r3, #44]	; 0x2c
	while (((Gclk *)hw)->SYNCBUSY.reg & reg) {
     e18:	f641 4200 	movw	r2, #7168	; 0x1c00
     e1c:	f2c4 0200 	movt	r2, #16384	; 0x4000
     e20:	217d      	movs	r1, #125	; 0x7d
     e22:	6853      	ldr	r3, [r2, #4]
     e24:	4219      	tst	r1, r3
     e26:	d1fc      	bne.n	e22 <_gclk_init_generators_by_fref+0x46>
		        | (CONF_GCLK_GEN_4_DIVSEL << GCLK_GENCTRL_DIVSEL_Pos) | (CONF_GCLK_GEN_4_OE << GCLK_GENCTRL_OE_Pos)
		        | (CONF_GCLK_GEN_4_OOV << GCLK_GENCTRL_OOV_Pos) | (CONF_GCLK_GEN_4_IDC << GCLK_GENCTRL_IDC_Pos)
		        | (CONF_GCLK_GENERATOR_4_CONFIG << GCLK_GENCTRL_GENEN_Pos) | CONF_GCLK_GEN_4_SOURCE);
	}
#endif
}
     e28:	4770      	bx	lr

00000e2a <_mclk_init>:
	((Mclk *)hw)->CPUDIV.reg = data;
     e2a:	f640 0300 	movw	r3, #2048	; 0x800
     e2e:	f2c4 0300 	movt	r3, #16384	; 0x4000
     e32:	2201      	movs	r2, #1
     e34:	711a      	strb	r2, [r3, #4]
 */
void _mclk_init(void)
{
	void *hw = (void *)MCLK;
	hri_mclk_write_CPUDIV_reg(hw, MCLK_CPUDIV_CPUDIV(CONF_MCLK_CPUDIV));
}
     e36:	4770      	bx	lr

00000e38 <_osc32kctrl_init_sources>:
}

static inline void hri_osc32kctrl_write_XOSC32K_reg(const void *const hw, hri_osc32kctrl_xosc32k_reg_t data)
{
	OSC32KCTRL_CRITICAL_SECTION_ENTER();
	((Osc32kctrl *)hw)->XOSC32K.reg = data;
     e38:	f241 4300 	movw	r3, #5120	; 0x1400
     e3c:	f2c4 0300 	movt	r3, #16384	; 0x4000
     e40:	2286      	movs	r2, #134	; 0x86
     e42:	829a      	strh	r2, [r3, #20]
}

static inline void hri_osc32kctrl_write_CFDCTRL_reg(const void *const hw, hri_osc32kctrl_cfdctrl_reg_t data)
{
	OSC32KCTRL_CRITICAL_SECTION_ENTER();
	((Osc32kctrl *)hw)->CFDCTRL.reg = data;
     e44:	2200      	movs	r2, #0
     e46:	759a      	strb	r2, [r3, #22]
}

static inline void hri_osc32kctrl_write_EVCTRL_reg(const void *const hw, hri_osc32kctrl_evctrl_reg_t data)
{
	OSC32KCTRL_CRITICAL_SECTION_ENTER();
	((Osc32kctrl *)hw)->EVCTRL.reg = data;
     e48:	75da      	strb	r2, [r3, #23]
}

static inline hri_osc32kctrl_osculp32k_reg_t hri_osc32kctrl_read_OSCULP32K_CALIB_bf(const void *const hw)
{
	uint32_t tmp;
	tmp = ((Osc32kctrl *)hw)->OSCULP32K.reg;
     e4a:	69da      	ldr	r2, [r3, #28]
	hri_osc32kctrl_write_EVCTRL_reg(hw, (CONF_XOSC32K_CFDEO << OSC32KCTRL_EVCTRL_CFDEO_Pos));
#endif

#if CONF_OSCULP32K_CONFIG == 1
	calib = hri_osc32kctrl_read_OSCULP32K_CALIB_bf(hw);
	hri_osc32kctrl_write_OSCULP32K_reg(hw,
     e4c:	f641 7100 	movw	r1, #7936	; 0x1f00
     e50:	400a      	ands	r2, r1
}

static inline void hri_osc32kctrl_write_OSCULP32K_reg(const void *const hw, hri_osc32kctrl_osculp32k_reg_t data)
{
	OSC32KCTRL_CRITICAL_SECTION_ENTER();
	((Osc32kctrl *)hw)->OSCULP32K.reg = data;
     e52:	61da      	str	r2, [r3, #28]
	((Osc32kctrl *)hw)->RTCCTRL.reg = data;
     e54:	2204      	movs	r2, #4
     e56:	741a      	strb	r2, [r3, #16]
#endif
#endif

	hri_osc32kctrl_write_RTCCTRL_reg(hw, OSC32KCTRL_RTCCTRL_RTCSEL(CONF_RTCCTRL));
	(void)calib;
}
     e58:	4770      	bx	lr

00000e5a <_oscctrl_init_sources>:
}

static inline void hri_oscctrl_write_OSC16MCTRL_reg(const void *const hw, hri_oscctrl_osc16mctrl_reg_t data)
{
	OSCCTRL_CRITICAL_SECTION_ENTER();
	((Oscctrl *)hw)->OSC16MCTRL.reg = data;
     e5a:	f241 0300 	movw	r3, #4096	; 0x1000
     e5e:	f2c4 0300 	movt	r3, #16384	; 0x4000
     e62:	2202      	movs	r2, #2
     e64:	761a      	strb	r2, [r3, #24]
	return (((Oscctrl *)hw)->STATUS.reg & OSCCTRL_STATUS_OSC16MRDY_Msk) >> OSCCTRL_STATUS_OSC16MRDY_Pos;
     e66:	f241 0200 	movw	r2, #4096	; 0x1000
     e6a:	f2c4 0200 	movt	r2, #16384	; 0x4000
#endif
#endif

#if CONF_OSC16M_CONFIG == 1
#if CONF_OSC16M_ENABLE == 1
	while (!hri_oscctrl_get_STATUS_OSC16MRDY_bit(hw))
     e6e:	2110      	movs	r1, #16
     e70:	6913      	ldr	r3, [r2, #16]
     e72:	4219      	tst	r1, r3
     e74:	d0fc      	beq.n	e70 <_oscctrl_init_sources+0x16>
	((Oscctrl *)hw)->OSC16MCTRL.reg |= OSCCTRL_OSC16MCTRL_ONDEMAND_Msk;
     e76:	f241 0300 	movw	r3, #4096	; 0x1000
     e7a:	f2c4 0300 	movt	r3, #16384	; 0x4000
     e7e:	7e1a      	ldrb	r2, [r3, #24]
     e80:	2180      	movs	r1, #128	; 0x80
     e82:	430a      	orrs	r2, r1
     e84:	761a      	strb	r2, [r3, #24]
#if CONF_OSC16M_ONDEMAND == 1
	hri_oscctrl_set_OSC16MCTRL_ONDEMAND_bit(hw);
#endif
#endif
	(void)hw;
}
     e86:	4770      	bx	lr

00000e88 <_oscctrl_init_referenced_generators>:
#if CONF_DFLL_CONFIG == 1
	while (hri_gclk_read_SYNCBUSY_reg(GCLK))
		;
#endif
	(void)hw, (void)tmp;
}
     e88:	4770      	bx	lr

00000e8a <_set_performance_level>:
}

static inline hri_pm_plcfg_reg_t hri_pm_get_PLCFG_PLSEL_bf(const void *const hw, hri_pm_plcfg_reg_t mask)
{
	uint8_t tmp;
	tmp = ((Pm *)hw)->PLCFG.reg;
     e8a:	f240 4300 	movw	r3, #1024	; 0x400
     e8e:	f2c4 0300 	movt	r3, #16384	; 0x4000
     e92:	789b      	ldrb	r3, [r3, #2]
/**
 * \brief Set performance level
 */
void _set_performance_level(const uint8_t level)
{
	if (hri_pm_get_PLCFG_PLSEL_bf(PM, PM_PLCFG_PLSEL_Msk) != level) {
     e94:	2203      	movs	r2, #3
     e96:	4013      	ands	r3, r2
     e98:	4298      	cmp	r0, r3
     e9a:	d012      	beq.n	ec2 <_set_performance_level+0x38>
	((Pm *)hw)->INTFLAG.reg = mask;
     e9c:	f240 4200 	movw	r2, #1024	; 0x400
     ea0:	f2c4 0200 	movt	r2, #16384	; 0x4000
     ea4:	23ff      	movs	r3, #255	; 0xff
     ea6:	7193      	strb	r3, [r2, #6]

static inline void hri_pm_write_PLCFG_PLSEL_bf(const void *const hw, hri_pm_plcfg_reg_t data)
{
	uint8_t tmp;
	PM_CRITICAL_SECTION_ENTER();
	tmp = ((Pm *)hw)->PLCFG.reg;
     ea8:	7893      	ldrb	r3, [r2, #2]
	tmp &= ~PM_PLCFG_PLSEL_Msk;
     eaa:	2103      	movs	r1, #3
     eac:	438b      	bics	r3, r1
	tmp |= PM_PLCFG_PLSEL(data);
     eae:	4008      	ands	r0, r1
     eb0:	4318      	orrs	r0, r3
	((Pm *)hw)->PLCFG.reg = tmp;
     eb2:	7090      	strb	r0, [r2, #2]
	return ((Pm *)hw)->INTFLAG.reg;
     eb4:	f240 4200 	movw	r2, #1024	; 0x400
     eb8:	f2c4 0200 	movt	r2, #16384	; 0x4000
     ebc:	7993      	ldrb	r3, [r2, #6]
		hri_pm_clear_INTFLAG_reg(PM, 0xFF);
		hri_pm_write_PLCFG_PLSEL_bf(PM, level);
		while (!hri_pm_read_INTFLAG_reg(PM))
     ebe:	2b00      	cmp	r3, #0
     ec0:	d0fc      	beq.n	ebc <_set_performance_level+0x32>
			;
	}
}
     ec2:	4770      	bx	lr

00000ec4 <_sercom_get_hardware_index>:

/**
 * \brief Retrieve ordinal number of the given sercom hardware instance
 */
static uint8_t _sercom_get_hardware_index(const void *const hw)
{
     ec4:	b530      	push	{r4, r5, lr}
     ec6:	b085      	sub	sp, #20
	Sercom *const sercom_modules[] = SERCOM_INSTS;
     ec8:	aa01      	add	r2, sp, #4
     eca:	f645 232c 	movw	r3, #23084	; 0x5a2c
     ece:	f2c0 0300 	movt	r3, #0
     ed2:	cb32      	ldmia	r3!, {r1, r4, r5}
     ed4:	c232      	stmia	r2!, {r1, r4, r5}
	/* Find index for SERCOM instance. */
	for (uint32_t i = 0; i < SERCOM_INST_NUM; i++) {
		if ((uint32_t)hw == (uint32_t)sercom_modules[i]) {
     ed6:	0003      	movs	r3, r0
     ed8:	9a01      	ldr	r2, [sp, #4]
     eda:	4282      	cmp	r2, r0
     edc:	d00c      	beq.n	ef8 <_sercom_get_hardware_index+0x34>
     ede:	9a02      	ldr	r2, [sp, #8]
     ee0:	4282      	cmp	r2, r0
     ee2:	d007      	beq.n	ef4 <_sercom_get_hardware_index+0x30>
			return i;
		}
	}
	return 0;
     ee4:	2000      	movs	r0, #0
		if ((uint32_t)hw == (uint32_t)sercom_modules[i]) {
     ee6:	9a03      	ldr	r2, [sp, #12]
     ee8:	429a      	cmp	r2, r3
     eea:	d001      	beq.n	ef0 <_sercom_get_hardware_index+0x2c>
}
     eec:	b005      	add	sp, #20
     eee:	bd30      	pop	{r4, r5, pc}
	for (uint32_t i = 0; i < SERCOM_INST_NUM; i++) {
     ef0:	3002      	adds	r0, #2
     ef2:	e002      	b.n	efa <_sercom_get_hardware_index+0x36>
     ef4:	2001      	movs	r0, #1
     ef6:	e000      	b.n	efa <_sercom_get_hardware_index+0x36>
     ef8:	2000      	movs	r0, #0
			return i;
     efa:	b2c0      	uxtb	r0, r0
     efc:	e7f6      	b.n	eec <_sercom_get_hardware_index+0x28>
	...

00000f00 <_usart_init>:
 * \param[in] hw The pointer to hardware instance
 *
 * \return The status of initialization
 */
static int32_t _usart_init(void *const hw)
{
     f00:	b510      	push	{r4, lr}
     f02:	0004      	movs	r4, r0
	uint8_t sercom_offset = _sercom_get_hardware_index(hw);
     f04:	f640 63c5 	movw	r3, #3781	; 0xec5
     f08:	f2c0 0300 	movt	r3, #0
     f0c:	4798      	blx	r3
		if (_usarts[i].number == sercom_offset) {
     f0e:	2802      	cmp	r0, #2
     f10:	d00b      	beq.n	f2a <_usart_init+0x2a>
	ASSERT(false);
     f12:	f645 2150 	movw	r1, #23120	; 0x5a50
     f16:	f2c0 0100 	movt	r1, #0
     f1a:	f240 2247 	movw	r2, #583	; 0x247
     f1e:	2000      	movs	r0, #0
     f20:	f640 534d 	movw	r3, #3405	; 0xd4d
     f24:	f2c0 0300 	movt	r3, #0
     f28:	4798      	blx	r3
	};
}

static inline bool hri_sercomusart_is_syncing(const void *const hw, hri_sercomusart_syncbusy_reg_t reg)
{
	return ((Sercom *)hw)->USART.SYNCBUSY.reg & reg;
     f2a:	69e3      	ldr	r3, [r4, #28]
	uint8_t i = _get_sercom_index(hw);

	if (!hri_sercomusart_is_syncing(hw, SERCOM_USART_SYNCBUSY_SWRST)) {
     f2c:	07db      	lsls	r3, r3, #31
     f2e:	d418      	bmi.n	f62 <_usart_init+0x62>
	while (((Sercom *)hw)->USART.SYNCBUSY.reg & reg) {
     f30:	2203      	movs	r2, #3
     f32:	69e3      	ldr	r3, [r4, #28]
     f34:	421a      	tst	r2, r3
     f36:	d1fc      	bne.n	f32 <_usart_init+0x32>
static inline hri_sercomusart_ctrla_reg_t hri_sercomusart_get_CTRLA_reg(const void *const           hw,
                                                                        hri_sercomusart_ctrla_reg_t mask)
{
	uint32_t tmp;
	hri_sercomusart_wait_for_sync(hw, SERCOM_USART_SYNCBUSY_SWRST | SERCOM_USART_SYNCBUSY_ENABLE);
	tmp = ((Sercom *)hw)->USART.CTRLA.reg;
     f38:	6823      	ldr	r3, [r4, #0]
		uint32_t mode = _usarts[i].ctrl_a & SERCOM_USART_CTRLA_MODE_Msk;
		if (hri_sercomusart_get_CTRLA_reg(hw, SERCOM_USART_CTRLA_ENABLE)) {
     f3a:	079b      	lsls	r3, r3, #30
     f3c:	d50b      	bpl.n	f56 <_usart_init+0x56>
	((Sercom *)hw)->USART.CTRLA.reg &= ~SERCOM_USART_CTRLA_ENABLE;
     f3e:	6823      	ldr	r3, [r4, #0]
     f40:	2202      	movs	r2, #2
     f42:	4393      	bics	r3, r2
     f44:	6023      	str	r3, [r4, #0]
	while (((Sercom *)hw)->USART.SYNCBUSY.reg & reg) {
     f46:	3201      	adds	r2, #1
     f48:	69e3      	ldr	r3, [r4, #28]
     f4a:	421a      	tst	r2, r3
     f4c:	d1fc      	bne.n	f48 <_usart_init+0x48>
     f4e:	2202      	movs	r2, #2
     f50:	69e3      	ldr	r3, [r4, #28]
     f52:	421a      	tst	r2, r3
     f54:	d1fc      	bne.n	f50 <_usart_init+0x50>
}

static inline void hri_sercomusart_write_CTRLA_reg(const void *const hw, hri_sercomusart_ctrla_reg_t data)
{
	SERCOM_CRITICAL_SECTION_ENTER();
	((Sercom *)hw)->USART.CTRLA.reg = data;
     f56:	2305      	movs	r3, #5
     f58:	6023      	str	r3, [r4, #0]
	while (((Sercom *)hw)->USART.SYNCBUSY.reg & reg) {
     f5a:	2203      	movs	r2, #3
     f5c:	69e3      	ldr	r3, [r4, #28]
     f5e:	421a      	tst	r2, r3
     f60:	d1fc      	bne.n	f5c <_usart_init+0x5c>
     f62:	2201      	movs	r2, #1
     f64:	69e3      	ldr	r3, [r4, #28]
     f66:	421a      	tst	r2, r3
     f68:	d1fc      	bne.n	f64 <_usart_init+0x64>
	((Sercom *)hw)->USART.CTRLA.reg = data;
     f6a:	2304      	movs	r3, #4
     f6c:	f2c4 0310 	movt	r3, #16400	; 0x4010
     f70:	6023      	str	r3, [r4, #0]
	while (((Sercom *)hw)->USART.SYNCBUSY.reg & reg) {
     f72:	2203      	movs	r2, #3
     f74:	69e3      	ldr	r3, [r4, #28]
     f76:	421a      	tst	r2, r3
     f78:	d1fc      	bne.n	f74 <_usart_init+0x74>
}

static inline void hri_sercomusart_write_CTRLB_reg(const void *const hw, hri_sercomusart_ctrlb_reg_t data)
{
	SERCOM_CRITICAL_SECTION_ENTER();
	((Sercom *)hw)->USART.CTRLB.reg = data;
     f7a:	23c0      	movs	r3, #192	; 0xc0
     f7c:	029b      	lsls	r3, r3, #10
     f7e:	6063      	str	r3, [r4, #4]
	while (((Sercom *)hw)->USART.SYNCBUSY.reg & reg) {
     f80:	220f      	movs	r2, #15
     f82:	69e3      	ldr	r3, [r4, #28]
     f84:	421a      	tst	r2, r3
     f86:	d1fc      	bne.n	f82 <_usart_init+0x82>
}

static inline void hri_sercomusart_write_CTRLC_reg(const void *const hw, hri_sercomusart_ctrlc_reg_t data)
{
	SERCOM_CRITICAL_SECTION_ENTER();
	((Sercom *)hw)->USART.CTRLC.reg = data;
     f88:	2302      	movs	r3, #2
     f8a:	f2c0 0370 	movt	r3, #112	; 0x70
     f8e:	60a3      	str	r3, [r4, #8]
}

static inline void hri_sercomusart_write_BAUD_reg(const void *const hw, hri_sercomusart_baud_reg_t data)
{
	SERCOM_CRITICAL_SECTION_ENTER();
	((Sercom *)hw)->USART.BAUD.reg = data;
     f90:	4b03      	ldr	r3, [pc, #12]	; (fa0 <_usart_init+0xa0>)
     f92:	81a3      	strh	r3, [r4, #12]
}

static inline void hri_sercomusart_write_RXPL_reg(const void *const hw, hri_sercomusart_rxpl_reg_t data)
{
	SERCOM_CRITICAL_SECTION_ENTER();
	((Sercom *)hw)->USART.RXPL.reg = data;
     f94:	2300      	movs	r3, #0
     f96:	73a3      	strb	r3, [r4, #14]
}

static inline void hri_sercomusart_write_DBGCTRL_reg(const void *const hw, hri_sercomusart_dbgctrl_reg_t data)
{
	SERCOM_CRITICAL_SECTION_ENTER();
	((Sercom *)hw)->USART.DBGCTRL.reg = data;
     f98:	2230      	movs	r2, #48	; 0x30
     f9a:	54a3      	strb	r3, [r4, r2]

	hri_sercomusart_write_RXPL_reg(hw, _usarts[i].rxpl);
	hri_sercomusart_write_DBGCTRL_reg(hw, _usarts[i].debug_ctrl);

	return ERR_NONE;
}
     f9c:	2000      	movs	r0, #0
     f9e:	bd10      	pop	{r4, pc}
     fa0:	ffffc504 	.word	0xffffc504

00000fa4 <_get_i2cm_index>:
 * \param[in] hw The pointer to hardware instance

 * \return The ordinal number of the given sercom hardware instance
 */
static int8_t _get_i2cm_index(const void *const hw)
{
     fa4:	b510      	push	{r4, lr}
	uint8_t sercom_offset = _sercom_get_hardware_index(hw);
     fa6:	f640 63c5 	movw	r3, #3781	; 0xec5
     faa:	f2c0 0300 	movt	r3, #0
     fae:	4798      	blx	r3
	uint8_t i;

	for (i = 0; i < ARRAY_SIZE(_i2cms); i++) {
		if (_i2cms[i].number == sercom_offset) {
     fb0:	b168      	cbz	r0, fce <_get_i2cm_index+0x2a>
			return i;
		}
	}

	ASSERT(false);
     fb2:	f645 2150 	movw	r1, #23120	; 0x5a50
     fb6:	f2c0 0100 	movt	r1, #0
     fba:	f240 32a6 	movw	r2, #934	; 0x3a6
     fbe:	2000      	movs	r0, #0
     fc0:	f640 534d 	movw	r3, #3405	; 0xd4d
     fc4:	f2c0 0300 	movt	r3, #0
     fc8:	4798      	blx	r3
	return -1;
     fca:	2001      	movs	r0, #1
     fcc:	4240      	negs	r0, r0
}
     fce:	bd10      	pop	{r4, pc}

00000fd0 <_i2c_m_sync_init_impl>:
		}
	}
}

static int32_t _i2c_m_sync_init_impl(struct _i2c_m_service *const service, void *const hw)
{
     fd0:	b570      	push	{r4, r5, r6, lr}
     fd2:	0005      	movs	r5, r0
     fd4:	000c      	movs	r4, r1
	uint8_t i = _get_i2cm_index(hw);
     fd6:	0008      	movs	r0, r1
     fd8:	f640 73a5 	movw	r3, #4005	; 0xfa5
     fdc:	f2c0 0300 	movt	r3, #0
     fe0:	4798      	blx	r3
     fe2:	b2c0      	uxtb	r0, r0
	return ((Sercom *)hw)->I2CM.SYNCBUSY.reg & reg;
     fe4:	69e3      	ldr	r3, [r4, #28]

	if (!hri_sercomi2cm_is_syncing(hw, SERCOM_I2CM_SYNCBUSY_SWRST)) {
     fe6:	07db      	lsls	r3, r3, #31
     fe8:	d425      	bmi.n	1036 <_i2c_m_sync_init_impl+0x66>
		uint32_t mode = _i2cms[i].ctrl_a & SERCOM_I2CM_CTRLA_MODE_Msk;
     fea:	0043      	lsls	r3, r0, #1
     fec:	181b      	adds	r3, r3, r0
     fee:	00db      	lsls	r3, r3, #3
     ff0:	f645 222c 	movw	r2, #23084	; 0x5a2c
     ff4:	f2c0 0200 	movt	r2, #0
     ff8:	4694      	mov	ip, r2
     ffa:	4463      	add	r3, ip
     ffc:	6919      	ldr	r1, [r3, #16]
     ffe:	231c      	movs	r3, #28
    1000:	4019      	ands	r1, r3
	while (((Sercom *)hw)->I2CM.SYNCBUSY.reg & reg) {
    1002:	2203      	movs	r2, #3
    1004:	69e3      	ldr	r3, [r4, #28]
    1006:	421a      	tst	r2, r3
    1008:	d1fc      	bne.n	1004 <_i2c_m_sync_init_impl+0x34>
	tmp = ((Sercom *)hw)->I2CM.CTRLA.reg;
    100a:	6823      	ldr	r3, [r4, #0]
		if (hri_sercomi2cm_get_CTRLA_reg(hw, SERCOM_I2CM_CTRLA_ENABLE)) {
    100c:	079b      	lsls	r3, r3, #30
    100e:	d50b      	bpl.n	1028 <_i2c_m_sync_init_impl+0x58>
	((Sercom *)hw)->I2CM.CTRLA.reg &= ~SERCOM_I2CM_CTRLA_ENABLE;
    1010:	6823      	ldr	r3, [r4, #0]
    1012:	2202      	movs	r2, #2
    1014:	4393      	bics	r3, r2
    1016:	6023      	str	r3, [r4, #0]
	while (((Sercom *)hw)->I2CM.SYNCBUSY.reg & reg) {
    1018:	3201      	adds	r2, #1
    101a:	69e3      	ldr	r3, [r4, #28]
    101c:	421a      	tst	r2, r3
    101e:	d1fc      	bne.n	101a <_i2c_m_sync_init_impl+0x4a>
    1020:	2202      	movs	r2, #2
    1022:	69e3      	ldr	r3, [r4, #28]
    1024:	421a      	tst	r2, r3
    1026:	d1fc      	bne.n	1022 <_i2c_m_sync_init_impl+0x52>
			hri_sercomi2cm_clear_CTRLA_ENABLE_bit(hw);
			hri_sercomi2cm_wait_for_sync(hw, SERCOM_I2CM_SYNCBUSY_ENABLE);
		}
		hri_sercomi2cm_write_CTRLA_reg(hw, SERCOM_I2CM_CTRLA_SWRST | mode);
    1028:	2301      	movs	r3, #1
    102a:	430b      	orrs	r3, r1
	((Sercom *)hw)->I2CM.CTRLA.reg = data;
    102c:	6023      	str	r3, [r4, #0]
	while (((Sercom *)hw)->I2CM.SYNCBUSY.reg & reg) {
    102e:	2203      	movs	r2, #3
    1030:	69e3      	ldr	r3, [r4, #28]
    1032:	421a      	tst	r2, r3
    1034:	d1fc      	bne.n	1030 <_i2c_m_sync_init_impl+0x60>
    1036:	2201      	movs	r2, #1
    1038:	69e3      	ldr	r3, [r4, #28]
    103a:	421a      	tst	r2, r3
    103c:	d1fc      	bne.n	1038 <_i2c_m_sync_init_impl+0x68>
	}
	hri_sercomi2cm_wait_for_sync(hw, SERCOM_I2CM_SYNCBUSY_SWRST);

	hri_sercomi2cm_write_CTRLA_reg(hw, _i2cms[i].ctrl_a);
    103e:	0043      	lsls	r3, r0, #1
    1040:	181b      	adds	r3, r3, r0
    1042:	00db      	lsls	r3, r3, #3
    1044:	f645 222c 	movw	r2, #23084	; 0x5a2c
    1048:	f2c0 0200 	movt	r2, #0
    104c:	4694      	mov	ip, r2
    104e:	4463      	add	r3, ip
    1050:	6919      	ldr	r1, [r3, #16]
	((Sercom *)hw)->I2CM.CTRLA.reg = data;
    1052:	6021      	str	r1, [r4, #0]
	while (((Sercom *)hw)->I2CM.SYNCBUSY.reg & reg) {
    1054:	2203      	movs	r2, #3
    1056:	69e3      	ldr	r3, [r4, #28]
    1058:	421a      	tst	r2, r3
    105a:	d1fc      	bne.n	1056 <_i2c_m_sync_init_impl+0x86>
	hri_sercomi2cm_write_CTRLB_reg(hw, _i2cms[i].ctrl_b);
    105c:	0043      	lsls	r3, r0, #1
    105e:	181b      	adds	r3, r3, r0
    1060:	00db      	lsls	r3, r3, #3
    1062:	f645 222c 	movw	r2, #23084	; 0x5a2c
    1066:	f2c0 0200 	movt	r2, #0
    106a:	4694      	mov	ip, r2
    106c:	4463      	add	r3, ip
    106e:	695b      	ldr	r3, [r3, #20]
	((Sercom *)hw)->I2CM.CTRLB.reg = data;
    1070:	6063      	str	r3, [r4, #4]
	while (((Sercom *)hw)->I2CM.SYNCBUSY.reg & reg) {
    1072:	2204      	movs	r2, #4
    1074:	69e3      	ldr	r3, [r4, #28]
    1076:	421a      	tst	r2, r3
    1078:	d1fc      	bne.n	1074 <_i2c_m_sync_init_impl+0xa4>
	hri_sercomi2cm_write_BAUD_reg(hw, _i2cms[i].baud);
    107a:	0043      	lsls	r3, r0, #1
    107c:	181b      	adds	r3, r3, r0
    107e:	00db      	lsls	r3, r3, #3
    1080:	f645 222c 	movw	r2, #23084	; 0x5a2c
    1084:	f2c0 0200 	movt	r2, #0
    1088:	4694      	mov	ip, r2
    108a:	4463      	add	r3, ip
    108c:	699b      	ldr	r3, [r3, #24]
	((Sercom *)hw)->I2CM.BAUD.reg = data;
    108e:	60e3      	str	r3, [r4, #12]

	service->mode = (_i2cms[i].ctrl_a & SERCOM_I2CM_CTRLA_SPEED_Msk) >> SERCOM_I2CM_CTRLA_SPEED_Pos;
    1090:	0189      	lsls	r1, r1, #6
    1092:	0f89      	lsrs	r1, r1, #30
    1094:	81a9      	strh	r1, [r5, #12]
	tmp = ((Sercom *)hw)->I2CM.ADDR.reg;
    1096:	6a63      	ldr	r3, [r4, #36]	; 0x24
	tmp &= ~SERCOM_I2CM_ADDR_HS;
    1098:	4e0c      	ldr	r6, [pc, #48]	; (10cc <_i2c_m_sync_init_impl+0xfc>)
    109a:	401e      	ands	r6, r3
	hri_sercomi2cm_write_ADDR_HS_bit(hw, service->mode < I2C_HS ? 0 : 1);
    109c:	2301      	movs	r3, #1
    109e:	428b      	cmp	r3, r1
    10a0:	419b      	sbcs	r3, r3
    10a2:	425b      	negs	r3, r3
	tmp |= value << SERCOM_I2CM_ADDR_HS_Pos;
    10a4:	039b      	lsls	r3, r3, #14
    10a6:	4333      	orrs	r3, r6
	((Sercom *)hw)->I2CM.ADDR.reg = tmp;
    10a8:	6263      	str	r3, [r4, #36]	; 0x24
	while (((Sercom *)hw)->I2CM.SYNCBUSY.reg & reg) {
    10aa:	2204      	movs	r2, #4
    10ac:	69e3      	ldr	r3, [r4, #28]
    10ae:	421a      	tst	r2, r3
    10b0:	d1fc      	bne.n	10ac <_i2c_m_sync_init_impl+0xdc>

	service->trise = _i2cms[i].trise;
    10b2:	0043      	lsls	r3, r0, #1
    10b4:	1818      	adds	r0, r3, r0
    10b6:	00c0      	lsls	r0, r0, #3
    10b8:	f645 232c 	movw	r3, #23084	; 0x5a2c
    10bc:	f2c0 0300 	movt	r3, #0
    10c0:	469c      	mov	ip, r3
    10c2:	4460      	add	r0, ip
    10c4:	8bc3      	ldrh	r3, [r0, #30]
    10c6:	81eb      	strh	r3, [r5, #14]

	return ERR_NONE;
}
    10c8:	2000      	movs	r0, #0
    10ca:	bd70      	pop	{r4, r5, r6, pc}
    10cc:	ffffbfff 	.word	0xffffbfff

000010d0 <_usart_sync_init>:
{
    10d0:	b570      	push	{r4, r5, r6, lr}
    10d2:	0005      	movs	r5, r0
    10d4:	000c      	movs	r4, r1
	ASSERT(device);
    10d6:	f645 2150 	movw	r1, #23120	; 0x5a50
    10da:	f2c0 0100 	movt	r1, #0
    10de:	1e43      	subs	r3, r0, #1
    10e0:	4198      	sbcs	r0, r3
    10e2:	b2c0      	uxtb	r0, r0
    10e4:	22bb      	movs	r2, #187	; 0xbb
    10e6:	f640 534d 	movw	r3, #3405	; 0xd4d
    10ea:	f2c0 0300 	movt	r3, #0
    10ee:	4798      	blx	r3
	device->hw = hw;
    10f0:	602c      	str	r4, [r5, #0]
	return _usart_init(hw);
    10f2:	0020      	movs	r0, r4
    10f4:	f640 7301 	movw	r3, #3841	; 0xf01
    10f8:	f2c0 0300 	movt	r3, #0
    10fc:	4798      	blx	r3
}
    10fe:	bd70      	pop	{r4, r5, r6, pc}

00001100 <_usart_sync_enable>:
	hri_sercomusart_set_CTRLA_ENABLE_bit(device->hw);
    1100:	6802      	ldr	r2, [r0, #0]
	((Sercom *)hw)->USART.CTRLA.reg |= SERCOM_USART_CTRLA_ENABLE;
    1102:	6813      	ldr	r3, [r2, #0]
    1104:	2102      	movs	r1, #2
    1106:	430b      	orrs	r3, r1
    1108:	6013      	str	r3, [r2, #0]
	while (((Sercom *)hw)->USART.SYNCBUSY.reg & reg) {
    110a:	3101      	adds	r1, #1
    110c:	69d3      	ldr	r3, [r2, #28]
    110e:	4219      	tst	r1, r3
    1110:	d1fc      	bne.n	110c <_usart_sync_enable+0xc>
}
    1112:	4770      	bx	lr

00001114 <_usart_sync_write_byte>:
	hri_sercomusart_write_DATA_reg(device->hw, data);
    1114:	6803      	ldr	r3, [r0, #0]
    1116:	b289      	uxth	r1, r1
	((Sercom *)hw)->USART.DATA.reg = data;
    1118:	8519      	strh	r1, [r3, #40]	; 0x28
}
    111a:	4770      	bx	lr

0000111c <_usart_sync_read_byte>:
	return hri_sercomusart_read_DATA_reg(device->hw);
    111c:	6803      	ldr	r3, [r0, #0]
	return ((Sercom *)hw)->USART.DATA.reg;
    111e:	8d18      	ldrh	r0, [r3, #40]	; 0x28
    1120:	b2c0      	uxtb	r0, r0
}
    1122:	4770      	bx	lr

00001124 <_usart_sync_is_ready_to_send>:
	return hri_sercomusart_get_interrupt_DRE_bit(device->hw);
    1124:	6803      	ldr	r3, [r0, #0]
	return (((Sercom *)hw)->USART.INTFLAG.reg & SERCOM_USART_INTFLAG_DRE) >> SERCOM_USART_INTFLAG_DRE_Pos;
    1126:	7e18      	ldrb	r0, [r3, #24]
    1128:	2301      	movs	r3, #1
    112a:	4018      	ands	r0, r3
}
    112c:	4770      	bx	lr

0000112e <_usart_sync_is_transmit_done>:
	return hri_sercomusart_get_interrupt_TXC_bit(device->hw);
    112e:	6803      	ldr	r3, [r0, #0]
	return (((Sercom *)hw)->USART.INTFLAG.reg & SERCOM_USART_INTFLAG_TXC) >> SERCOM_USART_INTFLAG_TXC_Pos;
    1130:	7e18      	ldrb	r0, [r3, #24]
    1132:	0780      	lsls	r0, r0, #30
    1134:	0fc0      	lsrs	r0, r0, #31
}
    1136:	4770      	bx	lr

00001138 <_usart_sync_is_byte_received>:
	return hri_sercomusart_get_interrupt_RXC_bit(device->hw);
    1138:	6803      	ldr	r3, [r0, #0]
	return (((Sercom *)hw)->USART.INTFLAG.reg & SERCOM_USART_INTFLAG_RXC) >> SERCOM_USART_INTFLAG_RXC_Pos;
    113a:	7e18      	ldrb	r0, [r3, #24]
    113c:	0740      	lsls	r0, r0, #29
    113e:	0fc0      	lsrs	r0, r0, #31
}
    1140:	4770      	bx	lr

00001142 <_i2c_m_sync_init>:
{
    1142:	b570      	push	{r4, r5, r6, lr}
    1144:	0004      	movs	r4, r0
    1146:	000d      	movs	r5, r1
	ASSERT(i2c_dev);
    1148:	f645 2150 	movw	r1, #23120	; 0x5a50
    114c:	f2c0 0100 	movt	r1, #0
    1150:	1e43      	subs	r3, r0, #1
    1152:	4198      	sbcs	r0, r3
    1154:	b2c0      	uxtb	r0, r0
    1156:	f240 521a 	movw	r2, #1306	; 0x51a
    115a:	f640 534d 	movw	r3, #3405	; 0xd4d
    115e:	f2c0 0300 	movt	r3, #0
    1162:	4798      	blx	r3
	i2c_dev->hw = hw;
    1164:	6125      	str	r5, [r4, #16]
	return _i2c_m_sync_init_impl(&i2c_dev->service, hw);
    1166:	0029      	movs	r1, r5
    1168:	0020      	movs	r0, r4
    116a:	f640 73d1 	movw	r3, #4049	; 0xfd1
    116e:	f2c0 0300 	movt	r3, #0
    1172:	4798      	blx	r3
}
    1174:	bd70      	pop	{r4, r5, r6, pc}

00001176 <_i2c_m_sync_enable>:
{
    1176:	b570      	push	{r4, r5, r6, lr}
    1178:	0004      	movs	r4, r0
	ASSERT(i2c_dev);
    117a:	f645 2650 	movw	r6, #23120	; 0x5a50
    117e:	f2c0 0600 	movt	r6, #0
    1182:	1e43      	subs	r3, r0, #1
    1184:	4198      	sbcs	r0, r3
    1186:	b2c0      	uxtb	r0, r0
    1188:	f240 5237 	movw	r2, #1335	; 0x537
    118c:	0031      	movs	r1, r6
    118e:	f640 554d 	movw	r5, #3405	; 0xd4d
    1192:	f2c0 0500 	movt	r5, #0
    1196:	47a8      	blx	r5
	_i2c_m_enable_implementation(i2c_dev->hw);
    1198:	6924      	ldr	r4, [r4, #16]
	ASSERT(hw);
    119a:	0020      	movs	r0, r4
    119c:	1e43      	subs	r3, r0, #1
    119e:	4198      	sbcs	r0, r3
    11a0:	b2c0      	uxtb	r0, r0
    11a2:	f240 6208 	movw	r2, #1544	; 0x608
    11a6:	0031      	movs	r1, r6
    11a8:	47a8      	blx	r5
	((Sercom *)hw)->I2CM.CTRLA.reg |= SERCOM_I2CM_CTRLA_ENABLE;
    11aa:	6823      	ldr	r3, [r4, #0]
    11ac:	2202      	movs	r2, #2
    11ae:	4313      	orrs	r3, r2
    11b0:	6023      	str	r3, [r4, #0]
	while (((Sercom *)hw)->I2CM.SYNCBUSY.reg & reg) {
    11b2:	3201      	adds	r2, #1
    11b4:	69e3      	ldr	r3, [r4, #28]
    11b6:	421a      	tst	r2, r3
    11b8:	d1fc      	bne.n	11b4 <_i2c_m_sync_enable+0x3e>
    11ba:	f64f 71ff 	movw	r1, #65535	; 0xffff
    11be:	2204      	movs	r2, #4
}

static inline hri_sercomi2cm_status_reg_t hri_sercomi2cm_read_STATUS_BUSSTATE_bf(const void *const hw)
{
	hri_sercomi2cm_wait_for_sync(hw, SERCOM_I2CM_SYNCBUSY_SYSOP);
	return (((Sercom *)hw)->I2CM.STATUS.reg & SERCOM_I2CM_STATUS_BUSSTATE_Msk) >> SERCOM_I2CM_STATUS_BUSSTATE_Pos;
    11c0:	2003      	movs	r0, #3
}

static inline void hri_sercomi2cm_clear_STATUS_reg(const void *const hw, hri_sercomi2cm_status_reg_t mask)
{
	SERCOM_CRITICAL_SECTION_ENTER();
	((Sercom *)hw)->I2CM.STATUS.reg = mask;
    11c2:	2510      	movs	r5, #16
	while (((Sercom *)hw)->I2CM.SYNCBUSY.reg & reg) {
    11c4:	69e3      	ldr	r3, [r4, #28]
    11c6:	421a      	tst	r2, r3
    11c8:	d1fc      	bne.n	11c4 <_i2c_m_sync_enable+0x4e>
	return (((Sercom *)hw)->I2CM.STATUS.reg & SERCOM_I2CM_STATUS_BUSSTATE_Msk) >> SERCOM_I2CM_STATUS_BUSSTATE_Pos;
    11ca:	8b63      	ldrh	r3, [r4, #26]
    11cc:	091b      	lsrs	r3, r3, #4
	while (hri_sercomi2cm_read_STATUS_BUSSTATE_bf(hw) != I2C_IDLE) {
    11ce:	4003      	ands	r3, r0
    11d0:	2b01      	cmp	r3, #1
    11d2:	d007      	beq.n	11e4 <_i2c_m_sync_enable+0x6e>
		timeout--;
    11d4:	3901      	subs	r1, #1
		if (timeout <= 0) {
    11d6:	2900      	cmp	r1, #0
    11d8:	dcf4      	bgt.n	11c4 <_i2c_m_sync_enable+0x4e>
	((Sercom *)hw)->I2CM.STATUS.reg = mask;
    11da:	8365      	strh	r5, [r4, #26]
	while (((Sercom *)hw)->I2CM.SYNCBUSY.reg & reg) {
    11dc:	69e3      	ldr	r3, [r4, #28]
    11de:	421a      	tst	r2, r3
    11e0:	d1fc      	bne.n	11dc <_i2c_m_sync_enable+0x66>
    11e2:	e7ef      	b.n	11c4 <_i2c_m_sync_enable+0x4e>
}
    11e4:	2000      	movs	r0, #0
    11e6:	bd70      	pop	{r4, r5, r6, pc}

000011e8 <_i2c_m_sync_transfer>:
{
    11e8:	b5f0      	push	{r4, r5, r6, r7, lr}
    11ea:	46de      	mov	lr, fp
    11ec:	4657      	mov	r7, sl
    11ee:	464e      	mov	r6, r9
    11f0:	4645      	mov	r5, r8
    11f2:	b5e0      	push	{r5, r6, r7, lr}
    11f4:	b083      	sub	sp, #12
    11f6:	0005      	movs	r5, r0
    11f8:	4688      	mov	r8, r1
	void *   hw = i2c_dev->hw;
    11fa:	6904      	ldr	r4, [r0, #16]
	ASSERT(i2c_dev);
    11fc:	0006      	movs	r6, r0
    11fe:	1e73      	subs	r3, r6, #1
    1200:	419e      	sbcs	r6, r3
    1202:	b2f3      	uxtb	r3, r6
    1204:	9301      	str	r3, [sp, #4]
    1206:	f645 2650 	movw	r6, #23120	; 0x5a50
    120a:	f2c0 0600 	movt	r6, #0
    120e:	f240 52d4 	movw	r2, #1492	; 0x5d4
    1212:	0031      	movs	r1, r6
    1214:	0018      	movs	r0, r3
    1216:	f640 574d 	movw	r7, #3405	; 0xd4d
    121a:	f2c0 0700 	movt	r7, #0
    121e:	47b8      	blx	r7
	ASSERT(i2c_dev->hw);
    1220:	6928      	ldr	r0, [r5, #16]
    1222:	1e43      	subs	r3, r0, #1
    1224:	4198      	sbcs	r0, r3
    1226:	b2c0      	uxtb	r0, r0
    1228:	f240 52d5 	movw	r2, #1493	; 0x5d5
    122c:	0031      	movs	r1, r6
    122e:	47b8      	blx	r7
	ASSERT(msg);
    1230:	4640      	mov	r0, r8
    1232:	1e43      	subs	r3, r0, #1
    1234:	4198      	sbcs	r0, r3
    1236:	b2c0      	uxtb	r0, r0
    1238:	f240 52d6 	movw	r2, #1494	; 0x5d6
    123c:	0031      	movs	r1, r6
    123e:	47b8      	blx	r7
	if (i2c_dev->service.msg.flags & I2C_M_BUSY) {
    1240:	886b      	ldrh	r3, [r5, #2]
    1242:	05db      	lsls	r3, r3, #23
    1244:	d500      	bpl.n	1248 <_i2c_m_sync_transfer+0x60>
    1246:	e21e      	b.n	1686 <_i2c_m_sync_transfer+0x49e>
	msg->flags |= I2C_M_BUSY;
    1248:	4643      	mov	r3, r8
    124a:	885b      	ldrh	r3, [r3, #2]
    124c:	f240 1200 	movw	r2, #256	; 0x100
    1250:	4313      	orrs	r3, r2
    1252:	4642      	mov	r2, r8
    1254:	8053      	strh	r3, [r2, #2]
	i2c_dev->service.msg = *msg;
    1256:	002b      	movs	r3, r5
    1258:	ca43      	ldmia	r2!, {r0, r1, r6}
    125a:	c343      	stmia	r3!, {r0, r1, r6}
	((Sercom *)hw)->I2CM.CTRLB.reg |= SERCOM_I2CM_CTRLB_SMEN;
    125c:	6863      	ldr	r3, [r4, #4]
    125e:	f240 1200 	movw	r2, #256	; 0x100
    1262:	4313      	orrs	r3, r2
    1264:	6063      	str	r3, [r4, #4]
	while (((Sercom *)hw)->I2CM.SYNCBUSY.reg & reg) {
    1266:	3afc      	subs	r2, #252	; 0xfc
    1268:	69e3      	ldr	r3, [r4, #28]
    126a:	421a      	tst	r2, r3
    126c:	d1fc      	bne.n	1268 <_i2c_m_sync_transfer+0x80>
	void *             hw    = i2c_dev->hw;
    126e:	692f      	ldr	r7, [r5, #16]
	tmp = ((Sercom *)hw)->I2CM.CTRLA.reg;
    1270:	683b      	ldr	r3, [r7, #0]
    1272:	4699      	mov	r9, r3
	ASSERT(i2c_dev);
    1274:	f645 2150 	movw	r1, #23120	; 0x5a50
    1278:	f2c0 0100 	movt	r1, #0
    127c:	f240 52a9 	movw	r2, #1449	; 0x5a9
    1280:	9801      	ldr	r0, [sp, #4]
    1282:	f640 534d 	movw	r3, #3405	; 0xd4d
    1286:	f2c0 0300 	movt	r3, #0
    128a:	4798      	blx	r3
	if (msg->len == 1 && sclsm) {
    128c:	686b      	ldr	r3, [r5, #4]
    128e:	2b01      	cmp	r3, #1
    1290:	d05c      	beq.n	134c <_i2c_m_sync_transfer+0x164>
	((Sercom *)hw)->I2CM.CTRLB.reg &= ~SERCOM_I2CM_CTRLB_ACKACT;
    1292:	687b      	ldr	r3, [r7, #4]
    1294:	4ab6      	ldr	r2, [pc, #728]	; (1570 <_i2c_m_sync_transfer+0x388>)
    1296:	4013      	ands	r3, r2
    1298:	607b      	str	r3, [r7, #4]
	while (((Sercom *)hw)->I2CM.SYNCBUSY.reg & reg) {
    129a:	2204      	movs	r2, #4
    129c:	69fb      	ldr	r3, [r7, #28]
    129e:	421a      	tst	r2, r3
    12a0:	d1fc      	bne.n	129c <_i2c_m_sync_transfer+0xb4>
	if (msg->addr & I2C_M_TEN) {
    12a2:	882b      	ldrh	r3, [r5, #0]
    12a4:	055a      	lsls	r2, r3, #21
    12a6:	d55e      	bpl.n	1366 <_i2c_m_sync_transfer+0x17e>
		if (msg->flags & I2C_M_RD) {
    12a8:	886a      	ldrh	r2, [r5, #2]
    12aa:	07d2      	lsls	r2, r2, #31
    12ac:	d504      	bpl.n	12b8 <_i2c_m_sync_transfer+0xd0>
			msg->flags |= I2C_M_TEN;
    12ae:	886a      	ldrh	r2, [r5, #2]
    12b0:	f240 4100 	movw	r1, #1024	; 0x400
    12b4:	430a      	orrs	r2, r1
    12b6:	806a      	strh	r2, [r5, #2]
		                              ((msg->addr & TEN_ADDR_MASK) << 1) | SERCOM_I2CM_ADDR_TENBITEN
    12b8:	005b      	lsls	r3, r3, #1
		                                  | (hri_sercomi2cm_read_ADDR_reg(hw) & SERCOM_I2CM_ADDR_HS));
    12ba:	f240 71fe 	movw	r1, #2046	; 0x7fe
    12be:	4019      	ands	r1, r3
    12c0:	2204      	movs	r2, #4
    12c2:	69fb      	ldr	r3, [r7, #28]
    12c4:	421a      	tst	r2, r3
    12c6:	d1fc      	bne.n	12c2 <_i2c_m_sync_transfer+0xda>
	return ((Sercom *)hw)->I2CM.ADDR.reg;
    12c8:	6a7a      	ldr	r2, [r7, #36]	; 0x24
    12ca:	f244 0300 	movw	r3, #16384	; 0x4000
    12ce:	4013      	ands	r3, r2
		hri_sercomi2cm_write_ADDR_reg(hw,
    12d0:	f248 0200 	movw	r2, #32768	; 0x8000
    12d4:	4313      	orrs	r3, r2
    12d6:	430b      	orrs	r3, r1
	((Sercom *)hw)->I2CM.ADDR.reg = data;
    12d8:	627b      	str	r3, [r7, #36]	; 0x24
	while (((Sercom *)hw)->I2CM.SYNCBUSY.reg & reg) {
    12da:	2204      	movs	r2, #4
    12dc:	69fb      	ldr	r3, [r7, #28]
    12de:	421a      	tst	r2, r3
    12e0:	d1fc      	bne.n	12dc <_i2c_m_sync_transfer+0xf4>
	void *   hw      = i2c_dev->hw;
    12e2:	6929      	ldr	r1, [r5, #16]
	return ((Sercom *)hw)->I2CM.INTFLAG.reg;
    12e4:	7e0b      	ldrb	r3, [r1, #24]
    12e6:	b2db      	uxtb	r3, r3
    12e8:	f64f 72ff 	movw	r2, #65535	; 0xffff
	} while (!(*flags & MB_FLAG) && !(*flags & SB_FLAG));
    12ec:	2003      	movs	r0, #3
    12ee:	4218      	tst	r0, r3
    12f0:	d104      	bne.n	12fc <_i2c_m_sync_transfer+0x114>
    12f2:	7e0b      	ldrb	r3, [r1, #24]
    12f4:	b2db      	uxtb	r3, r3
    12f6:	3a01      	subs	r2, #1
		if (timeout-- == 0) {
    12f8:	2a00      	cmp	r2, #0
    12fa:	d1f8      	bne.n	12ee <_i2c_m_sync_transfer+0x106>
	tmp = ((Sercom *)hw)->I2CM.CTRLA.reg;
    12fc:	683e      	ldr	r6, [r7, #0]
	while (((Sercom *)hw)->I2CM.SYNCBUSY.reg & reg) {
    12fe:	2104      	movs	r1, #4
    1300:	69fa      	ldr	r2, [r7, #28]
    1302:	4211      	tst	r1, r2
    1304:	d1fc      	bne.n	1300 <_i2c_m_sync_transfer+0x118>
	return ((Sercom *)hw)->I2CM.STATUS.reg;
    1306:	8b7a      	ldrh	r2, [r7, #26]
    1308:	b292      	uxth	r2, r2
	if (flags & MB_FLAG) {
    130a:	07d9      	lsls	r1, r3, #31
    130c:	d400      	bmi.n	1310 <_i2c_m_sync_transfer+0x128>
    130e:	e09f      	b.n	1450 <_i2c_m_sync_transfer+0x268>
		if (status & SERCOM_I2CM_STATUS_ARBLOST) {
    1310:	0793      	lsls	r3, r2, #30
    1312:	d53e      	bpl.n	1392 <_i2c_m_sync_transfer+0x1aa>
	((Sercom *)hw)->I2CM.INTFLAG.reg = SERCOM_I2CM_INTFLAG_MB;
    1314:	2301      	movs	r3, #1
    1316:	763b      	strb	r3, [r7, #24]
			msg->flags |= I2C_M_FAIL;
    1318:	886b      	ldrh	r3, [r5, #2]
    131a:	f241 0100 	movw	r1, #4096	; 0x1000
    131e:	430b      	orrs	r3, r1
    1320:	806b      	strh	r3, [r5, #2]
			msg->flags &= ~I2C_M_BUSY;
    1322:	886b      	ldrh	r3, [r5, #2]
    1324:	4993      	ldr	r1, [pc, #588]	; (1574 <_i2c_m_sync_transfer+0x38c>)
    1326:	400b      	ands	r3, r1
    1328:	806b      	strh	r3, [r5, #2]
			if (status & SERCOM_I2CM_STATUS_BUSERR) {
    132a:	2001      	movs	r0, #1
    132c:	0003      	movs	r3, r0
    132e:	4013      	ands	r3, r2
			return I2C_ERR_BAD_ADDRESS;
    1330:	4258      	negs	r0, r3
    1332:	4158      	adcs	r0, r3
    1334:	3805      	subs	r0, #5
		i2c_dev->service.msg.flags &= ~I2C_M_BUSY;
    1336:	886b      	ldrh	r3, [r5, #2]
    1338:	4a8e      	ldr	r2, [pc, #568]	; (1574 <_i2c_m_sync_transfer+0x38c>)
    133a:	4013      	ands	r3, r2
    133c:	806b      	strh	r3, [r5, #2]
}
    133e:	b003      	add	sp, #12
    1340:	bc3c      	pop	{r2, r3, r4, r5}
    1342:	4690      	mov	r8, r2
    1344:	4699      	mov	r9, r3
    1346:	46a2      	mov	sl, r4
    1348:	46ab      	mov	fp, r5
    134a:	bdf0      	pop	{r4, r5, r6, r7, pc}
	if (msg->len == 1 && sclsm) {
    134c:	464b      	mov	r3, r9
    134e:	011b      	lsls	r3, r3, #4
    1350:	d59f      	bpl.n	1292 <_i2c_m_sync_transfer+0xaa>
	((Sercom *)hw)->I2CM.CTRLB.reg |= SERCOM_I2CM_CTRLB_ACKACT;
    1352:	687a      	ldr	r2, [r7, #4]
    1354:	2380      	movs	r3, #128	; 0x80
    1356:	02db      	lsls	r3, r3, #11
    1358:	4313      	orrs	r3, r2
    135a:	607b      	str	r3, [r7, #4]
	while (((Sercom *)hw)->I2CM.SYNCBUSY.reg & reg) {
    135c:	2204      	movs	r2, #4
    135e:	69fb      	ldr	r3, [r7, #28]
    1360:	421a      	tst	r2, r3
    1362:	d1fc      	bne.n	135e <_i2c_m_sync_transfer+0x176>
    1364:	e79d      	b.n	12a2 <_i2c_m_sync_transfer+0xba>
		                              ((msg->addr & SEVEN_ADDR_MASK) << 1) | (msg->flags & I2C_M_RD ? I2C_M_RD : 0x0)
    1366:	886a      	ldrh	r2, [r5, #2]
    1368:	005b      	lsls	r3, r3, #1
    136a:	21ff      	movs	r1, #255	; 0xff
    136c:	400b      	ands	r3, r1
    136e:	39fe      	subs	r1, #254	; 0xfe
    1370:	4011      	ands	r1, r2
    1372:	4319      	orrs	r1, r3
    1374:	2204      	movs	r2, #4
    1376:	69fb      	ldr	r3, [r7, #28]
    1378:	421a      	tst	r2, r3
    137a:	d1fc      	bne.n	1376 <_i2c_m_sync_transfer+0x18e>
	return ((Sercom *)hw)->I2CM.ADDR.reg;
    137c:	6a7a      	ldr	r2, [r7, #36]	; 0x24
		                                  | (hri_sercomi2cm_read_ADDR_reg(hw) & SERCOM_I2CM_ADDR_HS));
    137e:	f244 0300 	movw	r3, #16384	; 0x4000
    1382:	4013      	ands	r3, r2
		hri_sercomi2cm_write_ADDR_reg(hw,
    1384:	430b      	orrs	r3, r1
	((Sercom *)hw)->I2CM.ADDR.reg = data;
    1386:	627b      	str	r3, [r7, #36]	; 0x24
	while (((Sercom *)hw)->I2CM.SYNCBUSY.reg & reg) {
    1388:	2204      	movs	r2, #4
    138a:	69fb      	ldr	r3, [r7, #28]
    138c:	421a      	tst	r2, r3
    138e:	d1fc      	bne.n	138a <_i2c_m_sync_transfer+0x1a2>
    1390:	e7a7      	b.n	12e2 <_i2c_m_sync_transfer+0xfa>
			if (status & SERCOM_I2CM_STATUS_RXNACK) {
    1392:	0753      	lsls	r3, r2, #29
    1394:	d41b      	bmi.n	13ce <_i2c_m_sync_transfer+0x1e6>
			if (msg->flags & I2C_M_TEN) {
    1396:	886b      	ldrh	r3, [r5, #2]
    1398:	055b      	lsls	r3, r3, #21
    139a:	d535      	bpl.n	1408 <_i2c_m_sync_transfer+0x220>
				                              ((((msg->addr & TEN_ADDR_MASK) >> 8) | TEN_ADDR_FRAME) << 1) | I2C_M_RD
    139c:	882b      	ldrh	r3, [r5, #0]
    139e:	09db      	lsrs	r3, r3, #7
				                                  | (hri_sercomi2cm_read_ADDR_reg(hw) & SERCOM_I2CM_ADDR_HS));
    13a0:	2106      	movs	r1, #6
    13a2:	4019      	ands	r1, r3
    13a4:	2204      	movs	r2, #4
    13a6:	69fb      	ldr	r3, [r7, #28]
    13a8:	421a      	tst	r2, r3
    13aa:	d1fc      	bne.n	13a6 <_i2c_m_sync_transfer+0x1be>
	return ((Sercom *)hw)->I2CM.ADDR.reg;
    13ac:	6a7a      	ldr	r2, [r7, #36]	; 0x24
    13ae:	f244 0300 	movw	r3, #16384	; 0x4000
    13b2:	4013      	ands	r3, r2
				hri_sercomi2cm_write_ADDR_reg(hw,
    13b4:	22f1      	movs	r2, #241	; 0xf1
    13b6:	4313      	orrs	r3, r2
    13b8:	430b      	orrs	r3, r1
	((Sercom *)hw)->I2CM.ADDR.reg = data;
    13ba:	627b      	str	r3, [r7, #36]	; 0x24
	while (((Sercom *)hw)->I2CM.SYNCBUSY.reg & reg) {
    13bc:	3aed      	subs	r2, #237	; 0xed
    13be:	69fb      	ldr	r3, [r7, #28]
    13c0:	421a      	tst	r2, r3
    13c2:	d1fc      	bne.n	13be <_i2c_m_sync_transfer+0x1d6>
				msg->flags &= ~I2C_M_TEN;
    13c4:	886b      	ldrh	r3, [r5, #2]
    13c6:	4a6c      	ldr	r2, [pc, #432]	; (1578 <_i2c_m_sync_transfer+0x390>)
    13c8:	4013      	ands	r3, r2
    13ca:	806b      	strh	r3, [r5, #2]
    13cc:	e065      	b.n	149a <_i2c_m_sync_transfer+0x2b2>
				if (msg->len > 0) {
    13ce:	686b      	ldr	r3, [r5, #4]
    13d0:	2b00      	cmp	r3, #0
    13d2:	dd04      	ble.n	13de <_i2c_m_sync_transfer+0x1f6>
					msg->flags |= I2C_M_FAIL;
    13d4:	886b      	ldrh	r3, [r5, #2]
    13d6:	f241 0200 	movw	r2, #4096	; 0x1000
    13da:	4313      	orrs	r3, r2
    13dc:	806b      	strh	r3, [r5, #2]
				if (msg->flags & I2C_M_STOP) {
    13de:	886b      	ldrh	r3, [r5, #2]
    13e0:	b21b      	sxth	r3, r3
    13e2:	2b00      	cmp	r3, #0
    13e4:	db06      	blt.n	13f4 <_i2c_m_sync_transfer+0x20c>
				msg->flags &= ~I2C_M_BUSY;
    13e6:	886b      	ldrh	r3, [r5, #2]
    13e8:	4a62      	ldr	r2, [pc, #392]	; (1574 <_i2c_m_sync_transfer+0x38c>)
    13ea:	4013      	ands	r3, r2
    13ec:	806b      	strh	r3, [r5, #2]
				return I2C_NACK;
    13ee:	2002      	movs	r0, #2
    13f0:	4240      	negs	r0, r0
    13f2:	e7a0      	b.n	1336 <_i2c_m_sync_transfer+0x14e>
	((Sercom *)hw)->I2CM.CTRLB.reg |= SERCOM_I2CM_CTRLB_CMD(mask);
    13f4:	687a      	ldr	r2, [r7, #4]
    13f6:	23c0      	movs	r3, #192	; 0xc0
    13f8:	029b      	lsls	r3, r3, #10
    13fa:	4313      	orrs	r3, r2
    13fc:	607b      	str	r3, [r7, #4]
	while (((Sercom *)hw)->I2CM.SYNCBUSY.reg & reg) {
    13fe:	2304      	movs	r3, #4
    1400:	69fa      	ldr	r2, [r7, #28]
    1402:	4213      	tst	r3, r2
    1404:	d1fc      	bne.n	1400 <_i2c_m_sync_transfer+0x218>
    1406:	e7ee      	b.n	13e6 <_i2c_m_sync_transfer+0x1fe>
			if (msg->len == 0) {
    1408:	686b      	ldr	r3, [r5, #4]
    140a:	b993      	cbnz	r3, 1432 <_i2c_m_sync_transfer+0x24a>
				if (msg->flags & I2C_M_STOP) {
    140c:	886b      	ldrh	r3, [r5, #2]
    140e:	b21b      	sxth	r3, r3
    1410:	2b00      	cmp	r3, #0
    1412:	db04      	blt.n	141e <_i2c_m_sync_transfer+0x236>
				msg->flags &= ~I2C_M_BUSY;
    1414:	886b      	ldrh	r3, [r5, #2]
    1416:	4a57      	ldr	r2, [pc, #348]	; (1574 <_i2c_m_sync_transfer+0x38c>)
    1418:	4013      	ands	r3, r2
    141a:	806b      	strh	r3, [r5, #2]
    141c:	e03d      	b.n	149a <_i2c_m_sync_transfer+0x2b2>
	((Sercom *)hw)->I2CM.CTRLB.reg |= SERCOM_I2CM_CTRLB_CMD(mask);
    141e:	687a      	ldr	r2, [r7, #4]
    1420:	23c0      	movs	r3, #192	; 0xc0
    1422:	029b      	lsls	r3, r3, #10
    1424:	4313      	orrs	r3, r2
    1426:	607b      	str	r3, [r7, #4]
	while (((Sercom *)hw)->I2CM.SYNCBUSY.reg & reg) {
    1428:	2204      	movs	r2, #4
    142a:	69fb      	ldr	r3, [r7, #28]
    142c:	421a      	tst	r2, r3
    142e:	d1fc      	bne.n	142a <_i2c_m_sync_transfer+0x242>
    1430:	e7f0      	b.n	1414 <_i2c_m_sync_transfer+0x22c>
				hri_sercomi2cm_write_DATA_reg(hw, *msg->buffer);
    1432:	68ab      	ldr	r3, [r5, #8]
    1434:	781a      	ldrb	r2, [r3, #0]
	((Sercom *)hw)->I2CM.DATA.reg = data;
    1436:	2328      	movs	r3, #40	; 0x28
    1438:	54fa      	strb	r2, [r7, r3]
	while (((Sercom *)hw)->I2CM.SYNCBUSY.reg & reg) {
    143a:	2204      	movs	r2, #4
    143c:	69fb      	ldr	r3, [r7, #28]
    143e:	421a      	tst	r2, r3
    1440:	d1fc      	bne.n	143c <_i2c_m_sync_transfer+0x254>
				msg->buffer++;
    1442:	68ab      	ldr	r3, [r5, #8]
    1444:	3301      	adds	r3, #1
    1446:	60ab      	str	r3, [r5, #8]
				msg->len--;
    1448:	686b      	ldr	r3, [r5, #4]
    144a:	3b01      	subs	r3, #1
    144c:	606b      	str	r3, [r5, #4]
    144e:	e024      	b.n	149a <_i2c_m_sync_transfer+0x2b2>
	} else if (flags & SB_FLAG) {
    1450:	079b      	lsls	r3, r3, #30
    1452:	d522      	bpl.n	149a <_i2c_m_sync_transfer+0x2b2>
		if ((msg->len) && !(status & SERCOM_I2CM_STATUS_RXNACK)) {
    1454:	686b      	ldr	r3, [r5, #4]
    1456:	2b00      	cmp	r3, #0
    1458:	d03f      	beq.n	14da <_i2c_m_sync_transfer+0x2f2>
    145a:	0752      	lsls	r2, r2, #29
    145c:	d43d      	bmi.n	14da <_i2c_m_sync_transfer+0x2f2>
	tmp = (tmp & SERCOM_I2CM_CTRLA_SCLSM) >> SERCOM_I2CM_CTRLA_SCLSM_Pos;
    145e:	0136      	lsls	r6, r6, #4
    1460:	0ff6      	lsrs	r6, r6, #31
			msg->len--;
    1462:	3b01      	subs	r3, #1
    1464:	606b      	str	r3, [r5, #4]
			if ((msg->len == 0 && !sclsm) || (msg->len == 1 && sclsm)) {
    1466:	2b00      	cmp	r3, #0
    1468:	d000      	beq.n	146c <_i2c_m_sync_transfer+0x284>
    146a:	e10f      	b.n	168c <_i2c_m_sync_transfer+0x4a4>
    146c:	2e00      	cmp	r6, #0
    146e:	d100      	bne.n	1472 <_i2c_m_sync_transfer+0x28a>
    1470:	e112      	b.n	1698 <_i2c_m_sync_transfer+0x4b0>
				if (msg->flags & I2C_M_STOP) {
    1472:	886b      	ldrh	r3, [r5, #2]
    1474:	b21b      	sxth	r3, r3
    1476:	2b00      	cmp	r3, #0
    1478:	db1c      	blt.n	14b4 <_i2c_m_sync_transfer+0x2cc>
				msg->flags &= ~I2C_M_BUSY;
    147a:	886b      	ldrh	r3, [r5, #2]
    147c:	4a3d      	ldr	r2, [pc, #244]	; (1574 <_i2c_m_sync_transfer+0x38c>)
    147e:	4013      	ands	r3, r2
    1480:	806b      	strh	r3, [r5, #2]
			*msg->buffer++ = hri_sercomi2cm_read_DATA_reg(hw);
    1482:	68a9      	ldr	r1, [r5, #8]
    1484:	1c4b      	adds	r3, r1, #1
    1486:	60ab      	str	r3, [r5, #8]
	while (((Sercom *)hw)->I2CM.SYNCBUSY.reg & reg) {
    1488:	2204      	movs	r2, #4
    148a:	69fb      	ldr	r3, [r7, #28]
    148c:	421a      	tst	r2, r3
    148e:	d1fc      	bne.n	148a <_i2c_m_sync_transfer+0x2a2>
	return ((Sercom *)hw)->I2CM.DATA.reg;
    1490:	2328      	movs	r3, #40	; 0x28
    1492:	5cfb      	ldrb	r3, [r7, r3]
    1494:	700b      	strb	r3, [r1, #0]
	((Sercom *)hw)->I2CM.INTFLAG.reg = SERCOM_I2CM_INTFLAG_SB;
    1496:	2302      	movs	r3, #2
    1498:	763b      	strb	r3, [r7, #24]
			return I2C_NACK;
    149a:	2300      	movs	r3, #0
    149c:	9301      	str	r3, [sp, #4]
	while (i2c_dev->service.msg.flags & I2C_M_BUSY) {
    149e:	f240 1a00 	movw	sl, #256	; 0x100
	} while (!(*flags & MB_FLAG) && !(*flags & SB_FLAG));
    14a2:	2103      	movs	r1, #3
	while (((Sercom *)hw)->I2CM.SYNCBUSY.reg & reg) {
    14a4:	2204      	movs	r2, #4
	if (flags & MB_FLAG) {
    14a6:	f240 0c01 	movw	ip, #1
	} else if (flags & SB_FLAG) {
    14aa:	f240 0902 	movw	r9, #2
	return ((Sercom *)hw)->I2CM.DATA.reg;
    14ae:	f240 0b28 	movw	fp, #40	; 0x28
    14b2:	e0b3      	b.n	161c <_i2c_m_sync_transfer+0x434>
	((Sercom *)hw)->I2CM.CTRLB.reg &= ~SERCOM_I2CM_CTRLB_SMEN;
    14b4:	687b      	ldr	r3, [r7, #4]
    14b6:	4a2f      	ldr	r2, [pc, #188]	; (1574 <_i2c_m_sync_transfer+0x38c>)
    14b8:	4013      	ands	r3, r2
    14ba:	607b      	str	r3, [r7, #4]
	while (((Sercom *)hw)->I2CM.SYNCBUSY.reg & reg) {
    14bc:	3206      	adds	r2, #6
    14be:	32ff      	adds	r2, #255	; 0xff
    14c0:	69fb      	ldr	r3, [r7, #28]
    14c2:	421a      	tst	r2, r3
    14c4:	d1fc      	bne.n	14c0 <_i2c_m_sync_transfer+0x2d8>
	((Sercom *)hw)->I2CM.CTRLB.reg |= SERCOM_I2CM_CTRLB_CMD(mask);
    14c6:	687a      	ldr	r2, [r7, #4]
    14c8:	23c0      	movs	r3, #192	; 0xc0
    14ca:	029b      	lsls	r3, r3, #10
    14cc:	4313      	orrs	r3, r2
    14ce:	607b      	str	r3, [r7, #4]
	while (((Sercom *)hw)->I2CM.SYNCBUSY.reg & reg) {
    14d0:	2204      	movs	r2, #4
    14d2:	69fb      	ldr	r3, [r7, #28]
    14d4:	421a      	tst	r2, r3
    14d6:	d1fc      	bne.n	14d2 <_i2c_m_sync_transfer+0x2ea>
    14d8:	e7cf      	b.n	147a <_i2c_m_sync_transfer+0x292>
	((Sercom *)hw)->I2CM.INTFLAG.reg = SERCOM_I2CM_INTFLAG_SB;
    14da:	2302      	movs	r3, #2
    14dc:	763b      	strb	r3, [r7, #24]
			return I2C_NACK;
    14de:	2002      	movs	r0, #2
    14e0:	4240      	negs	r0, r0
    14e2:	e728      	b.n	1336 <_i2c_m_sync_transfer+0x14e>
	((Sercom *)hw)->I2CM.CTRLB.reg |= SERCOM_I2CM_CTRLB_CMD(mask);
    14e4:	6862      	ldr	r2, [r4, #4]
    14e6:	23c0      	movs	r3, #192	; 0xc0
    14e8:	029b      	lsls	r3, r3, #10
    14ea:	4313      	orrs	r3, r2
    14ec:	6063      	str	r3, [r4, #4]
	while (((Sercom *)hw)->I2CM.SYNCBUSY.reg & reg) {
    14ee:	2204      	movs	r2, #4
    14f0:	69e3      	ldr	r3, [r4, #28]
    14f2:	421a      	tst	r2, r3
    14f4:	d1fc      	bne.n	14f0 <_i2c_m_sync_transfer+0x308>
    14f6:	e0a7      	b.n	1648 <_i2c_m_sync_transfer+0x460>
			if (status & SERCOM_I2CM_STATUS_RXNACK) {
    14f8:	4202      	tst	r2, r0
    14fa:	d11b      	bne.n	1534 <_i2c_m_sync_transfer+0x34c>
			if (msg->flags & I2C_M_TEN) {
    14fc:	886b      	ldrh	r3, [r5, #2]
    14fe:	055b      	lsls	r3, r3, #21
    1500:	d53c      	bpl.n	157c <_i2c_m_sync_transfer+0x394>
				                              ((((msg->addr & TEN_ADDR_MASK) >> 8) | TEN_ADDR_FRAME) << 1) | I2C_M_RD
    1502:	882b      	ldrh	r3, [r5, #0]
    1504:	09db      	lsrs	r3, r3, #7
				                                  | (hri_sercomi2cm_read_ADDR_reg(hw) & SERCOM_I2CM_ADDR_HS));
    1506:	2006      	movs	r0, #6
    1508:	4018      	ands	r0, r3
    150a:	69e3      	ldr	r3, [r4, #28]
    150c:	421a      	tst	r2, r3
    150e:	d1fc      	bne.n	150a <_i2c_m_sync_transfer+0x322>
	return ((Sercom *)hw)->I2CM.ADDR.reg;
    1510:	6a66      	ldr	r6, [r4, #36]	; 0x24
    1512:	f244 0300 	movw	r3, #16384	; 0x4000
    1516:	4033      	ands	r3, r6
				hri_sercomi2cm_write_ADDR_reg(hw,
    1518:	26f1      	movs	r6, #241	; 0xf1
    151a:	4333      	orrs	r3, r6
    151c:	4303      	orrs	r3, r0
	((Sercom *)hw)->I2CM.ADDR.reg = data;
    151e:	6263      	str	r3, [r4, #36]	; 0x24
	while (((Sercom *)hw)->I2CM.SYNCBUSY.reg & reg) {
    1520:	69e3      	ldr	r3, [r4, #28]
    1522:	421a      	tst	r2, r3
    1524:	d1fc      	bne.n	1520 <_i2c_m_sync_transfer+0x338>
				msg->flags &= ~I2C_M_TEN;
    1526:	886b      	ldrh	r3, [r5, #2]
    1528:	4813      	ldr	r0, [pc, #76]	; (1578 <_i2c_m_sync_transfer+0x390>)
    152a:	4003      	ands	r3, r0
    152c:	806b      	strh	r3, [r5, #2]
				return I2C_OK;
    152e:	2300      	movs	r3, #0
    1530:	9301      	str	r3, [sp, #4]
    1532:	e073      	b.n	161c <_i2c_m_sync_transfer+0x434>
				if (msg->len > 0) {
    1534:	686b      	ldr	r3, [r5, #4]
    1536:	2b00      	cmp	r3, #0
    1538:	dd04      	ble.n	1544 <_i2c_m_sync_transfer+0x35c>
					msg->flags |= I2C_M_FAIL;
    153a:	886b      	ldrh	r3, [r5, #2]
    153c:	f241 0000 	movw	r0, #4096	; 0x1000
    1540:	4303      	orrs	r3, r0
    1542:	806b      	strh	r3, [r5, #2]
				if (msg->flags & I2C_M_STOP) {
    1544:	886b      	ldrh	r3, [r5, #2]
    1546:	b21b      	sxth	r3, r3
    1548:	2b00      	cmp	r3, #0
    154a:	db07      	blt.n	155c <_i2c_m_sync_transfer+0x374>
				msg->flags &= ~I2C_M_BUSY;
    154c:	886b      	ldrh	r3, [r5, #2]
    154e:	4809      	ldr	r0, [pc, #36]	; (1574 <_i2c_m_sync_transfer+0x38c>)
    1550:	4003      	ands	r3, r0
    1552:	806b      	strh	r3, [r5, #2]
				return I2C_NACK;
    1554:	2302      	movs	r3, #2
    1556:	425b      	negs	r3, r3
    1558:	9301      	str	r3, [sp, #4]
    155a:	e05f      	b.n	161c <_i2c_m_sync_transfer+0x434>
	((Sercom *)hw)->I2CM.CTRLB.reg |= SERCOM_I2CM_CTRLB_CMD(mask);
    155c:	6860      	ldr	r0, [r4, #4]
    155e:	23c0      	movs	r3, #192	; 0xc0
    1560:	029b      	lsls	r3, r3, #10
    1562:	4303      	orrs	r3, r0
    1564:	6063      	str	r3, [r4, #4]
	while (((Sercom *)hw)->I2CM.SYNCBUSY.reg & reg) {
    1566:	69e3      	ldr	r3, [r4, #28]
    1568:	421a      	tst	r2, r3
    156a:	d1fc      	bne.n	1566 <_i2c_m_sync_transfer+0x37e>
    156c:	e7ee      	b.n	154c <_i2c_m_sync_transfer+0x364>
    156e:	46c0      	nop			; (mov r8, r8)
    1570:	fffbffff 	.word	0xfffbffff
    1574:	fffffeff 	.word	0xfffffeff
    1578:	fffffbff 	.word	0xfffffbff
			if (msg->len == 0) {
    157c:	686b      	ldr	r3, [r5, #4]
    157e:	b99b      	cbnz	r3, 15a8 <_i2c_m_sync_transfer+0x3c0>
				if (msg->flags & I2C_M_STOP) {
    1580:	886b      	ldrh	r3, [r5, #2]
    1582:	b21b      	sxth	r3, r3
    1584:	2b00      	cmp	r3, #0
    1586:	db06      	blt.n	1596 <_i2c_m_sync_transfer+0x3ae>
				msg->flags &= ~I2C_M_BUSY;
    1588:	886b      	ldrh	r3, [r5, #2]
    158a:	4863      	ldr	r0, [pc, #396]	; (1718 <_i2c_m_sync_transfer+0x530>)
    158c:	4003      	ands	r3, r0
    158e:	806b      	strh	r3, [r5, #2]
			return I2C_OK;
    1590:	2300      	movs	r3, #0
    1592:	9301      	str	r3, [sp, #4]
    1594:	e042      	b.n	161c <_i2c_m_sync_transfer+0x434>
	((Sercom *)hw)->I2CM.CTRLB.reg |= SERCOM_I2CM_CTRLB_CMD(mask);
    1596:	6860      	ldr	r0, [r4, #4]
    1598:	23c0      	movs	r3, #192	; 0xc0
    159a:	029b      	lsls	r3, r3, #10
    159c:	4303      	orrs	r3, r0
    159e:	6063      	str	r3, [r4, #4]
	while (((Sercom *)hw)->I2CM.SYNCBUSY.reg & reg) {
    15a0:	69e3      	ldr	r3, [r4, #28]
    15a2:	421a      	tst	r2, r3
    15a4:	d1fc      	bne.n	15a0 <_i2c_m_sync_transfer+0x3b8>
    15a6:	e7ef      	b.n	1588 <_i2c_m_sync_transfer+0x3a0>
				hri_sercomi2cm_write_DATA_reg(hw, *msg->buffer);
    15a8:	68ab      	ldr	r3, [r5, #8]
    15aa:	781b      	ldrb	r3, [r3, #0]
	((Sercom *)hw)->I2CM.DATA.reg = data;
    15ac:	4658      	mov	r0, fp
    15ae:	5423      	strb	r3, [r4, r0]
	while (((Sercom *)hw)->I2CM.SYNCBUSY.reg & reg) {
    15b0:	69e3      	ldr	r3, [r4, #28]
    15b2:	421a      	tst	r2, r3
    15b4:	d1fc      	bne.n	15b0 <_i2c_m_sync_transfer+0x3c8>
				msg->buffer++;
    15b6:	68ab      	ldr	r3, [r5, #8]
    15b8:	3301      	adds	r3, #1
    15ba:	60ab      	str	r3, [r5, #8]
				msg->len--;
    15bc:	686b      	ldr	r3, [r5, #4]
    15be:	3b01      	subs	r3, #1
    15c0:	606b      	str	r3, [r5, #4]
			return I2C_OK;
    15c2:	2300      	movs	r3, #0
    15c4:	9301      	str	r3, [sp, #4]
    15c6:	e029      	b.n	161c <_i2c_m_sync_transfer+0x434>
	return I2C_OK;
    15c8:	2700      	movs	r7, #0
    15ca:	9701      	str	r7, [sp, #4]
	} else if (flags & SB_FLAG) {
    15cc:	464f      	mov	r7, r9
    15ce:	421f      	tst	r7, r3
    15d0:	d024      	beq.n	161c <_i2c_m_sync_transfer+0x434>
		if ((msg->len) && !(status & SERCOM_I2CM_STATUS_RXNACK)) {
    15d2:	686b      	ldr	r3, [r5, #4]
    15d4:	2b00      	cmp	r3, #0
    15d6:	d04e      	beq.n	1676 <_i2c_m_sync_transfer+0x48e>
    15d8:	4202      	tst	r2, r0
    15da:	d14c      	bne.n	1676 <_i2c_m_sync_transfer+0x48e>
	tmp = (tmp & SERCOM_I2CM_CTRLA_SCLSM) >> SERCOM_I2CM_CTRLA_SCLSM_Pos;
    15dc:	0ef6      	lsrs	r6, r6, #27
    15de:	4660      	mov	r0, ip
    15e0:	4006      	ands	r6, r0
			msg->len--;
    15e2:	3b01      	subs	r3, #1
    15e4:	606b      	str	r3, [r5, #4]
			if ((msg->len == 0 && !sclsm) || (msg->len == 1 && sclsm)) {
    15e6:	2b00      	cmp	r3, #0
    15e8:	d000      	beq.n	15ec <_i2c_m_sync_transfer+0x404>
    15ea:	e082      	b.n	16f2 <_i2c_m_sync_transfer+0x50a>
    15ec:	2e00      	cmp	r6, #0
    15ee:	d100      	bne.n	15f2 <_i2c_m_sync_transfer+0x40a>
    15f0:	e085      	b.n	16fe <_i2c_m_sync_transfer+0x516>
				if (msg->flags & I2C_M_STOP) {
    15f2:	886b      	ldrh	r3, [r5, #2]
    15f4:	b21b      	sxth	r3, r3
    15f6:	2b00      	cmp	r3, #0
    15f8:	db2d      	blt.n	1656 <_i2c_m_sync_transfer+0x46e>
				msg->flags &= ~I2C_M_BUSY;
    15fa:	886b      	ldrh	r3, [r5, #2]
    15fc:	4846      	ldr	r0, [pc, #280]	; (1718 <_i2c_m_sync_transfer+0x530>)
    15fe:	4003      	ands	r3, r0
    1600:	806b      	strh	r3, [r5, #2]
			*msg->buffer++ = hri_sercomi2cm_read_DATA_reg(hw);
    1602:	68a8      	ldr	r0, [r5, #8]
    1604:	1c43      	adds	r3, r0, #1
    1606:	60ab      	str	r3, [r5, #8]
	while (((Sercom *)hw)->I2CM.SYNCBUSY.reg & reg) {
    1608:	69e3      	ldr	r3, [r4, #28]
    160a:	421a      	tst	r2, r3
    160c:	d1fc      	bne.n	1608 <_i2c_m_sync_transfer+0x420>
	return ((Sercom *)hw)->I2CM.DATA.reg;
    160e:	465b      	mov	r3, fp
    1610:	5ce3      	ldrb	r3, [r4, r3]
    1612:	7003      	strb	r3, [r0, #0]
	((Sercom *)hw)->I2CM.INTFLAG.reg = SERCOM_I2CM_INTFLAG_SB;
    1614:	464b      	mov	r3, r9
    1616:	7623      	strb	r3, [r4, #24]
	return I2C_OK;
    1618:	2300      	movs	r3, #0
    161a:	9301      	str	r3, [sp, #4]
	while (i2c_dev->service.msg.flags & I2C_M_BUSY) {
    161c:	886b      	ldrh	r3, [r5, #2]
    161e:	4650      	mov	r0, sl
    1620:	4203      	tst	r3, r0
    1622:	d02e      	beq.n	1682 <_i2c_m_sync_transfer+0x49a>
	void *   hw      = i2c_dev->hw;
    1624:	692e      	ldr	r6, [r5, #16]
	return ((Sercom *)hw)->I2CM.INTFLAG.reg;
    1626:	7e33      	ldrb	r3, [r6, #24]
    1628:	b2db      	uxtb	r3, r3
    162a:	f64f 70ff 	movw	r0, #65535	; 0xffff
	} while (!(*flags & MB_FLAG) && !(*flags & SB_FLAG));
    162e:	4219      	tst	r1, r3
    1630:	d140      	bne.n	16b4 <_i2c_m_sync_transfer+0x4cc>
    1632:	7e33      	ldrb	r3, [r6, #24]
    1634:	b2db      	uxtb	r3, r3
    1636:	3801      	subs	r0, #1
		if (timeout-- == 0) {
    1638:	2800      	cmp	r0, #0
    163a:	d1f8      	bne.n	162e <_i2c_m_sync_transfer+0x446>
			if (msg->flags & I2C_M_STOP) {
    163c:	4643      	mov	r3, r8
    163e:	885b      	ldrh	r3, [r3, #2]
    1640:	b21b      	sxth	r3, r3
    1642:	2b00      	cmp	r3, #0
    1644:	da00      	bge.n	1648 <_i2c_m_sync_transfer+0x460>
    1646:	e74d      	b.n	14e4 <_i2c_m_sync_transfer+0x2fc>
			i2c_dev->service.msg.flags &= ~I2C_M_BUSY;
    1648:	886b      	ldrh	r3, [r5, #2]
    164a:	4a33      	ldr	r2, [pc, #204]	; (1718 <_i2c_m_sync_transfer+0x530>)
    164c:	4013      	ands	r3, r2
    164e:	806b      	strh	r3, [r5, #2]
			return I2C_ERR_BUS;
    1650:	2005      	movs	r0, #5
    1652:	4240      	negs	r0, r0
			return ret;
    1654:	e673      	b.n	133e <_i2c_m_sync_transfer+0x156>
	((Sercom *)hw)->I2CM.CTRLB.reg &= ~SERCOM_I2CM_CTRLB_SMEN;
    1656:	6863      	ldr	r3, [r4, #4]
    1658:	482f      	ldr	r0, [pc, #188]	; (1718 <_i2c_m_sync_transfer+0x530>)
    165a:	4003      	ands	r3, r0
    165c:	6063      	str	r3, [r4, #4]
	while (((Sercom *)hw)->I2CM.SYNCBUSY.reg & reg) {
    165e:	69e3      	ldr	r3, [r4, #28]
    1660:	421a      	tst	r2, r3
    1662:	d1fc      	bne.n	165e <_i2c_m_sync_transfer+0x476>
	((Sercom *)hw)->I2CM.CTRLB.reg |= SERCOM_I2CM_CTRLB_CMD(mask);
    1664:	6860      	ldr	r0, [r4, #4]
    1666:	23c0      	movs	r3, #192	; 0xc0
    1668:	029b      	lsls	r3, r3, #10
    166a:	4303      	orrs	r3, r0
    166c:	6063      	str	r3, [r4, #4]
	while (((Sercom *)hw)->I2CM.SYNCBUSY.reg & reg) {
    166e:	69e3      	ldr	r3, [r4, #28]
    1670:	421a      	tst	r2, r3
    1672:	d1fc      	bne.n	166e <_i2c_m_sync_transfer+0x486>
    1674:	e7c1      	b.n	15fa <_i2c_m_sync_transfer+0x412>
	((Sercom *)hw)->I2CM.INTFLAG.reg = SERCOM_I2CM_INTFLAG_SB;
    1676:	464b      	mov	r3, r9
    1678:	7623      	strb	r3, [r4, #24]
			return I2C_NACK;
    167a:	2302      	movs	r3, #2
    167c:	425b      	negs	r3, r3
    167e:	9301      	str	r3, [sp, #4]
    1680:	e7cc      	b.n	161c <_i2c_m_sync_transfer+0x434>
    1682:	9801      	ldr	r0, [sp, #4]
    1684:	e65b      	b.n	133e <_i2c_m_sync_transfer+0x156>
		return I2C_ERR_BUSY;
    1686:	2006      	movs	r0, #6
    1688:	4240      	negs	r0, r0
    168a:	e658      	b.n	133e <_i2c_m_sync_transfer+0x156>
			if ((msg->len == 0 && !sclsm) || (msg->len == 1 && sclsm)) {
    168c:	2b01      	cmp	r3, #1
    168e:	d000      	beq.n	1692 <_i2c_m_sync_transfer+0x4aa>
    1690:	e6f7      	b.n	1482 <_i2c_m_sync_transfer+0x29a>
    1692:	2e00      	cmp	r6, #0
    1694:	d100      	bne.n	1698 <_i2c_m_sync_transfer+0x4b0>
    1696:	e6f4      	b.n	1482 <_i2c_m_sync_transfer+0x29a>
	((Sercom *)hw)->I2CM.CTRLB.reg |= SERCOM_I2CM_CTRLB_ACKACT;
    1698:	687a      	ldr	r2, [r7, #4]
    169a:	2380      	movs	r3, #128	; 0x80
    169c:	02db      	lsls	r3, r3, #11
    169e:	4313      	orrs	r3, r2
    16a0:	607b      	str	r3, [r7, #4]
	while (((Sercom *)hw)->I2CM.SYNCBUSY.reg & reg) {
    16a2:	2204      	movs	r2, #4
    16a4:	69fb      	ldr	r3, [r7, #28]
    16a6:	421a      	tst	r2, r3
    16a8:	d1fc      	bne.n	16a4 <_i2c_m_sync_transfer+0x4bc>
			if (msg->len == 0) {
    16aa:	686b      	ldr	r3, [r5, #4]
    16ac:	2b00      	cmp	r3, #0
    16ae:	d100      	bne.n	16b2 <_i2c_m_sync_transfer+0x4ca>
    16b0:	e6df      	b.n	1472 <_i2c_m_sync_transfer+0x28a>
    16b2:	e6e6      	b.n	1482 <_i2c_m_sync_transfer+0x29a>
	tmp = ((Sercom *)hw)->I2CM.CTRLA.reg;
    16b4:	6826      	ldr	r6, [r4, #0]
	while (((Sercom *)hw)->I2CM.SYNCBUSY.reg & reg) {
    16b6:	69e0      	ldr	r0, [r4, #28]
    16b8:	4202      	tst	r2, r0
    16ba:	d1fc      	bne.n	16b6 <_i2c_m_sync_transfer+0x4ce>
	return ((Sercom *)hw)->I2CM.STATUS.reg;
    16bc:	8b60      	ldrh	r0, [r4, #26]
    16be:	b280      	uxth	r0, r0
	if (flags & MB_FLAG) {
    16c0:	4667      	mov	r7, ip
    16c2:	421f      	tst	r7, r3
    16c4:	d100      	bne.n	16c8 <_i2c_m_sync_transfer+0x4e0>
    16c6:	e77f      	b.n	15c8 <_i2c_m_sync_transfer+0x3e0>
		if (status & SERCOM_I2CM_STATUS_ARBLOST) {
    16c8:	464b      	mov	r3, r9
    16ca:	4203      	tst	r3, r0
    16cc:	d100      	bne.n	16d0 <_i2c_m_sync_transfer+0x4e8>
    16ce:	e713      	b.n	14f8 <_i2c_m_sync_transfer+0x310>
	((Sercom *)hw)->I2CM.INTFLAG.reg = SERCOM_I2CM_INTFLAG_MB;
    16d0:	7627      	strb	r7, [r4, #24]
			msg->flags |= I2C_M_FAIL;
    16d2:	886b      	ldrh	r3, [r5, #2]
    16d4:	f241 0600 	movw	r6, #4096	; 0x1000
    16d8:	4333      	orrs	r3, r6
    16da:	806b      	strh	r3, [r5, #2]
			msg->flags &= ~I2C_M_BUSY;
    16dc:	886b      	ldrh	r3, [r5, #2]
    16de:	4e0e      	ldr	r6, [pc, #56]	; (1718 <_i2c_m_sync_transfer+0x530>)
    16e0:	4033      	ands	r3, r6
    16e2:	806b      	strh	r3, [r5, #2]
			if (status & SERCOM_I2CM_STATUS_BUSERR) {
    16e4:	4663      	mov	r3, ip
    16e6:	4003      	ands	r3, r0
			return I2C_ERR_BAD_ADDRESS;
    16e8:	4258      	negs	r0, r3
    16ea:	4158      	adcs	r0, r3
    16ec:	1f43      	subs	r3, r0, #5
    16ee:	9301      	str	r3, [sp, #4]
    16f0:	e794      	b.n	161c <_i2c_m_sync_transfer+0x434>
			if ((msg->len == 0 && !sclsm) || (msg->len == 1 && sclsm)) {
    16f2:	2b01      	cmp	r3, #1
    16f4:	d000      	beq.n	16f8 <_i2c_m_sync_transfer+0x510>
    16f6:	e784      	b.n	1602 <_i2c_m_sync_transfer+0x41a>
    16f8:	2e00      	cmp	r6, #0
    16fa:	d100      	bne.n	16fe <_i2c_m_sync_transfer+0x516>
    16fc:	e781      	b.n	1602 <_i2c_m_sync_transfer+0x41a>
	((Sercom *)hw)->I2CM.CTRLB.reg |= SERCOM_I2CM_CTRLB_ACKACT;
    16fe:	6860      	ldr	r0, [r4, #4]
    1700:	2380      	movs	r3, #128	; 0x80
    1702:	02db      	lsls	r3, r3, #11
    1704:	4303      	orrs	r3, r0
    1706:	6063      	str	r3, [r4, #4]
	while (((Sercom *)hw)->I2CM.SYNCBUSY.reg & reg) {
    1708:	69e3      	ldr	r3, [r4, #28]
    170a:	421a      	tst	r2, r3
    170c:	d1fc      	bne.n	1708 <_i2c_m_sync_transfer+0x520>
			if (msg->len == 0) {
    170e:	686b      	ldr	r3, [r5, #4]
    1710:	2b00      	cmp	r3, #0
    1712:	d100      	bne.n	1716 <_i2c_m_sync_transfer+0x52e>
    1714:	e76d      	b.n	15f2 <_i2c_m_sync_transfer+0x40a>
    1716:	e774      	b.n	1602 <_i2c_m_sync_transfer+0x41a>
    1718:	fffffeff 	.word	0xfffffeff

0000171c <_delay_init>:
 * \brief Initialize system time module
 */
void _system_time_init(void *const hw)
{
	(void)hw;
	SysTick->LOAD = (0xFFFFFF << SysTick_LOAD_RELOAD_Pos);
    171c:	f24e 0310 	movw	r3, #57360	; 0xe010
    1720:	f2ce 0300 	movt	r3, #57344	; 0xe000
    1724:	4a02      	ldr	r2, [pc, #8]	; (1730 <_delay_init+0x14>)
    1726:	605a      	str	r2, [r3, #4]
	SysTick->CTRL = (1 << SysTick_CTRL_ENABLE_Pos) | (CONF_SYSTICK_TICKINT << SysTick_CTRL_TICKINT_Pos)
    1728:	2205      	movs	r2, #5
    172a:	601a      	str	r2, [r3, #0]
 * \brief Initialize delay functionality
 */
void _delay_init(void *const hw)
{
	_system_time_init(hw);
}
    172c:	4770      	bx	lr
    172e:	46c0      	nop			; (mov r8, r8)
    1730:	00ffffff 	.word	0x00ffffff

00001734 <_delay_cycles>:
}
/**
 * \brief Delay loop to delay n number of cycles
 */
void _delay_cycles(void *const hw, uint32_t cycles)
{
    1734:	b570      	push	{r4, r5, r6, lr}
	(void)hw;
	uint8_t  n   = cycles >> 24;
    1736:	0e0b      	lsrs	r3, r1, #24
	uint32_t buf = cycles;

	while (n--) {
    1738:	1e5e      	subs	r6, r3, #1
    173a:	b2f6      	uxtb	r6, r6
    173c:	b1c3      	cbz	r3, 1770 <_delay_cycles+0x3c>
    173e:	0034      	movs	r4, r6
		SysTick->LOAD = 0xFFFFFF;
    1740:	f24e 0210 	movw	r2, #57360	; 0xe010
    1744:	f2ce 0200 	movt	r2, #57344	; 0xe000
    1748:	4d11      	ldr	r5, [pc, #68]	; (1790 <_delay_cycles+0x5c>)
		SysTick->VAL  = 0xFFFFFF;
		while (!(SysTick->CTRL & SysTick_CTRL_COUNTFLAG_Msk))
    174a:	2080      	movs	r0, #128	; 0x80
    174c:	0240      	lsls	r0, r0, #9
		SysTick->LOAD = 0xFFFFFF;
    174e:	6055      	str	r5, [r2, #4]
		SysTick->VAL  = 0xFFFFFF;
    1750:	6095      	str	r5, [r2, #8]
		while (!(SysTick->CTRL & SysTick_CTRL_COUNTFLAG_Msk))
    1752:	6813      	ldr	r3, [r2, #0]
    1754:	4203      	tst	r3, r0
    1756:	d0fc      	beq.n	1752 <_delay_cycles+0x1e>
	while (n--) {
    1758:	3c01      	subs	r4, #1
    175a:	b2e4      	uxtb	r4, r4
    175c:	2cff      	cmp	r4, #255	; 0xff
    175e:	d1f6      	bne.n	174e <_delay_cycles+0x1a>
    1760:	0633      	lsls	r3, r6, #24
    1762:	1af6      	subs	r6, r6, r3
    1764:	f240 0c01 	movw	ip, #1
    1768:	f6cf 7c00 	movt	ip, #65280	; 0xff00
    176c:	4461      	add	r1, ip
    176e:	1871      	adds	r1, r6, r1
			;
		buf -= 0xFFFFFF;
	}

	SysTick->LOAD = buf;
    1770:	f24e 0310 	movw	r3, #57360	; 0xe010
    1774:	f2ce 0300 	movt	r3, #57344	; 0xe000
    1778:	6059      	str	r1, [r3, #4]
	SysTick->VAL  = buf;
    177a:	6099      	str	r1, [r3, #8]
	while (!(SysTick->CTRL & SysTick_CTRL_COUNTFLAG_Msk))
    177c:	f24e 0210 	movw	r2, #57360	; 0xe010
    1780:	f2ce 0200 	movt	r2, #57344	; 0xe000
    1784:	2180      	movs	r1, #128	; 0x80
    1786:	0249      	lsls	r1, r1, #9
    1788:	6813      	ldr	r3, [r2, #0]
    178a:	420b      	tst	r3, r1
    178c:	d0fc      	beq.n	1788 <_delay_cycles+0x54>
		;
}
    178e:	bd70      	pop	{r4, r5, r6, pc}
    1790:	00ffffff 	.word	0x00ffffff

00001794 <_wdt_init>:

/**
 * \brief WDT initialization function
 */
int32_t _wdt_init(struct wdt_dev *const dev)
{
    1794:	b510      	push	{r4, lr}
    1796:	0004      	movs	r4, r0
	/* Sanity check arguments */
	ASSERT(dev && dev->hw);
    1798:	2800      	cmp	r0, #0
    179a:	d02b      	beq.n	17f4 <_wdt_init+0x60>
    179c:	6800      	ldr	r0, [r0, #0]
    179e:	1e43      	subs	r3, r0, #1
    17a0:	4198      	sbcs	r0, r3
    17a2:	b2c0      	uxtb	r0, r0
    17a4:	f645 216c 	movw	r1, #23148	; 0x5a6c
    17a8:	f2c0 0100 	movt	r1, #0
    17ac:	2250      	movs	r2, #80	; 0x50
    17ae:	f640 534d 	movw	r3, #3405	; 0xd4d
    17b2:	f2c0 0300 	movt	r3, #0
    17b6:	4798      	blx	r3

	if (hri_wdt_get_CTRLA_ALWAYSON_bit(dev->hw) || hri_wdt_get_CTRLA_ENABLE_bit(dev->hw)) {
    17b8:	6823      	ldr	r3, [r4, #0]
typedef uint8_t  hri_wdt_intenset_reg_t;
typedef uint8_t  hri_wdt_intflag_reg_t;

static inline void hri_wdt_wait_for_sync(const void *const hw, hri_wdt_syncbusy_reg_t reg)
{
	while (((Wdt *)hw)->SYNCBUSY.reg & reg) {
    17ba:	211e      	movs	r1, #30
    17bc:	689a      	ldr	r2, [r3, #8]
    17be:	4211      	tst	r1, r2
    17c0:	d1fc      	bne.n	17bc <_wdt_init+0x28>

static inline bool hri_wdt_get_CTRLA_ALWAYSON_bit(const void *const hw)
{
	uint8_t tmp;
	hri_wdt_wait_for_sync(hw, WDT_SYNCBUSY_ENABLE | WDT_SYNCBUSY_WEN | WDT_SYNCBUSY_RUNSTDBY | WDT_SYNCBUSY_ALWAYSON);
	tmp = ((Wdt *)hw)->CTRLA.reg;
    17c2:	781a      	ldrb	r2, [r3, #0]
    17c4:	09d2      	lsrs	r2, r2, #7
    17c6:	b9ba      	cbnz	r2, 17f8 <_wdt_init+0x64>
	while (((Wdt *)hw)->SYNCBUSY.reg & reg) {
    17c8:	211e      	movs	r1, #30
    17ca:	689a      	ldr	r2, [r3, #8]
    17cc:	4211      	tst	r1, r2
    17ce:	d1fc      	bne.n	17ca <_wdt_init+0x36>
	tmp = ((Wdt *)hw)->CTRLA.reg;
    17d0:	781a      	ldrb	r2, [r3, #0]
    17d2:	0792      	lsls	r2, r2, #30
    17d4:	d413      	bmi.n	17fe <_wdt_init+0x6a>
	((Wdt *)hw)->CTRLA.reg &= ~WDT_CTRLA_WEN_Msk;
    17d6:	781a      	ldrb	r2, [r3, #0]
    17d8:	2104      	movs	r1, #4
    17da:	438a      	bics	r2, r1
    17dc:	701a      	strb	r2, [r3, #0]
	while (((Wdt *)hw)->SYNCBUSY.reg & reg) {
    17de:	311a      	adds	r1, #26
    17e0:	689a      	ldr	r2, [r3, #8]
    17e2:	4211      	tst	r1, r2
    17e4:	d1fc      	bne.n	17e0 <_wdt_init+0x4c>
			hri_wdt_write_CONFIG_WINDOW_bf(dev->hw, CONF_WDT_WINDOW);
		} else {
			hri_wdt_clear_CTRLA_WEN_bit(dev->hw);
		}

		hri_wdt_write_CONFIG_PER_bf(dev->hw, CONF_WDT_PER);
    17e6:	6822      	ldr	r2, [r4, #0]

static inline void hri_wdt_write_CONFIG_PER_bf(const void *const hw, hri_wdt_config_reg_t data)
{
	uint8_t tmp;
	WDT_CRITICAL_SECTION_ENTER();
	tmp = ((Wdt *)hw)->CONFIG.reg;
    17e8:	7853      	ldrb	r3, [r2, #1]
	tmp &= ~WDT_CONFIG_PER_Msk;
    17ea:	210f      	movs	r1, #15
    17ec:	438b      	bics	r3, r1
	tmp |= WDT_CONFIG_PER(data);
	((Wdt *)hw)->CONFIG.reg = tmp;
    17ee:	7053      	strb	r3, [r2, #1]
	}

	return ERR_NONE;
    17f0:	2000      	movs	r0, #0
}
    17f2:	bd10      	pop	{r4, pc}
    17f4:	2000      	movs	r0, #0
    17f6:	e7d5      	b.n	17a4 <_wdt_init+0x10>
		return ERR_DENIED;
    17f8:	2011      	movs	r0, #17
    17fa:	4240      	negs	r0, r0
    17fc:	e7f9      	b.n	17f2 <_wdt_init+0x5e>
    17fe:	2011      	movs	r0, #17
    1800:	4240      	negs	r0, r0
    1802:	e7f6      	b.n	17f2 <_wdt_init+0x5e>

00001804 <enable_uart>:

float tmp_f;
uint8_t counter = 10;

void enable_uart(void)
{
    1804:	b510      	push	{r4, lr}
	usart_sync_get_io_descriptor(&USART_0, &io);
    1806:	f240 1144 	movw	r1, #324	; 0x144
    180a:	f2c2 0100 	movt	r1, #8192	; 0x2000
    180e:	f240 1414 	movw	r4, #276	; 0x114
    1812:	f2c2 0400 	movt	r4, #8192	; 0x2000
    1816:	0020      	movs	r0, r4
    1818:	f640 531f 	movw	r3, #3359	; 0xd1f
    181c:	f2c0 0300 	movt	r3, #0
    1820:	4798      	blx	r3
	usart_sync_enable(&USART_0);
    1822:	0020      	movs	r0, r4
    1824:	f640 43ef 	movw	r3, #3311	; 0xcef
    1828:	f2c0 0300 	movt	r3, #0
    182c:	4798      	blx	r3
}
    182e:	bd10      	pop	{r4, pc}

00001830 <i2c_read_register>:

uint8_t i2c_read_register(uint8_t addr)
{
    1830:	b530      	push	{r4, r5, lr}
    1832:	b083      	sub	sp, #12
	uint8_t tmp_data = addr;
    1834:	466b      	mov	r3, sp
    1836:	1ddc      	adds	r4, r3, #7
    1838:	71d8      	strb	r0, [r3, #7]
	io_write(I2C_0_io, &tmp_data, 1);
    183a:	f240 059c 	movw	r5, #156	; 0x9c
    183e:	f2c2 0500 	movt	r5, #8192	; 0x2000
    1842:	2201      	movs	r2, #1
    1844:	0021      	movs	r1, r4
    1846:	6828      	ldr	r0, [r5, #0]
    1848:	f640 333f 	movw	r3, #2879	; 0xb3f
    184c:	f2c0 0300 	movt	r3, #0
    1850:	4798      	blx	r3
	io_read(I2C_0_io, &tmp_data, 1);
    1852:	6828      	ldr	r0, [r5, #0]
    1854:	2201      	movs	r2, #1
    1856:	0021      	movs	r1, r4
    1858:	f640 3375 	movw	r3, #2933	; 0xb75
    185c:	f2c0 0300 	movt	r3, #0
    1860:	4798      	blx	r3
	return tmp_data;
    1862:	7820      	ldrb	r0, [r4, #0]
}
    1864:	b003      	add	sp, #12
    1866:	bd30      	pop	{r4, r5, pc}

00001868 <enable_i2c>:

void enable_i2c(void)
{
    1868:	b510      	push	{r4, lr}
	i2c_m_sync_get_io_descriptor(&I2C_0, &I2C_0_io);
    186a:	f240 019c 	movw	r1, #156	; 0x9c
    186e:	f2c2 0100 	movt	r1, #8192	; 0x2000
    1872:	f240 1420 	movw	r4, #288	; 0x120
    1876:	f2c2 0400 	movt	r4, #8192	; 0x2000
    187a:	0020      	movs	r0, r4
    187c:	f640 3337 	movw	r3, #2871	; 0xb37
    1880:	f2c0 0300 	movt	r3, #0
    1884:	4798      	blx	r3
	i2c_m_sync_enable(&I2C_0);
    1886:	0020      	movs	r0, r4
    1888:	f640 3317 	movw	r3, #2839	; 0xb17
    188c:	f2c0 0300 	movt	r3, #0
    1890:	4798      	blx	r3
	i2c_m_sync_set_slaveaddr(&I2C_0, BME280_I2C_ADDRESS1, I2C_M_SEVEN);
    1892:	f640 0200 	movw	r2, #2048	; 0x800
    1896:	2176      	movs	r1, #118	; 0x76
    1898:	0020      	movs	r0, r4
    189a:	f640 3325 	movw	r3, #2853	; 0xb25
    189e:	f2c0 0300 	movt	r3, #0
    18a2:	4798      	blx	r3
}
    18a4:	bd10      	pop	{r4, pc}

000018a6 <BME280_INIT>:
	timeout_period = 4096;
	wdt_set_timeout_period(&WDT_0, clk_rate, timeout_period);
	wdt_enable(&WDT_0);	
}

void BME280_INIT() {
    18a6:	b510      	push	{r4, lr}
  BME280_SetStandbyTime(BME280_STANDBY_TIME_1_MS);                              // Standby time 1ms
    18a8:	2000      	movs	r0, #0
    18aa:	f240 5385 	movw	r3, #1413	; 0x585
    18ae:	f2c0 0300 	movt	r3, #0
    18b2:	4798      	blx	r3
  BME280_SetFilterCoefficient(BME280_FILTER_COEFF_16);                          // IIR Filter coefficient 16
    18b4:	2004      	movs	r0, #4
    18b6:	f240 5377 	movw	r3, #1399	; 0x577
    18ba:	f2c0 0300 	movt	r3, #0
    18be:	4798      	blx	r3
  BME280_SetOversamplingPressure(BME280_OVERSAMP_16X);                          // Pressure x16 oversampling
    18c0:	2005      	movs	r0, #5
    18c2:	f240 43f7 	movw	r3, #1271	; 0x4f7
    18c6:	f2c0 0300 	movt	r3, #0
    18ca:	4798      	blx	r3
  BME280_SetOversamplingTemperature(BME280_OVERSAMP_2X);                        // Temperature x2 oversampling
    18cc:	2002      	movs	r0, #2
    18ce:	f240 531f 	movw	r3, #1311	; 0x51f
    18d2:	f2c0 0300 	movt	r3, #0
    18d6:	4798      	blx	r3
  BME280_SetOversamplingHumidity(BME280_OVERSAMP_1X);                           // Humidity x1 oversampling
    18d8:	2001      	movs	r0, #1
    18da:	f240 5345 	movw	r3, #1349	; 0x545
    18de:	f2c0 0300 	movt	r3, #0
    18e2:	4798      	blx	r3
  BME280_SetOversamplingMode(BME280_NORMAL_MODE);
    18e4:	2003      	movs	r0, #3
    18e6:	f240 5357 	movw	r3, #1367	; 0x557
    18ea:	f2c0 0300 	movt	r3, #0
    18ee:	4798      	blx	r3
}
    18f0:	bd10      	pop	{r4, pc}

000018f2 <Display_Values>:

void Display_Values(void) {
    18f2:	b5f0      	push	{r4, r5, r6, r7, lr}
    18f4:	46ce      	mov	lr, r9
    18f6:	4647      	mov	r7, r8
    18f8:	b580      	push	{r7, lr}
    18fa:	b089      	sub	sp, #36	; 0x24
	char buf_counter[5];	
	char buf[20];
	
	itoa(counter, buf_counter, 2);
    18fc:	f240 0900 	movw	r9, #0
    1900:	f2c2 0900 	movt	r9, #8192	; 0x2000
    1904:	464b      	mov	r3, r9
    1906:	7818      	ldrb	r0, [r3, #0]
    1908:	2202      	movs	r2, #2
    190a:	a906      	add	r1, sp, #24
    190c:	f643 4349 	movw	r3, #15433	; 0x3c49
    1910:	f2c0 0300 	movt	r3, #0
    1914:	4798      	blx	r3
	
	tmp_f = BME280_GetTemperature();
    1916:	f240 53a5 	movw	r3, #1445	; 0x5a5
    191a:	f2c0 0300 	movt	r3, #0
    191e:	4798      	blx	r3
	tmp_f = (float)(tmp_f * 9.0);
    1920:	f242 1351 	movw	r3, #8529	; 0x2151
    1924:	f2c0 0300 	movt	r3, #0
    1928:	2100      	movs	r1, #0
    192a:	f2c4 1110 	movt	r1, #16656	; 0x4110
    192e:	4798      	blx	r3
	tmp_f = (float)(tmp_f / 5.0);
    1930:	f641 63bd 	movw	r3, #7869	; 0x1ebd
    1934:	f2c0 0300 	movt	r3, #0
    1938:	2100      	movs	r1, #0
    193a:	f2c4 01a0 	movt	r1, #16544	; 0x40a0
    193e:	4798      	blx	r3
	tmp_f = (float)(tmp_f + 32.0);
    1940:	f641 33a5 	movw	r3, #7077	; 0x1ba5
    1944:	f2c0 0300 	movt	r3, #0
    1948:	2184      	movs	r1, #132	; 0x84
    194a:	05c9      	lsls	r1, r1, #23
    194c:	4798      	blx	r3
    194e:	f240 184c 	movw	r8, #332	; 0x14c
    1952:	f2c2 0800 	movt	r8, #8192	; 0x2000
    1956:	4643      	mov	r3, r8
    1958:	6018      	str	r0, [r3, #0]
	gcvt(tmp_f, 5, buf);
    195a:	f643 0721 	movw	r7, #14369	; 0x3821
    195e:	f2c0 0700 	movt	r7, #0
    1962:	47b8      	blx	r7
    1964:	ab01      	add	r3, sp, #4
    1966:	2205      	movs	r2, #5
    1968:	f643 367d 	movw	r6, #15229	; 0x3b7d
    196c:	f2c0 0600 	movt	r6, #0
    1970:	47b0      	blx	r6

	io_write(io, (uint8_t *)"$L11T:", 6);
    1972:	f645 2184 	movw	r1, #23172	; 0x5a84
    1976:	f2c0 0100 	movt	r1, #0
    197a:	f240 1544 	movw	r5, #324	; 0x144
    197e:	f2c2 0500 	movt	r5, #8192	; 0x2000
    1982:	2206      	movs	r2, #6
    1984:	6828      	ldr	r0, [r5, #0]
    1986:	f640 343f 	movw	r4, #2879	; 0xb3f
    198a:	f2c0 0400 	movt	r4, #0
    198e:	47a0      	blx	r4
	io_write(io, buf_counter, 2);
    1990:	2202      	movs	r2, #2
    1992:	a906      	add	r1, sp, #24
    1994:	6828      	ldr	r0, [r5, #0]
    1996:	47a0      	blx	r4
	io_write(io, (uint8_t *)":TempF:", 7);
    1998:	f645 218c 	movw	r1, #23180	; 0x5a8c
    199c:	f2c0 0100 	movt	r1, #0
    19a0:	2207      	movs	r2, #7
    19a2:	6828      	ldr	r0, [r5, #0]
    19a4:	47a0      	blx	r4
	io_write(io, buf, 5);
    19a6:	2205      	movs	r2, #5
    19a8:	a901      	add	r1, sp, #4
    19aa:	6828      	ldr	r0, [r5, #0]
    19ac:	47a0      	blx	r4
	io_write(io, (uint8_t *)"F*\n", 3);
    19ae:	f645 2194 	movw	r1, #23188	; 0x5a94
    19b2:	f2c0 0100 	movt	r1, #0
    19b6:	2203      	movs	r2, #3
    19b8:	6828      	ldr	r0, [r5, #0]
    19ba:	47a0      	blx	r4

	tmp_f = BME280_GetPressure();
    19bc:	f240 63b1 	movw	r3, #1713	; 0x6b1
    19c0:	f2c0 0300 	movt	r3, #0
    19c4:	4798      	blx	r3
    19c6:	4643      	mov	r3, r8
    19c8:	6018      	str	r0, [r3, #0]
	gcvt(tmp_f, 6, buf);
    19ca:	47b8      	blx	r7
    19cc:	ab01      	add	r3, sp, #4
    19ce:	2206      	movs	r2, #6
    19d0:	47b0      	blx	r6

	io_write(io, (uint8_t *)"$L11P:", 6);
    19d2:	f645 2198 	movw	r1, #23192	; 0x5a98
    19d6:	f2c0 0100 	movt	r1, #0
    19da:	2206      	movs	r2, #6
    19dc:	6828      	ldr	r0, [r5, #0]
    19de:	47a0      	blx	r4
	io_write(io, buf_counter, 2);	
    19e0:	2202      	movs	r2, #2
    19e2:	a906      	add	r1, sp, #24
    19e4:	6828      	ldr	r0, [r5, #0]
    19e6:	47a0      	blx	r4
	io_write(io, (uint8_t *)":Pres:", 6);	
    19e8:	f645 21a0 	movw	r1, #23200	; 0x5aa0
    19ec:	f2c0 0100 	movt	r1, #0
    19f0:	2206      	movs	r2, #6
    19f2:	6828      	ldr	r0, [r5, #0]
    19f4:	47a0      	blx	r4
	io_write(io, buf, 6);
    19f6:	2206      	movs	r2, #6
    19f8:	a901      	add	r1, sp, #4
    19fa:	6828      	ldr	r0, [r5, #0]
    19fc:	47a0      	blx	r4
	io_write(io, (uint8_t *)"hPa*\n", 5);
    19fe:	f645 21a8 	movw	r1, #23208	; 0x5aa8
    1a02:	f2c0 0100 	movt	r1, #0
    1a06:	2205      	movs	r2, #5
    1a08:	6828      	ldr	r0, [r5, #0]
    1a0a:	47a0      	blx	r4

	tmp_f = BME280_GetHumidity();
    1a0c:	f240 6305 	movw	r3, #1541	; 0x605
    1a10:	f2c0 0300 	movt	r3, #0
    1a14:	4798      	blx	r3
    1a16:	4643      	mov	r3, r8
    1a18:	6018      	str	r0, [r3, #0]
	gcvt(tmp_f, 5, buf);
    1a1a:	47b8      	blx	r7
    1a1c:	ab01      	add	r3, sp, #4
    1a1e:	2205      	movs	r2, #5
    1a20:	47b0      	blx	r6

	io_write(io, (uint8_t *)"$L11H:", 6);
    1a22:	f645 21b0 	movw	r1, #23216	; 0x5ab0
    1a26:	f2c0 0100 	movt	r1, #0
    1a2a:	2206      	movs	r2, #6
    1a2c:	6828      	ldr	r0, [r5, #0]
    1a2e:	47a0      	blx	r4
	io_write(io, buf_counter, 2);	
    1a30:	2202      	movs	r2, #2
    1a32:	a906      	add	r1, sp, #24
    1a34:	6828      	ldr	r0, [r5, #0]
    1a36:	47a0      	blx	r4
	io_write(io, (uint8_t *)":Humid:", 7);	
    1a38:	f645 21b8 	movw	r1, #23224	; 0x5ab8
    1a3c:	f2c0 0100 	movt	r1, #0
    1a40:	2207      	movs	r2, #7
    1a42:	6828      	ldr	r0, [r5, #0]
    1a44:	47a0      	blx	r4
	io_write(io, buf, 5);
    1a46:	2205      	movs	r2, #5
    1a48:	a901      	add	r1, sp, #4
    1a4a:	6828      	ldr	r0, [r5, #0]
    1a4c:	47a0      	blx	r4
	io_write(io, (uint8_t *)"H*\n", 3);	
    1a4e:	f645 21c0 	movw	r1, #23232	; 0x5ac0
    1a52:	f2c0 0100 	movt	r1, #0
    1a56:	2203      	movs	r2, #3
    1a58:	6828      	ldr	r0, [r5, #0]
    1a5a:	47a0      	blx	r4
	
	io_write(io, (uint8_t *)"\n", 1);		
    1a5c:	f645 21ac 	movw	r1, #23212	; 0x5aac
    1a60:	f2c0 0100 	movt	r1, #0
    1a64:	6828      	ldr	r0, [r5, #0]
    1a66:	2201      	movs	r2, #1
    1a68:	47a0      	blx	r4
	
	counter++;
    1a6a:	464b      	mov	r3, r9
    1a6c:	781b      	ldrb	r3, [r3, #0]
    1a6e:	3301      	adds	r3, #1
    1a70:	b2db      	uxtb	r3, r3
	
	if (counter == 100)
    1a72:	2b64      	cmp	r3, #100	; 0x64
    1a74:	d006      	beq.n	1a84 <Display_Values+0x192>
	counter++;
    1a76:	464a      	mov	r2, r9
    1a78:	7013      	strb	r3, [r2, #0]
	{
		counter = 10;
	}
}
    1a7a:	b009      	add	sp, #36	; 0x24
    1a7c:	bc0c      	pop	{r2, r3}
    1a7e:	4690      	mov	r8, r2
    1a80:	4699      	mov	r9, r3
    1a82:	bdf0      	pop	{r4, r5, r6, r7, pc}
		counter = 10;
    1a84:	f240 0300 	movw	r3, #0
    1a88:	f2c2 0300 	movt	r3, #8192	; 0x2000
    1a8c:	220a      	movs	r2, #10
    1a8e:	701a      	strb	r2, [r3, #0]
}
    1a90:	e7f3      	b.n	1a7a <Display_Values+0x188>

00001a92 <main>:

int main(void)
{
    1a92:	b570      	push	{r4, r5, r6, lr}
	uint8_t value;

	/* Initializes MCU, drivers and middleware */
	atmel_start_init();
    1a94:	f240 2381 	movw	r3, #641	; 0x281
    1a98:	f2c0 0300 	movt	r3, #0
    1a9c:	4798      	blx	r3
	//enable_watchdog();
	enable_uart();
    1a9e:	f641 0305 	movw	r3, #6149	; 0x1805
    1aa2:	f2c0 0300 	movt	r3, #0
    1aa6:	4798      	blx	r3

	io_write(io, (uint8_t *)"SAML11 Starting Up\r\n", 20);
    1aa8:	f645 21c4 	movw	r1, #23236	; 0x5ac4
    1aac:	f2c0 0100 	movt	r1, #0
    1ab0:	f240 1344 	movw	r3, #324	; 0x144
    1ab4:	f2c2 0300 	movt	r3, #8192	; 0x2000
    1ab8:	6818      	ldr	r0, [r3, #0]
    1aba:	2214      	movs	r2, #20
    1abc:	f640 333f 	movw	r3, #2879	; 0xb3f
    1ac0:	f2c0 0300 	movt	r3, #0
    1ac4:	4798      	blx	r3
	
	enable_i2c();
    1ac6:	f641 0369 	movw	r3, #6249	; 0x1869
    1aca:	f2c0 0300 	movt	r3, #0
    1ace:	4798      	blx	r3
	
	value = i2c_read_register(BME280_CHIP_ID_REG);
    1ad0:	20d0      	movs	r0, #208	; 0xd0
    1ad2:	f641 0331 	movw	r3, #6193	; 0x1831
    1ad6:	f2c0 0300 	movt	r3, #0
    1ada:	4798      	blx	r3

	if (value == BME280_CHIP_ID)
    1adc:	2860      	cmp	r0, #96	; 0x60
    1ade:	d10e      	bne.n	1afe <main+0x6c>
	{
		io_write(io, (uint8_t *)"BME280 Connected..\r\n", 20);
    1ae0:	f645 21dc 	movw	r1, #23260	; 0x5adc
    1ae4:	f2c0 0100 	movt	r1, #0
    1ae8:	f240 1344 	movw	r3, #324	; 0x144
    1aec:	f2c2 0300 	movt	r3, #8192	; 0x2000
    1af0:	6818      	ldr	r0, [r3, #0]
    1af2:	2214      	movs	r2, #20
    1af4:	f640 333f 	movw	r3, #2879	; 0xb3f
    1af8:	f2c0 0300 	movt	r3, #0
    1afc:	4798      	blx	r3
	}
	
	delay_ms(200);
    1afe:	20c8      	movs	r0, #200	; 0xc8
    1b00:	f640 2349 	movw	r3, #2633	; 0xa49
    1b04:	f2c0 0300 	movt	r3, #0
    1b08:	4798      	blx	r3
	
	BME280_ReadCalibrationParams();                                               //Read calibration parameters
    1b0a:	f240 33bb 	movw	r3, #955	; 0x3bb
    1b0e:	f2c0 0300 	movt	r3, #0
    1b12:	4798      	blx	r3
	BME280_SetOversamplingPressure(BME280_OVERSAMP_1X);
    1b14:	2001      	movs	r0, #1
    1b16:	f240 43f7 	movw	r3, #1271	; 0x4f7
    1b1a:	f2c0 0300 	movt	r3, #0
    1b1e:	4798      	blx	r3
	BME280_SetOversamplingTemperature(BME280_OVERSAMP_1X);
    1b20:	2001      	movs	r0, #1
    1b22:	f240 531f 	movw	r3, #1311	; 0x51f
    1b26:	f2c0 0300 	movt	r3, #0
    1b2a:	4798      	blx	r3
	BME280_SetOversamplingHumidity(BME280_OVERSAMP_1X);
    1b2c:	2001      	movs	r0, #1
    1b2e:	f240 5345 	movw	r3, #1349	; 0x545
    1b32:	f2c0 0300 	movt	r3, #0
    1b36:	4798      	blx	r3
	BME280_SetOversamplingMode(BME280_FORCED_MODE);
    1b38:	2001      	movs	r0, #1
    1b3a:	f240 5357 	movw	r3, #1367	; 0x557
    1b3e:	f2c0 0300 	movt	r3, #0
    1b42:	4798      	blx	r3
	
	while(BME280_IsMeasuring());
    1b44:	f240 5493 	movw	r4, #1427	; 0x593
    1b48:	f2c0 0400 	movt	r4, #0
    1b4c:	47a0      	blx	r4
    1b4e:	2800      	cmp	r0, #0
    1b50:	d1fc      	bne.n	1b4c <main+0xba>
	BME280_ReadMeasurements();
    1b52:	f240 330d 	movw	r3, #781	; 0x30d
    1b56:	f2c0 0300 	movt	r3, #0
    1b5a:	4798      	blx	r3
  
	BME280_INIT();
    1b5c:	f641 03a7 	movw	r3, #6311	; 0x18a7
    1b60:	f2c0 0300 	movt	r3, #0
    1b64:	4798      	blx	r3
	
	//io_write(io, (uint8_t *)data_in, 2);

	/* Replace with your application code */
	while (1) {
		while(BME280_IsMeasuring());
    1b66:	f240 5493 	movw	r4, #1427	; 0x593
    1b6a:	f2c0 0400 	movt	r4, #0
		BME280_ReadMeasurements();
    1b6e:	f240 360d 	movw	r6, #781	; 0x30d
    1b72:	f2c0 0600 	movt	r6, #0
		Display_Values();
    1b76:	f641 05f3 	movw	r5, #6387	; 0x18f3
    1b7a:	f2c0 0500 	movt	r5, #0
		while(BME280_IsMeasuring());
    1b7e:	47a0      	blx	r4
    1b80:	2800      	cmp	r0, #0
    1b82:	d1fc      	bne.n	1b7e <main+0xec>
		BME280_ReadMeasurements();
    1b84:	47b0      	blx	r6
		Display_Values();
    1b86:	47a8      	blx	r5
		BME280_INIT();
    1b88:	f641 03a7 	movw	r3, #6311	; 0x18a7
    1b8c:	f2c0 0300 	movt	r3, #0
    1b90:	4798      	blx	r3
		delay_ms(5000);
    1b92:	f241 3088 	movw	r0, #5000	; 0x1388
    1b96:	f640 2349 	movw	r3, #2633	; 0xa49
    1b9a:	f2c0 0300 	movt	r3, #0
    1b9e:	4798      	blx	r3
		while(BME280_IsMeasuring());
    1ba0:	e7ed      	b.n	1b7e <main+0xec>
	...

00001ba4 <__aeabi_fadd>:
    1ba4:	b5f0      	push	{r4, r5, r6, r7, lr}
    1ba6:	46c6      	mov	lr, r8
    1ba8:	024e      	lsls	r6, r1, #9
    1baa:	0247      	lsls	r7, r0, #9
    1bac:	0a76      	lsrs	r6, r6, #9
    1bae:	0a7b      	lsrs	r3, r7, #9
    1bb0:	0044      	lsls	r4, r0, #1
    1bb2:	0fc5      	lsrs	r5, r0, #31
    1bb4:	00f7      	lsls	r7, r6, #3
    1bb6:	0048      	lsls	r0, r1, #1
    1bb8:	4698      	mov	r8, r3
    1bba:	b500      	push	{lr}
    1bbc:	0e24      	lsrs	r4, r4, #24
    1bbe:	002a      	movs	r2, r5
    1bc0:	00db      	lsls	r3, r3, #3
    1bc2:	0e00      	lsrs	r0, r0, #24
    1bc4:	0fc9      	lsrs	r1, r1, #31
    1bc6:	46bc      	mov	ip, r7
    1bc8:	428d      	cmp	r5, r1
    1bca:	d067      	beq.n	1c9c <__aeabi_fadd+0xf8>
    1bcc:	1a22      	subs	r2, r4, r0
    1bce:	2a00      	cmp	r2, #0
    1bd0:	dc00      	bgt.n	1bd4 <__aeabi_fadd+0x30>
    1bd2:	e0a5      	b.n	1d20 <__aeabi_fadd+0x17c>
    1bd4:	2800      	cmp	r0, #0
    1bd6:	d13a      	bne.n	1c4e <__aeabi_fadd+0xaa>
    1bd8:	2f00      	cmp	r7, #0
    1bda:	d100      	bne.n	1bde <__aeabi_fadd+0x3a>
    1bdc:	e093      	b.n	1d06 <__aeabi_fadd+0x162>
    1bde:	1e51      	subs	r1, r2, #1
    1be0:	2900      	cmp	r1, #0
    1be2:	d000      	beq.n	1be6 <__aeabi_fadd+0x42>
    1be4:	e0bb      	b.n	1d5e <__aeabi_fadd+0x1ba>
    1be6:	2401      	movs	r4, #1
    1be8:	1bdb      	subs	r3, r3, r7
    1bea:	015a      	lsls	r2, r3, #5
    1bec:	d546      	bpl.n	1c7c <__aeabi_fadd+0xd8>
    1bee:	019b      	lsls	r3, r3, #6
    1bf0:	099e      	lsrs	r6, r3, #6
    1bf2:	0030      	movs	r0, r6
    1bf4:	f001 fea4 	bl	3940 <__clzsi2>
    1bf8:	3805      	subs	r0, #5
    1bfa:	4086      	lsls	r6, r0
    1bfc:	4284      	cmp	r4, r0
    1bfe:	dd00      	ble.n	1c02 <__aeabi_fadd+0x5e>
    1c00:	e09c      	b.n	1d3c <__aeabi_fadd+0x198>
    1c02:	1b04      	subs	r4, r0, r4
    1c04:	0032      	movs	r2, r6
    1c06:	2020      	movs	r0, #32
    1c08:	3401      	adds	r4, #1
    1c0a:	40e2      	lsrs	r2, r4
    1c0c:	1b04      	subs	r4, r0, r4
    1c0e:	40a6      	lsls	r6, r4
    1c10:	0033      	movs	r3, r6
    1c12:	1e5e      	subs	r6, r3, #1
    1c14:	41b3      	sbcs	r3, r6
    1c16:	2400      	movs	r4, #0
    1c18:	4313      	orrs	r3, r2
    1c1a:	075a      	lsls	r2, r3, #29
    1c1c:	d004      	beq.n	1c28 <__aeabi_fadd+0x84>
    1c1e:	220f      	movs	r2, #15
    1c20:	401a      	ands	r2, r3
    1c22:	2a04      	cmp	r2, #4
    1c24:	d000      	beq.n	1c28 <__aeabi_fadd+0x84>
    1c26:	3304      	adds	r3, #4
    1c28:	015a      	lsls	r2, r3, #5
    1c2a:	d529      	bpl.n	1c80 <__aeabi_fadd+0xdc>
    1c2c:	3401      	adds	r4, #1
    1c2e:	2cff      	cmp	r4, #255	; 0xff
    1c30:	d100      	bne.n	1c34 <__aeabi_fadd+0x90>
    1c32:	e080      	b.n	1d36 <__aeabi_fadd+0x192>
    1c34:	002a      	movs	r2, r5
    1c36:	019b      	lsls	r3, r3, #6
    1c38:	0a5b      	lsrs	r3, r3, #9
    1c3a:	b2e4      	uxtb	r4, r4
    1c3c:	025b      	lsls	r3, r3, #9
    1c3e:	05e4      	lsls	r4, r4, #23
    1c40:	0a58      	lsrs	r0, r3, #9
    1c42:	07d2      	lsls	r2, r2, #31
    1c44:	4320      	orrs	r0, r4
    1c46:	4310      	orrs	r0, r2
    1c48:	bc04      	pop	{r2}
    1c4a:	4690      	mov	r8, r2
    1c4c:	bdf0      	pop	{r4, r5, r6, r7, pc}
    1c4e:	2cff      	cmp	r4, #255	; 0xff
    1c50:	d0e3      	beq.n	1c1a <__aeabi_fadd+0x76>
    1c52:	2180      	movs	r1, #128	; 0x80
    1c54:	0038      	movs	r0, r7
    1c56:	04c9      	lsls	r1, r1, #19
    1c58:	4308      	orrs	r0, r1
    1c5a:	4684      	mov	ip, r0
    1c5c:	2a1b      	cmp	r2, #27
    1c5e:	dd00      	ble.n	1c62 <__aeabi_fadd+0xbe>
    1c60:	e081      	b.n	1d66 <__aeabi_fadd+0x1c2>
    1c62:	2020      	movs	r0, #32
    1c64:	4661      	mov	r1, ip
    1c66:	40d1      	lsrs	r1, r2
    1c68:	1a82      	subs	r2, r0, r2
    1c6a:	4660      	mov	r0, ip
    1c6c:	4090      	lsls	r0, r2
    1c6e:	0002      	movs	r2, r0
    1c70:	1e50      	subs	r0, r2, #1
    1c72:	4182      	sbcs	r2, r0
    1c74:	430a      	orrs	r2, r1
    1c76:	1a9b      	subs	r3, r3, r2
    1c78:	015a      	lsls	r2, r3, #5
    1c7a:	d4b8      	bmi.n	1bee <__aeabi_fadd+0x4a>
    1c7c:	075a      	lsls	r2, r3, #29
    1c7e:	d1ce      	bne.n	1c1e <__aeabi_fadd+0x7a>
    1c80:	08de      	lsrs	r6, r3, #3
    1c82:	002a      	movs	r2, r5
    1c84:	2cff      	cmp	r4, #255	; 0xff
    1c86:	d13a      	bne.n	1cfe <__aeabi_fadd+0x15a>
    1c88:	2e00      	cmp	r6, #0
    1c8a:	d100      	bne.n	1c8e <__aeabi_fadd+0xea>
    1c8c:	e0ac      	b.n	1de8 <__aeabi_fadd+0x244>
    1c8e:	2380      	movs	r3, #128	; 0x80
    1c90:	03db      	lsls	r3, r3, #15
    1c92:	4333      	orrs	r3, r6
    1c94:	025b      	lsls	r3, r3, #9
    1c96:	0a5b      	lsrs	r3, r3, #9
    1c98:	24ff      	movs	r4, #255	; 0xff
    1c9a:	e7cf      	b.n	1c3c <__aeabi_fadd+0x98>
    1c9c:	1a21      	subs	r1, r4, r0
    1c9e:	2900      	cmp	r1, #0
    1ca0:	dd51      	ble.n	1d46 <__aeabi_fadd+0x1a2>
    1ca2:	b390      	cbz	r0, 1d0a <__aeabi_fadd+0x166>
    1ca4:	2cff      	cmp	r4, #255	; 0xff
    1ca6:	d0b8      	beq.n	1c1a <__aeabi_fadd+0x76>
    1ca8:	2080      	movs	r0, #128	; 0x80
    1caa:	003e      	movs	r6, r7
    1cac:	04c0      	lsls	r0, r0, #19
    1cae:	4306      	orrs	r6, r0
    1cb0:	46b4      	mov	ip, r6
    1cb2:	291b      	cmp	r1, #27
    1cb4:	dd00      	ble.n	1cb8 <__aeabi_fadd+0x114>
    1cb6:	e0a9      	b.n	1e0c <__aeabi_fadd+0x268>
    1cb8:	2620      	movs	r6, #32
    1cba:	4660      	mov	r0, ip
    1cbc:	40c8      	lsrs	r0, r1
    1cbe:	1a71      	subs	r1, r6, r1
    1cc0:	4666      	mov	r6, ip
    1cc2:	408e      	lsls	r6, r1
    1cc4:	0031      	movs	r1, r6
    1cc6:	1e4e      	subs	r6, r1, #1
    1cc8:	41b1      	sbcs	r1, r6
    1cca:	4301      	orrs	r1, r0
    1ccc:	185b      	adds	r3, r3, r1
    1cce:	0159      	lsls	r1, r3, #5
    1cd0:	d5d4      	bpl.n	1c7c <__aeabi_fadd+0xd8>
    1cd2:	3401      	adds	r4, #1
    1cd4:	2cff      	cmp	r4, #255	; 0xff
    1cd6:	d100      	bne.n	1cda <__aeabi_fadd+0x136>
    1cd8:	e086      	b.n	1de8 <__aeabi_fadd+0x244>
    1cda:	2201      	movs	r2, #1
    1cdc:	4975      	ldr	r1, [pc, #468]	; (1eb4 <__aeabi_fadd+0x310>)
    1cde:	401a      	ands	r2, r3
    1ce0:	085b      	lsrs	r3, r3, #1
    1ce2:	400b      	ands	r3, r1
    1ce4:	4313      	orrs	r3, r2
    1ce6:	e798      	b.n	1c1a <__aeabi_fadd+0x76>
    1ce8:	2c00      	cmp	r4, #0
    1cea:	d000      	beq.n	1cee <__aeabi_fadd+0x14a>
    1cec:	e0a3      	b.n	1e36 <__aeabi_fadd+0x292>
    1cee:	2b00      	cmp	r3, #0
    1cf0:	d000      	beq.n	1cf4 <__aeabi_fadd+0x150>
    1cf2:	e0b1      	b.n	1e58 <__aeabi_fadd+0x2b4>
    1cf4:	003b      	movs	r3, r7
    1cf6:	2f00      	cmp	r7, #0
    1cf8:	d160      	bne.n	1dbc <__aeabi_fadd+0x218>
    1cfa:	2600      	movs	r6, #0
    1cfc:	2200      	movs	r2, #0
    1cfe:	0273      	lsls	r3, r6, #9
    1d00:	0a5b      	lsrs	r3, r3, #9
    1d02:	b2e4      	uxtb	r4, r4
    1d04:	e79a      	b.n	1c3c <__aeabi_fadd+0x98>
    1d06:	0014      	movs	r4, r2
    1d08:	e787      	b.n	1c1a <__aeabi_fadd+0x76>
    1d0a:	2f00      	cmp	r7, #0
    1d0c:	d04b      	beq.n	1da6 <__aeabi_fadd+0x202>
    1d0e:	1e48      	subs	r0, r1, #1
    1d10:	2800      	cmp	r0, #0
    1d12:	d155      	bne.n	1dc0 <__aeabi_fadd+0x21c>
    1d14:	4463      	add	r3, ip
    1d16:	2401      	movs	r4, #1
    1d18:	015a      	lsls	r2, r3, #5
    1d1a:	d5af      	bpl.n	1c7c <__aeabi_fadd+0xd8>
    1d1c:	2402      	movs	r4, #2
    1d1e:	e7dc      	b.n	1cda <__aeabi_fadd+0x136>
    1d20:	bb22      	cbnz	r2, 1d6c <__aeabi_fadd+0x1c8>
    1d22:	1c62      	adds	r2, r4, #1
    1d24:	b2d2      	uxtb	r2, r2
    1d26:	2a01      	cmp	r2, #1
    1d28:	ddde      	ble.n	1ce8 <__aeabi_fadd+0x144>
    1d2a:	1bde      	subs	r6, r3, r7
    1d2c:	0172      	lsls	r2, r6, #5
    1d2e:	d534      	bpl.n	1d9a <__aeabi_fadd+0x1f6>
    1d30:	1afe      	subs	r6, r7, r3
    1d32:	000d      	movs	r5, r1
    1d34:	e75d      	b.n	1bf2 <__aeabi_fadd+0x4e>
    1d36:	002a      	movs	r2, r5
    1d38:	2300      	movs	r3, #0
    1d3a:	e77f      	b.n	1c3c <__aeabi_fadd+0x98>
    1d3c:	0033      	movs	r3, r6
    1d3e:	4a5e      	ldr	r2, [pc, #376]	; (1eb8 <__aeabi_fadd+0x314>)
    1d40:	1a24      	subs	r4, r4, r0
    1d42:	4013      	ands	r3, r2
    1d44:	e769      	b.n	1c1a <__aeabi_fadd+0x76>
    1d46:	2900      	cmp	r1, #0
    1d48:	d162      	bne.n	1e10 <__aeabi_fadd+0x26c>
    1d4a:	1c61      	adds	r1, r4, #1
    1d4c:	b2c8      	uxtb	r0, r1
    1d4e:	2801      	cmp	r0, #1
    1d50:	dd4d      	ble.n	1dee <__aeabi_fadd+0x24a>
    1d52:	29ff      	cmp	r1, #255	; 0xff
    1d54:	d048      	beq.n	1de8 <__aeabi_fadd+0x244>
    1d56:	4463      	add	r3, ip
    1d58:	085b      	lsrs	r3, r3, #1
    1d5a:	000c      	movs	r4, r1
    1d5c:	e75d      	b.n	1c1a <__aeabi_fadd+0x76>
    1d5e:	2aff      	cmp	r2, #255	; 0xff
    1d60:	d040      	beq.n	1de4 <__aeabi_fadd+0x240>
    1d62:	000a      	movs	r2, r1
    1d64:	e77a      	b.n	1c5c <__aeabi_fadd+0xb8>
    1d66:	2201      	movs	r2, #1
    1d68:	1a9b      	subs	r3, r3, r2
    1d6a:	e785      	b.n	1c78 <__aeabi_fadd+0xd4>
    1d6c:	b1ec      	cbz	r4, 1daa <__aeabi_fadd+0x206>
    1d6e:	28ff      	cmp	r0, #255	; 0xff
    1d70:	d022      	beq.n	1db8 <__aeabi_fadd+0x214>
    1d72:	2480      	movs	r4, #128	; 0x80
    1d74:	04e4      	lsls	r4, r4, #19
    1d76:	4252      	negs	r2, r2
    1d78:	4323      	orrs	r3, r4
    1d7a:	2a1b      	cmp	r2, #27
    1d7c:	dd00      	ble.n	1d80 <__aeabi_fadd+0x1dc>
    1d7e:	e086      	b.n	1e8e <__aeabi_fadd+0x2ea>
    1d80:	001c      	movs	r4, r3
    1d82:	2520      	movs	r5, #32
    1d84:	40d4      	lsrs	r4, r2
    1d86:	1aaa      	subs	r2, r5, r2
    1d88:	4093      	lsls	r3, r2
    1d8a:	1e5a      	subs	r2, r3, #1
    1d8c:	4193      	sbcs	r3, r2
    1d8e:	4323      	orrs	r3, r4
    1d90:	4662      	mov	r2, ip
    1d92:	0004      	movs	r4, r0
    1d94:	1ad3      	subs	r3, r2, r3
    1d96:	000d      	movs	r5, r1
    1d98:	e727      	b.n	1bea <__aeabi_fadd+0x46>
    1d9a:	2e00      	cmp	r6, #0
    1d9c:	d000      	beq.n	1da0 <__aeabi_fadd+0x1fc>
    1d9e:	e728      	b.n	1bf2 <__aeabi_fadd+0x4e>
    1da0:	2200      	movs	r2, #0
    1da2:	2400      	movs	r4, #0
    1da4:	e7ab      	b.n	1cfe <__aeabi_fadd+0x15a>
    1da6:	000c      	movs	r4, r1
    1da8:	e737      	b.n	1c1a <__aeabi_fadd+0x76>
    1daa:	2b00      	cmp	r3, #0
    1dac:	d049      	beq.n	1e42 <__aeabi_fadd+0x29e>
    1dae:	43d2      	mvns	r2, r2
    1db0:	2a00      	cmp	r2, #0
    1db2:	d0ed      	beq.n	1d90 <__aeabi_fadd+0x1ec>
    1db4:	28ff      	cmp	r0, #255	; 0xff
    1db6:	d1e0      	bne.n	1d7a <__aeabi_fadd+0x1d6>
    1db8:	4663      	mov	r3, ip
    1dba:	24ff      	movs	r4, #255	; 0xff
    1dbc:	000d      	movs	r5, r1
    1dbe:	e72c      	b.n	1c1a <__aeabi_fadd+0x76>
    1dc0:	29ff      	cmp	r1, #255	; 0xff
    1dc2:	d00f      	beq.n	1de4 <__aeabi_fadd+0x240>
    1dc4:	0001      	movs	r1, r0
    1dc6:	e774      	b.n	1cb2 <__aeabi_fadd+0x10e>
    1dc8:	2b00      	cmp	r3, #0
    1dca:	d05d      	beq.n	1e88 <__aeabi_fadd+0x2e4>
    1dcc:	24ff      	movs	r4, #255	; 0xff
    1dce:	2f00      	cmp	r7, #0
    1dd0:	d100      	bne.n	1dd4 <__aeabi_fadd+0x230>
    1dd2:	e722      	b.n	1c1a <__aeabi_fadd+0x76>
    1dd4:	2280      	movs	r2, #128	; 0x80
    1dd6:	4641      	mov	r1, r8
    1dd8:	03d2      	lsls	r2, r2, #15
    1dda:	4211      	tst	r1, r2
    1ddc:	d002      	beq.n	1de4 <__aeabi_fadd+0x240>
    1dde:	4216      	tst	r6, r2
    1de0:	d100      	bne.n	1de4 <__aeabi_fadd+0x240>
    1de2:	003b      	movs	r3, r7
    1de4:	24ff      	movs	r4, #255	; 0xff
    1de6:	e718      	b.n	1c1a <__aeabi_fadd+0x76>
    1de8:	24ff      	movs	r4, #255	; 0xff
    1dea:	2300      	movs	r3, #0
    1dec:	e726      	b.n	1c3c <__aeabi_fadd+0x98>
    1dee:	2c00      	cmp	r4, #0
    1df0:	d1ea      	bne.n	1dc8 <__aeabi_fadd+0x224>
    1df2:	2b00      	cmp	r3, #0
    1df4:	d054      	beq.n	1ea0 <__aeabi_fadd+0x2fc>
    1df6:	2f00      	cmp	r7, #0
    1df8:	d100      	bne.n	1dfc <__aeabi_fadd+0x258>
    1dfa:	e70e      	b.n	1c1a <__aeabi_fadd+0x76>
    1dfc:	4463      	add	r3, ip
    1dfe:	015a      	lsls	r2, r3, #5
    1e00:	d400      	bmi.n	1e04 <__aeabi_fadd+0x260>
    1e02:	e73b      	b.n	1c7c <__aeabi_fadd+0xd8>
    1e04:	4a2c      	ldr	r2, [pc, #176]	; (1eb8 <__aeabi_fadd+0x314>)
    1e06:	000c      	movs	r4, r1
    1e08:	4013      	ands	r3, r2
    1e0a:	e706      	b.n	1c1a <__aeabi_fadd+0x76>
    1e0c:	2101      	movs	r1, #1
    1e0e:	e75d      	b.n	1ccc <__aeabi_fadd+0x128>
    1e10:	b9dc      	cbnz	r4, 1e4a <__aeabi_fadd+0x2a6>
    1e12:	b3f3      	cbz	r3, 1e92 <__aeabi_fadd+0x2ee>
    1e14:	43c9      	mvns	r1, r1
    1e16:	b159      	cbz	r1, 1e30 <__aeabi_fadd+0x28c>
    1e18:	28ff      	cmp	r0, #255	; 0xff
    1e1a:	d035      	beq.n	1e88 <__aeabi_fadd+0x2e4>
    1e1c:	291b      	cmp	r1, #27
    1e1e:	dc47      	bgt.n	1eb0 <__aeabi_fadd+0x30c>
    1e20:	001c      	movs	r4, r3
    1e22:	2620      	movs	r6, #32
    1e24:	40cc      	lsrs	r4, r1
    1e26:	1a71      	subs	r1, r6, r1
    1e28:	408b      	lsls	r3, r1
    1e2a:	1e59      	subs	r1, r3, #1
    1e2c:	418b      	sbcs	r3, r1
    1e2e:	4323      	orrs	r3, r4
    1e30:	4463      	add	r3, ip
    1e32:	0004      	movs	r4, r0
    1e34:	e74b      	b.n	1cce <__aeabi_fadd+0x12a>
    1e36:	b9c3      	cbnz	r3, 1e6a <__aeabi_fadd+0x2c6>
    1e38:	003b      	movs	r3, r7
    1e3a:	b36f      	cbz	r7, 1e98 <__aeabi_fadd+0x2f4>
    1e3c:	000d      	movs	r5, r1
    1e3e:	24ff      	movs	r4, #255	; 0xff
    1e40:	e6eb      	b.n	1c1a <__aeabi_fadd+0x76>
    1e42:	003b      	movs	r3, r7
    1e44:	0004      	movs	r4, r0
    1e46:	000d      	movs	r5, r1
    1e48:	e6e7      	b.n	1c1a <__aeabi_fadd+0x76>
    1e4a:	28ff      	cmp	r0, #255	; 0xff
    1e4c:	d01c      	beq.n	1e88 <__aeabi_fadd+0x2e4>
    1e4e:	2480      	movs	r4, #128	; 0x80
    1e50:	04e4      	lsls	r4, r4, #19
    1e52:	4249      	negs	r1, r1
    1e54:	4323      	orrs	r3, r4
    1e56:	e7e1      	b.n	1e1c <__aeabi_fadd+0x278>
    1e58:	2f00      	cmp	r7, #0
    1e5a:	d100      	bne.n	1e5e <__aeabi_fadd+0x2ba>
    1e5c:	e6dd      	b.n	1c1a <__aeabi_fadd+0x76>
    1e5e:	1bde      	subs	r6, r3, r7
    1e60:	0172      	lsls	r2, r6, #5
    1e62:	d51f      	bpl.n	1ea4 <__aeabi_fadd+0x300>
    1e64:	1afb      	subs	r3, r7, r3
    1e66:	000d      	movs	r5, r1
    1e68:	e6d7      	b.n	1c1a <__aeabi_fadd+0x76>
    1e6a:	24ff      	movs	r4, #255	; 0xff
    1e6c:	2f00      	cmp	r7, #0
    1e6e:	d100      	bne.n	1e72 <__aeabi_fadd+0x2ce>
    1e70:	e6d3      	b.n	1c1a <__aeabi_fadd+0x76>
    1e72:	2280      	movs	r2, #128	; 0x80
    1e74:	4640      	mov	r0, r8
    1e76:	03d2      	lsls	r2, r2, #15
    1e78:	4210      	tst	r0, r2
    1e7a:	d0b3      	beq.n	1de4 <__aeabi_fadd+0x240>
    1e7c:	4216      	tst	r6, r2
    1e7e:	d1b1      	bne.n	1de4 <__aeabi_fadd+0x240>
    1e80:	003b      	movs	r3, r7
    1e82:	000d      	movs	r5, r1
    1e84:	24ff      	movs	r4, #255	; 0xff
    1e86:	e6c8      	b.n	1c1a <__aeabi_fadd+0x76>
    1e88:	4663      	mov	r3, ip
    1e8a:	24ff      	movs	r4, #255	; 0xff
    1e8c:	e6c5      	b.n	1c1a <__aeabi_fadd+0x76>
    1e8e:	2301      	movs	r3, #1
    1e90:	e77e      	b.n	1d90 <__aeabi_fadd+0x1ec>
    1e92:	003b      	movs	r3, r7
    1e94:	0004      	movs	r4, r0
    1e96:	e6c0      	b.n	1c1a <__aeabi_fadd+0x76>
    1e98:	2680      	movs	r6, #128	; 0x80
    1e9a:	2200      	movs	r2, #0
    1e9c:	03f6      	lsls	r6, r6, #15
    1e9e:	e6f6      	b.n	1c8e <__aeabi_fadd+0xea>
    1ea0:	003b      	movs	r3, r7
    1ea2:	e6ba      	b.n	1c1a <__aeabi_fadd+0x76>
    1ea4:	0033      	movs	r3, r6
    1ea6:	2e00      	cmp	r6, #0
    1ea8:	d000      	beq.n	1eac <__aeabi_fadd+0x308>
    1eaa:	e6e7      	b.n	1c7c <__aeabi_fadd+0xd8>
    1eac:	2200      	movs	r2, #0
    1eae:	e726      	b.n	1cfe <__aeabi_fadd+0x15a>
    1eb0:	2301      	movs	r3, #1
    1eb2:	e7bd      	b.n	1e30 <__aeabi_fadd+0x28c>
    1eb4:	7dffffff 	.word	0x7dffffff
    1eb8:	fbffffff 	.word	0xfbffffff

00001ebc <__aeabi_fdiv>:
    1ebc:	b5f0      	push	{r4, r5, r6, r7, lr}
    1ebe:	4657      	mov	r7, sl
    1ec0:	464e      	mov	r6, r9
    1ec2:	46de      	mov	lr, fp
    1ec4:	4645      	mov	r5, r8
    1ec6:	b5e0      	push	{r5, r6, r7, lr}
    1ec8:	0043      	lsls	r3, r0, #1
    1eca:	0244      	lsls	r4, r0, #9
    1ecc:	0fc6      	lsrs	r6, r0, #31
    1ece:	0e1b      	lsrs	r3, r3, #24
    1ed0:	b083      	sub	sp, #12
    1ed2:	1c0f      	adds	r7, r1, #0
    1ed4:	0a64      	lsrs	r4, r4, #9
    1ed6:	46b2      	mov	sl, r6
    1ed8:	2b00      	cmp	r3, #0
    1eda:	d054      	beq.n	1f86 <__aeabi_fdiv+0xca>
    1edc:	2bff      	cmp	r3, #255	; 0xff
    1ede:	d028      	beq.n	1f32 <__aeabi_fdiv+0x76>
    1ee0:	2280      	movs	r2, #128	; 0x80
    1ee2:	00e4      	lsls	r4, r4, #3
    1ee4:	04d2      	lsls	r2, r2, #19
    1ee6:	4314      	orrs	r4, r2
    1ee8:	227f      	movs	r2, #127	; 0x7f
    1eea:	4252      	negs	r2, r2
    1eec:	4690      	mov	r8, r2
    1eee:	f240 0900 	movw	r9, #0
    1ef2:	f240 0b00 	movw	fp, #0
    1ef6:	4498      	add	r8, r3
    1ef8:	0078      	lsls	r0, r7, #1
    1efa:	027d      	lsls	r5, r7, #9
    1efc:	0ffb      	lsrs	r3, r7, #31
    1efe:	0e00      	lsrs	r0, r0, #24
    1f00:	0a6d      	lsrs	r5, r5, #9
    1f02:	9300      	str	r3, [sp, #0]
    1f04:	b328      	cbz	r0, 1f52 <__aeabi_fdiv+0x96>
    1f06:	28ff      	cmp	r0, #255	; 0xff
    1f08:	d045      	beq.n	1f96 <__aeabi_fdiv+0xda>
    1f0a:	2380      	movs	r3, #128	; 0x80
    1f0c:	2100      	movs	r1, #0
    1f0e:	00ed      	lsls	r5, r5, #3
    1f10:	04db      	lsls	r3, r3, #19
    1f12:	431d      	orrs	r5, r3
    1f14:	387f      	subs	r0, #127	; 0x7f
    1f16:	4647      	mov	r7, r8
    1f18:	1a38      	subs	r0, r7, r0
    1f1a:	464f      	mov	r7, r9
    1f1c:	430f      	orrs	r7, r1
    1f1e:	00bf      	lsls	r7, r7, #2
    1f20:	46b9      	mov	r9, r7
    1f22:	0033      	movs	r3, r6
    1f24:	9a00      	ldr	r2, [sp, #0]
    1f26:	4f87      	ldr	r7, [pc, #540]	; (2144 <__aeabi_fdiv+0x288>)
    1f28:	4053      	eors	r3, r2
    1f2a:	464a      	mov	r2, r9
    1f2c:	58ba      	ldr	r2, [r7, r2]
    1f2e:	9301      	str	r3, [sp, #4]
    1f30:	4697      	mov	pc, r2
    1f32:	2c00      	cmp	r4, #0
    1f34:	d14d      	bne.n	1fd2 <__aeabi_fdiv+0x116>
    1f36:	0078      	lsls	r0, r7, #1
    1f38:	027d      	lsls	r5, r7, #9
    1f3a:	0ffb      	lsrs	r3, r7, #31
    1f3c:	0e00      	lsrs	r0, r0, #24
    1f3e:	f240 0908 	movw	r9, #8
    1f42:	f240 08ff 	movw	r8, #255	; 0xff
    1f46:	f240 0b02 	movw	fp, #2
    1f4a:	0a6d      	lsrs	r5, r5, #9
    1f4c:	9300      	str	r3, [sp, #0]
    1f4e:	2800      	cmp	r0, #0
    1f50:	d1d9      	bne.n	1f06 <__aeabi_fdiv+0x4a>
    1f52:	bb25      	cbnz	r5, 1f9e <__aeabi_fdiv+0xe2>
    1f54:	2000      	movs	r0, #0
    1f56:	2101      	movs	r1, #1
    1f58:	0033      	movs	r3, r6
    1f5a:	9a00      	ldr	r2, [sp, #0]
    1f5c:	4f7a      	ldr	r7, [pc, #488]	; (2148 <__aeabi_fdiv+0x28c>)
    1f5e:	4053      	eors	r3, r2
    1f60:	4642      	mov	r2, r8
    1f62:	1a10      	subs	r0, r2, r0
    1f64:	464a      	mov	r2, r9
    1f66:	430a      	orrs	r2, r1
    1f68:	0092      	lsls	r2, r2, #2
    1f6a:	58ba      	ldr	r2, [r7, r2]
    1f6c:	001d      	movs	r5, r3
    1f6e:	4697      	mov	pc, r2
    1f70:	9b00      	ldr	r3, [sp, #0]
    1f72:	002c      	movs	r4, r5
    1f74:	469a      	mov	sl, r3
    1f76:	468b      	mov	fp, r1
    1f78:	465b      	mov	r3, fp
    1f7a:	2b02      	cmp	r3, #2
    1f7c:	d130      	bne.n	1fe0 <__aeabi_fdiv+0x124>
    1f7e:	4653      	mov	r3, sl
    1f80:	21ff      	movs	r1, #255	; 0xff
    1f82:	2400      	movs	r4, #0
    1f84:	e037      	b.n	1ff6 <__aeabi_fdiv+0x13a>
    1f86:	b9b4      	cbnz	r4, 1fb6 <__aeabi_fdiv+0xfa>
    1f88:	f240 0904 	movw	r9, #4
    1f8c:	f240 0800 	movw	r8, #0
    1f90:	f240 0b01 	movw	fp, #1
    1f94:	e7b0      	b.n	1ef8 <__aeabi_fdiv+0x3c>
    1f96:	20ff      	movs	r0, #255	; 0xff
    1f98:	b95d      	cbnz	r5, 1fb2 <__aeabi_fdiv+0xf6>
    1f9a:	2102      	movs	r1, #2
    1f9c:	e7dc      	b.n	1f58 <__aeabi_fdiv+0x9c>
    1f9e:	0028      	movs	r0, r5
    1fa0:	f001 fcce 	bl	3940 <__clzsi2>
    1fa4:	1f43      	subs	r3, r0, #5
    1fa6:	409d      	lsls	r5, r3
    1fa8:	2376      	movs	r3, #118	; 0x76
    1faa:	425b      	negs	r3, r3
    1fac:	1a18      	subs	r0, r3, r0
    1fae:	2100      	movs	r1, #0
    1fb0:	e7b1      	b.n	1f16 <__aeabi_fdiv+0x5a>
    1fb2:	2103      	movs	r1, #3
    1fb4:	e7af      	b.n	1f16 <__aeabi_fdiv+0x5a>
    1fb6:	0020      	movs	r0, r4
    1fb8:	f001 fcc2 	bl	3940 <__clzsi2>
    1fbc:	1f43      	subs	r3, r0, #5
    1fbe:	409c      	lsls	r4, r3
    1fc0:	2376      	movs	r3, #118	; 0x76
    1fc2:	425b      	negs	r3, r3
    1fc4:	1a1b      	subs	r3, r3, r0
    1fc6:	4698      	mov	r8, r3
    1fc8:	f240 0900 	movw	r9, #0
    1fcc:	f240 0b00 	movw	fp, #0
    1fd0:	e792      	b.n	1ef8 <__aeabi_fdiv+0x3c>
    1fd2:	f240 090c 	movw	r9, #12
    1fd6:	f240 08ff 	movw	r8, #255	; 0xff
    1fda:	f240 0b03 	movw	fp, #3
    1fde:	e78b      	b.n	1ef8 <__aeabi_fdiv+0x3c>
    1fe0:	2b03      	cmp	r3, #3
    1fe2:	d100      	bne.n	1fe6 <__aeabi_fdiv+0x12a>
    1fe4:	e0a5      	b.n	2132 <__aeabi_fdiv+0x276>
    1fe6:	4655      	mov	r5, sl
    1fe8:	2b01      	cmp	r3, #1
    1fea:	d000      	beq.n	1fee <__aeabi_fdiv+0x132>
    1fec:	e081      	b.n	20f2 <__aeabi_fdiv+0x236>
    1fee:	2301      	movs	r3, #1
    1ff0:	2100      	movs	r1, #0
    1ff2:	2400      	movs	r4, #0
    1ff4:	402b      	ands	r3, r5
    1ff6:	0264      	lsls	r4, r4, #9
    1ff8:	05c9      	lsls	r1, r1, #23
    1ffa:	0a60      	lsrs	r0, r4, #9
    1ffc:	07db      	lsls	r3, r3, #31
    1ffe:	4308      	orrs	r0, r1
    2000:	4318      	orrs	r0, r3
    2002:	b003      	add	sp, #12
    2004:	bc3c      	pop	{r2, r3, r4, r5}
    2006:	4690      	mov	r8, r2
    2008:	4699      	mov	r9, r3
    200a:	46a2      	mov	sl, r4
    200c:	46ab      	mov	fp, r5
    200e:	bdf0      	pop	{r4, r5, r6, r7, pc}
    2010:	2480      	movs	r4, #128	; 0x80
    2012:	2300      	movs	r3, #0
    2014:	03e4      	lsls	r4, r4, #15
    2016:	21ff      	movs	r1, #255	; 0xff
    2018:	e7ed      	b.n	1ff6 <__aeabi_fdiv+0x13a>
    201a:	21ff      	movs	r1, #255	; 0xff
    201c:	2400      	movs	r4, #0
    201e:	e7ea      	b.n	1ff6 <__aeabi_fdiv+0x13a>
    2020:	2301      	movs	r3, #1
    2022:	1a59      	subs	r1, r3, r1
    2024:	291b      	cmp	r1, #27
    2026:	dd66      	ble.n	20f6 <__aeabi_fdiv+0x23a>
    2028:	9a01      	ldr	r2, [sp, #4]
    202a:	4013      	ands	r3, r2
    202c:	2100      	movs	r1, #0
    202e:	2400      	movs	r4, #0
    2030:	e7e1      	b.n	1ff6 <__aeabi_fdiv+0x13a>
    2032:	2380      	movs	r3, #128	; 0x80
    2034:	03db      	lsls	r3, r3, #15
    2036:	421c      	tst	r4, r3
    2038:	d038      	beq.n	20ac <__aeabi_fdiv+0x1f0>
    203a:	421d      	tst	r5, r3
    203c:	d051      	beq.n	20e2 <__aeabi_fdiv+0x226>
    203e:	431c      	orrs	r4, r3
    2040:	0264      	lsls	r4, r4, #9
    2042:	0a64      	lsrs	r4, r4, #9
    2044:	0033      	movs	r3, r6
    2046:	21ff      	movs	r1, #255	; 0xff
    2048:	e7d5      	b.n	1ff6 <__aeabi_fdiv+0x13a>
    204a:	0163      	lsls	r3, r4, #5
    204c:	016c      	lsls	r4, r5, #5
    204e:	42a3      	cmp	r3, r4
    2050:	d23b      	bcs.n	20ca <__aeabi_fdiv+0x20e>
    2052:	261b      	movs	r6, #27
    2054:	2100      	movs	r1, #0
    2056:	3801      	subs	r0, #1
    2058:	2501      	movs	r5, #1
    205a:	001f      	movs	r7, r3
    205c:	0049      	lsls	r1, r1, #1
    205e:	005b      	lsls	r3, r3, #1
    2060:	2f00      	cmp	r7, #0
    2062:	db01      	blt.n	2068 <__aeabi_fdiv+0x1ac>
    2064:	429c      	cmp	r4, r3
    2066:	d801      	bhi.n	206c <__aeabi_fdiv+0x1b0>
    2068:	1b1b      	subs	r3, r3, r4
    206a:	4329      	orrs	r1, r5
    206c:	3e01      	subs	r6, #1
    206e:	2e00      	cmp	r6, #0
    2070:	d1f3      	bne.n	205a <__aeabi_fdiv+0x19e>
    2072:	001c      	movs	r4, r3
    2074:	1e63      	subs	r3, r4, #1
    2076:	419c      	sbcs	r4, r3
    2078:	430c      	orrs	r4, r1
    207a:	0001      	movs	r1, r0
    207c:	317f      	adds	r1, #127	; 0x7f
    207e:	2900      	cmp	r1, #0
    2080:	ddce      	ble.n	2020 <__aeabi_fdiv+0x164>
    2082:	0763      	lsls	r3, r4, #29
    2084:	d004      	beq.n	2090 <__aeabi_fdiv+0x1d4>
    2086:	230f      	movs	r3, #15
    2088:	4023      	ands	r3, r4
    208a:	2b04      	cmp	r3, #4
    208c:	d000      	beq.n	2090 <__aeabi_fdiv+0x1d4>
    208e:	3404      	adds	r4, #4
    2090:	0123      	lsls	r3, r4, #4
    2092:	d503      	bpl.n	209c <__aeabi_fdiv+0x1e0>
    2094:	0001      	movs	r1, r0
    2096:	4b2d      	ldr	r3, [pc, #180]	; (214c <__aeabi_fdiv+0x290>)
    2098:	3180      	adds	r1, #128	; 0x80
    209a:	401c      	ands	r4, r3
    209c:	29fe      	cmp	r1, #254	; 0xfe
    209e:	dd0d      	ble.n	20bc <__aeabi_fdiv+0x200>
    20a0:	2301      	movs	r3, #1
    20a2:	9a01      	ldr	r2, [sp, #4]
    20a4:	21ff      	movs	r1, #255	; 0xff
    20a6:	4013      	ands	r3, r2
    20a8:	2400      	movs	r4, #0
    20aa:	e7a4      	b.n	1ff6 <__aeabi_fdiv+0x13a>
    20ac:	2380      	movs	r3, #128	; 0x80
    20ae:	03db      	lsls	r3, r3, #15
    20b0:	431c      	orrs	r4, r3
    20b2:	0264      	lsls	r4, r4, #9
    20b4:	0a64      	lsrs	r4, r4, #9
    20b6:	0033      	movs	r3, r6
    20b8:	21ff      	movs	r1, #255	; 0xff
    20ba:	e79c      	b.n	1ff6 <__aeabi_fdiv+0x13a>
    20bc:	2301      	movs	r3, #1
    20be:	9a01      	ldr	r2, [sp, #4]
    20c0:	01a4      	lsls	r4, r4, #6
    20c2:	0a64      	lsrs	r4, r4, #9
    20c4:	b2c9      	uxtb	r1, r1
    20c6:	4013      	ands	r3, r2
    20c8:	e795      	b.n	1ff6 <__aeabi_fdiv+0x13a>
    20ca:	1b1b      	subs	r3, r3, r4
    20cc:	261a      	movs	r6, #26
    20ce:	2101      	movs	r1, #1
    20d0:	e7c2      	b.n	2058 <__aeabi_fdiv+0x19c>
    20d2:	9b00      	ldr	r3, [sp, #0]
    20d4:	468b      	mov	fp, r1
    20d6:	469a      	mov	sl, r3
    20d8:	2400      	movs	r4, #0
    20da:	e74d      	b.n	1f78 <__aeabi_fdiv+0xbc>
    20dc:	0263      	lsls	r3, r4, #9
    20de:	d5e5      	bpl.n	20ac <__aeabi_fdiv+0x1f0>
    20e0:	2500      	movs	r5, #0
    20e2:	2480      	movs	r4, #128	; 0x80
    20e4:	03e4      	lsls	r4, r4, #15
    20e6:	432c      	orrs	r4, r5
    20e8:	0264      	lsls	r4, r4, #9
    20ea:	0a64      	lsrs	r4, r4, #9
    20ec:	9b00      	ldr	r3, [sp, #0]
    20ee:	21ff      	movs	r1, #255	; 0xff
    20f0:	e781      	b.n	1ff6 <__aeabi_fdiv+0x13a>
    20f2:	9501      	str	r5, [sp, #4]
    20f4:	e7c1      	b.n	207a <__aeabi_fdiv+0x1be>
    20f6:	0023      	movs	r3, r4
    20f8:	2020      	movs	r0, #32
    20fa:	40cb      	lsrs	r3, r1
    20fc:	1a41      	subs	r1, r0, r1
    20fe:	408c      	lsls	r4, r1
    2100:	1e61      	subs	r1, r4, #1
    2102:	418c      	sbcs	r4, r1
    2104:	431c      	orrs	r4, r3
    2106:	0763      	lsls	r3, r4, #29
    2108:	d004      	beq.n	2114 <__aeabi_fdiv+0x258>
    210a:	230f      	movs	r3, #15
    210c:	4023      	ands	r3, r4
    210e:	2b04      	cmp	r3, #4
    2110:	d000      	beq.n	2114 <__aeabi_fdiv+0x258>
    2112:	3404      	adds	r4, #4
    2114:	0163      	lsls	r3, r4, #5
    2116:	d505      	bpl.n	2124 <__aeabi_fdiv+0x268>
    2118:	2301      	movs	r3, #1
    211a:	9a01      	ldr	r2, [sp, #4]
    211c:	2101      	movs	r1, #1
    211e:	4013      	ands	r3, r2
    2120:	2400      	movs	r4, #0
    2122:	e768      	b.n	1ff6 <__aeabi_fdiv+0x13a>
    2124:	2301      	movs	r3, #1
    2126:	9a01      	ldr	r2, [sp, #4]
    2128:	01a4      	lsls	r4, r4, #6
    212a:	0a64      	lsrs	r4, r4, #9
    212c:	4013      	ands	r3, r2
    212e:	2100      	movs	r1, #0
    2130:	e761      	b.n	1ff6 <__aeabi_fdiv+0x13a>
    2132:	2380      	movs	r3, #128	; 0x80
    2134:	03db      	lsls	r3, r3, #15
    2136:	431c      	orrs	r4, r3
    2138:	0264      	lsls	r4, r4, #9
    213a:	0a64      	lsrs	r4, r4, #9
    213c:	4653      	mov	r3, sl
    213e:	21ff      	movs	r1, #255	; 0xff
    2140:	e759      	b.n	1ff6 <__aeabi_fdiv+0x13a>
    2142:	46c0      	nop			; (mov r8, r8)
    2144:	00005af4 	.word	0x00005af4
    2148:	00005b34 	.word	0x00005b34
    214c:	f7ffffff 	.word	0xf7ffffff

00002150 <__aeabi_fmul>:
    2150:	b5f0      	push	{r4, r5, r6, r7, lr}
    2152:	4646      	mov	r6, r8
    2154:	464f      	mov	r7, r9
    2156:	46d6      	mov	lr, sl
    2158:	0243      	lsls	r3, r0, #9
    215a:	b5c0      	push	{r6, r7, lr}
    215c:	0046      	lsls	r6, r0, #1
    215e:	0a5b      	lsrs	r3, r3, #9
    2160:	0e36      	lsrs	r6, r6, #24
    2162:	4688      	mov	r8, r1
    2164:	4699      	mov	r9, r3
    2166:	0fc4      	lsrs	r4, r0, #31
    2168:	2e00      	cmp	r6, #0
    216a:	d051      	beq.n	2210 <__aeabi_fmul+0xc0>
    216c:	2eff      	cmp	r6, #255	; 0xff
    216e:	d023      	beq.n	21b8 <__aeabi_fmul+0x68>
    2170:	2080      	movs	r0, #128	; 0x80
    2172:	00db      	lsls	r3, r3, #3
    2174:	04c0      	lsls	r0, r0, #19
    2176:	4318      	orrs	r0, r3
    2178:	4681      	mov	r9, r0
    217a:	2700      	movs	r7, #0
    217c:	f240 0a00 	movw	sl, #0
    2180:	3e7f      	subs	r6, #127	; 0x7f
    2182:	4643      	mov	r3, r8
    2184:	0058      	lsls	r0, r3, #1
    2186:	025d      	lsls	r5, r3, #9
    2188:	0e00      	lsrs	r0, r0, #24
    218a:	0fdb      	lsrs	r3, r3, #31
    218c:	0a6d      	lsrs	r5, r5, #9
    218e:	4698      	mov	r8, r3
    2190:	b308      	cbz	r0, 21d6 <__aeabi_fmul+0x86>
    2192:	28ff      	cmp	r0, #255	; 0xff
    2194:	d042      	beq.n	221c <__aeabi_fmul+0xcc>
    2196:	00eb      	lsls	r3, r5, #3
    2198:	2580      	movs	r5, #128	; 0x80
    219a:	04ed      	lsls	r5, r5, #19
    219c:	431d      	orrs	r5, r3
    219e:	2300      	movs	r3, #0
    21a0:	387f      	subs	r0, #127	; 0x7f
    21a2:	4641      	mov	r1, r8
    21a4:	1836      	adds	r6, r6, r0
    21a6:	4061      	eors	r1, r4
    21a8:	1c70      	adds	r0, r6, #1
    21aa:	431f      	orrs	r7, r3
    21ac:	2f0f      	cmp	r7, #15
    21ae:	d869      	bhi.n	2284 <__aeabi_fmul+0x134>
    21b0:	4a7b      	ldr	r2, [pc, #492]	; (23a0 <__aeabi_fmul+0x250>)
    21b2:	00bf      	lsls	r7, r7, #2
    21b4:	59d2      	ldr	r2, [r2, r7]
    21b6:	4697      	mov	pc, r2
    21b8:	2b00      	cmp	r3, #0
    21ba:	d148      	bne.n	224e <__aeabi_fmul+0xfe>
    21bc:	4643      	mov	r3, r8
    21be:	0058      	lsls	r0, r3, #1
    21c0:	025d      	lsls	r5, r3, #9
    21c2:	0e00      	lsrs	r0, r0, #24
    21c4:	0fdb      	lsrs	r3, r3, #31
    21c6:	2708      	movs	r7, #8
    21c8:	26ff      	movs	r6, #255	; 0xff
    21ca:	f240 0a02 	movw	sl, #2
    21ce:	0a6d      	lsrs	r5, r5, #9
    21d0:	4698      	mov	r8, r3
    21d2:	2800      	cmp	r0, #0
    21d4:	d1dd      	bne.n	2192 <__aeabi_fmul+0x42>
    21d6:	2d00      	cmp	r5, #0
    21d8:	d13e      	bne.n	2258 <__aeabi_fmul+0x108>
    21da:	2000      	movs	r0, #0
    21dc:	2301      	movs	r3, #1
    21de:	e7e0      	b.n	21a2 <__aeabi_fmul+0x52>
    21e0:	4641      	mov	r1, r8
    21e2:	2b02      	cmp	r3, #2
    21e4:	d020      	beq.n	2228 <__aeabi_fmul+0xd8>
    21e6:	2b03      	cmp	r3, #3
    21e8:	d100      	bne.n	21ec <__aeabi_fmul+0x9c>
    21ea:	e0cf      	b.n	238c <__aeabi_fmul+0x23c>
    21ec:	2b01      	cmp	r3, #1
    21ee:	d000      	beq.n	21f2 <__aeabi_fmul+0xa2>
    21f0:	e0ad      	b.n	234e <__aeabi_fmul+0x1fe>
    21f2:	2200      	movs	r2, #0
    21f4:	2000      	movs	r0, #0
    21f6:	4019      	ands	r1, r3
    21f8:	b2cc      	uxtb	r4, r1
    21fa:	0240      	lsls	r0, r0, #9
    21fc:	05d2      	lsls	r2, r2, #23
    21fe:	0a40      	lsrs	r0, r0, #9
    2200:	07e4      	lsls	r4, r4, #31
    2202:	4310      	orrs	r0, r2
    2204:	4320      	orrs	r0, r4
    2206:	bc1c      	pop	{r2, r3, r4}
    2208:	4690      	mov	r8, r2
    220a:	4699      	mov	r9, r3
    220c:	46a2      	mov	sl, r4
    220e:	bdf0      	pop	{r4, r5, r6, r7, pc}
    2210:	b97b      	cbnz	r3, 2232 <__aeabi_fmul+0xe2>
    2212:	2704      	movs	r7, #4
    2214:	2600      	movs	r6, #0
    2216:	f240 0a01 	movw	sl, #1
    221a:	e7b2      	b.n	2182 <__aeabi_fmul+0x32>
    221c:	20ff      	movs	r0, #255	; 0xff
    221e:	2302      	movs	r3, #2
    2220:	2d00      	cmp	r5, #0
    2222:	d0be      	beq.n	21a2 <__aeabi_fmul+0x52>
    2224:	2303      	movs	r3, #3
    2226:	e7bc      	b.n	21a2 <__aeabi_fmul+0x52>
    2228:	2401      	movs	r4, #1
    222a:	22ff      	movs	r2, #255	; 0xff
    222c:	400c      	ands	r4, r1
    222e:	2000      	movs	r0, #0
    2230:	e7e3      	b.n	21fa <__aeabi_fmul+0xaa>
    2232:	0018      	movs	r0, r3
    2234:	f001 fb84 	bl	3940 <__clzsi2>
    2238:	464a      	mov	r2, r9
    223a:	1f43      	subs	r3, r0, #5
    223c:	2676      	movs	r6, #118	; 0x76
    223e:	409a      	lsls	r2, r3
    2240:	4276      	negs	r6, r6
    2242:	4691      	mov	r9, r2
    2244:	1a36      	subs	r6, r6, r0
    2246:	2700      	movs	r7, #0
    2248:	f240 0a00 	movw	sl, #0
    224c:	e799      	b.n	2182 <__aeabi_fmul+0x32>
    224e:	270c      	movs	r7, #12
    2250:	26ff      	movs	r6, #255	; 0xff
    2252:	f240 0a03 	movw	sl, #3
    2256:	e794      	b.n	2182 <__aeabi_fmul+0x32>
    2258:	0028      	movs	r0, r5
    225a:	f001 fb71 	bl	3940 <__clzsi2>
    225e:	1f43      	subs	r3, r0, #5
    2260:	409d      	lsls	r5, r3
    2262:	2376      	movs	r3, #118	; 0x76
    2264:	425b      	negs	r3, r3
    2266:	1a18      	subs	r0, r3, r0
    2268:	2300      	movs	r3, #0
    226a:	e79a      	b.n	21a2 <__aeabi_fmul+0x52>
    226c:	2080      	movs	r0, #128	; 0x80
    226e:	2400      	movs	r4, #0
    2270:	03c0      	lsls	r0, r0, #15
    2272:	22ff      	movs	r2, #255	; 0xff
    2274:	e7c1      	b.n	21fa <__aeabi_fmul+0xaa>
    2276:	464d      	mov	r5, r9
    2278:	4653      	mov	r3, sl
    227a:	e7b2      	b.n	21e2 <__aeabi_fmul+0x92>
    227c:	464d      	mov	r5, r9
    227e:	0021      	movs	r1, r4
    2280:	4653      	mov	r3, sl
    2282:	e7ae      	b.n	21e2 <__aeabi_fmul+0x92>
    2284:	464b      	mov	r3, r9
    2286:	0c1b      	lsrs	r3, r3, #16
    2288:	4698      	mov	r8, r3
    228a:	464a      	mov	r2, r9
    228c:	f64f 73ff 	movw	r3, #65535	; 0xffff
    2290:	401a      	ands	r2, r3
    2292:	402b      	ands	r3, r5
    2294:	001c      	movs	r4, r3
    2296:	4354      	muls	r4, r2
    2298:	0c2f      	lsrs	r7, r5, #16
    229a:	46a4      	mov	ip, r4
    229c:	4645      	mov	r5, r8
    229e:	4644      	mov	r4, r8
    22a0:	437d      	muls	r5, r7
    22a2:	4357      	muls	r7, r2
    22a4:	4662      	mov	r2, ip
    22a6:	4363      	muls	r3, r4
    22a8:	0c12      	lsrs	r2, r2, #16
    22aa:	18ff      	adds	r7, r7, r3
    22ac:	19d2      	adds	r2, r2, r7
    22ae:	4293      	cmp	r3, r2
    22b0:	d903      	bls.n	22ba <__aeabi_fmul+0x16a>
    22b2:	2380      	movs	r3, #128	; 0x80
    22b4:	025b      	lsls	r3, r3, #9
    22b6:	4698      	mov	r8, r3
    22b8:	4445      	add	r5, r8
    22ba:	4667      	mov	r7, ip
    22bc:	f64f 73ff 	movw	r3, #65535	; 0xffff
    22c0:	0414      	lsls	r4, r2, #16
    22c2:	403b      	ands	r3, r7
    22c4:	18e4      	adds	r4, r4, r3
    22c6:	01a3      	lsls	r3, r4, #6
    22c8:	1e5f      	subs	r7, r3, #1
    22ca:	41bb      	sbcs	r3, r7
    22cc:	0c12      	lsrs	r2, r2, #16
    22ce:	0ea4      	lsrs	r4, r4, #26
    22d0:	1955      	adds	r5, r2, r5
    22d2:	431c      	orrs	r4, r3
    22d4:	01ad      	lsls	r5, r5, #6
    22d6:	4325      	orrs	r5, r4
    22d8:	012b      	lsls	r3, r5, #4
    22da:	d504      	bpl.n	22e6 <__aeabi_fmul+0x196>
    22dc:	2301      	movs	r3, #1
    22de:	0006      	movs	r6, r0
    22e0:	086a      	lsrs	r2, r5, #1
    22e2:	401d      	ands	r5, r3
    22e4:	4315      	orrs	r5, r2
    22e6:	0032      	movs	r2, r6
    22e8:	327f      	adds	r2, #127	; 0x7f
    22ea:	2a00      	cmp	r2, #0
    22ec:	dd27      	ble.n	233e <__aeabi_fmul+0x1ee>
    22ee:	076b      	lsls	r3, r5, #29
    22f0:	d004      	beq.n	22fc <__aeabi_fmul+0x1ac>
    22f2:	230f      	movs	r3, #15
    22f4:	402b      	ands	r3, r5
    22f6:	2b04      	cmp	r3, #4
    22f8:	d000      	beq.n	22fc <__aeabi_fmul+0x1ac>
    22fa:	3504      	adds	r5, #4
    22fc:	012b      	lsls	r3, r5, #4
    22fe:	d503      	bpl.n	2308 <__aeabi_fmul+0x1b8>
    2300:	0032      	movs	r2, r6
    2302:	4b28      	ldr	r3, [pc, #160]	; (23a4 <__aeabi_fmul+0x254>)
    2304:	3280      	adds	r2, #128	; 0x80
    2306:	401d      	ands	r5, r3
    2308:	2afe      	cmp	r2, #254	; 0xfe
    230a:	dc8d      	bgt.n	2228 <__aeabi_fmul+0xd8>
    230c:	2401      	movs	r4, #1
    230e:	01a8      	lsls	r0, r5, #6
    2310:	0a40      	lsrs	r0, r0, #9
    2312:	b2d2      	uxtb	r2, r2
    2314:	400c      	ands	r4, r1
    2316:	e770      	b.n	21fa <__aeabi_fmul+0xaa>
    2318:	2080      	movs	r0, #128	; 0x80
    231a:	464b      	mov	r3, r9
    231c:	03c0      	lsls	r0, r0, #15
    231e:	4203      	tst	r3, r0
    2320:	d008      	beq.n	2334 <__aeabi_fmul+0x1e4>
    2322:	4205      	tst	r5, r0
    2324:	d105      	bne.n	2332 <__aeabi_fmul+0x1e2>
    2326:	4328      	orrs	r0, r5
    2328:	0240      	lsls	r0, r0, #9
    232a:	0a40      	lsrs	r0, r0, #9
    232c:	4644      	mov	r4, r8
    232e:	22ff      	movs	r2, #255	; 0xff
    2330:	e763      	b.n	21fa <__aeabi_fmul+0xaa>
    2332:	464b      	mov	r3, r9
    2334:	4318      	orrs	r0, r3
    2336:	0240      	lsls	r0, r0, #9
    2338:	0a40      	lsrs	r0, r0, #9
    233a:	22ff      	movs	r2, #255	; 0xff
    233c:	e75d      	b.n	21fa <__aeabi_fmul+0xaa>
    233e:	2401      	movs	r4, #1
    2340:	1aa3      	subs	r3, r4, r2
    2342:	2b1b      	cmp	r3, #27
    2344:	dd05      	ble.n	2352 <__aeabi_fmul+0x202>
    2346:	400c      	ands	r4, r1
    2348:	2200      	movs	r2, #0
    234a:	2000      	movs	r0, #0
    234c:	e755      	b.n	21fa <__aeabi_fmul+0xaa>
    234e:	0006      	movs	r6, r0
    2350:	e7c9      	b.n	22e6 <__aeabi_fmul+0x196>
    2352:	002a      	movs	r2, r5
    2354:	2020      	movs	r0, #32
    2356:	40da      	lsrs	r2, r3
    2358:	1ac3      	subs	r3, r0, r3
    235a:	409d      	lsls	r5, r3
    235c:	002b      	movs	r3, r5
    235e:	1e5d      	subs	r5, r3, #1
    2360:	41ab      	sbcs	r3, r5
    2362:	4313      	orrs	r3, r2
    2364:	075a      	lsls	r2, r3, #29
    2366:	d004      	beq.n	2372 <__aeabi_fmul+0x222>
    2368:	220f      	movs	r2, #15
    236a:	401a      	ands	r2, r3
    236c:	2a04      	cmp	r2, #4
    236e:	d000      	beq.n	2372 <__aeabi_fmul+0x222>
    2370:	3304      	adds	r3, #4
    2372:	015a      	lsls	r2, r3, #5
    2374:	d504      	bpl.n	2380 <__aeabi_fmul+0x230>
    2376:	2401      	movs	r4, #1
    2378:	2201      	movs	r2, #1
    237a:	400c      	ands	r4, r1
    237c:	2000      	movs	r0, #0
    237e:	e73c      	b.n	21fa <__aeabi_fmul+0xaa>
    2380:	2401      	movs	r4, #1
    2382:	019b      	lsls	r3, r3, #6
    2384:	0a58      	lsrs	r0, r3, #9
    2386:	400c      	ands	r4, r1
    2388:	2200      	movs	r2, #0
    238a:	e736      	b.n	21fa <__aeabi_fmul+0xaa>
    238c:	2080      	movs	r0, #128	; 0x80
    238e:	2401      	movs	r4, #1
    2390:	03c0      	lsls	r0, r0, #15
    2392:	4328      	orrs	r0, r5
    2394:	0240      	lsls	r0, r0, #9
    2396:	0a40      	lsrs	r0, r0, #9
    2398:	400c      	ands	r4, r1
    239a:	22ff      	movs	r2, #255	; 0xff
    239c:	e72d      	b.n	21fa <__aeabi_fmul+0xaa>
    239e:	46c0      	nop			; (mov r8, r8)
    23a0:	00005b74 	.word	0x00005b74
    23a4:	f7ffffff 	.word	0xf7ffffff

000023a8 <__aeabi_i2f>:
    23a8:	b570      	push	{r4, r5, r6, lr}
    23aa:	2800      	cmp	r0, #0
    23ac:	d030      	beq.n	2410 <__aeabi_i2f+0x68>
    23ae:	17c3      	asrs	r3, r0, #31
    23b0:	18c4      	adds	r4, r0, r3
    23b2:	405c      	eors	r4, r3
    23b4:	0fc5      	lsrs	r5, r0, #31
    23b6:	0020      	movs	r0, r4
    23b8:	f001 fac2 	bl	3940 <__clzsi2>
    23bc:	239e      	movs	r3, #158	; 0x9e
    23be:	1a1b      	subs	r3, r3, r0
    23c0:	2b96      	cmp	r3, #150	; 0x96
    23c2:	dc0d      	bgt.n	23e0 <__aeabi_i2f+0x38>
    23c4:	2296      	movs	r2, #150	; 0x96
    23c6:	1ad2      	subs	r2, r2, r3
    23c8:	4094      	lsls	r4, r2
    23ca:	002a      	movs	r2, r5
    23cc:	0264      	lsls	r4, r4, #9
    23ce:	0a64      	lsrs	r4, r4, #9
    23d0:	b2db      	uxtb	r3, r3
    23d2:	0264      	lsls	r4, r4, #9
    23d4:	05db      	lsls	r3, r3, #23
    23d6:	0a60      	lsrs	r0, r4, #9
    23d8:	07d2      	lsls	r2, r2, #31
    23da:	4318      	orrs	r0, r3
    23dc:	4310      	orrs	r0, r2
    23de:	bd70      	pop	{r4, r5, r6, pc}
    23e0:	2b99      	cmp	r3, #153	; 0x99
    23e2:	dc19      	bgt.n	2418 <__aeabi_i2f+0x70>
    23e4:	2299      	movs	r2, #153	; 0x99
    23e6:	1ad2      	subs	r2, r2, r3
    23e8:	2a00      	cmp	r2, #0
    23ea:	dd29      	ble.n	2440 <__aeabi_i2f+0x98>
    23ec:	4094      	lsls	r4, r2
    23ee:	0022      	movs	r2, r4
    23f0:	4c14      	ldr	r4, [pc, #80]	; (2444 <__aeabi_i2f+0x9c>)
    23f2:	4014      	ands	r4, r2
    23f4:	0751      	lsls	r1, r2, #29
    23f6:	d004      	beq.n	2402 <__aeabi_i2f+0x5a>
    23f8:	210f      	movs	r1, #15
    23fa:	400a      	ands	r2, r1
    23fc:	2a04      	cmp	r2, #4
    23fe:	d000      	beq.n	2402 <__aeabi_i2f+0x5a>
    2400:	3404      	adds	r4, #4
    2402:	0162      	lsls	r2, r4, #5
    2404:	d413      	bmi.n	242e <__aeabi_i2f+0x86>
    2406:	01a4      	lsls	r4, r4, #6
    2408:	0a64      	lsrs	r4, r4, #9
    240a:	b2db      	uxtb	r3, r3
    240c:	002a      	movs	r2, r5
    240e:	e7e0      	b.n	23d2 <__aeabi_i2f+0x2a>
    2410:	2200      	movs	r2, #0
    2412:	2300      	movs	r3, #0
    2414:	2400      	movs	r4, #0
    2416:	e7dc      	b.n	23d2 <__aeabi_i2f+0x2a>
    2418:	2205      	movs	r2, #5
    241a:	0021      	movs	r1, r4
    241c:	1a12      	subs	r2, r2, r0
    241e:	40d1      	lsrs	r1, r2
    2420:	22b9      	movs	r2, #185	; 0xb9
    2422:	1ad2      	subs	r2, r2, r3
    2424:	4094      	lsls	r4, r2
    2426:	1e62      	subs	r2, r4, #1
    2428:	4194      	sbcs	r4, r2
    242a:	430c      	orrs	r4, r1
    242c:	e7da      	b.n	23e4 <__aeabi_i2f+0x3c>
    242e:	4b05      	ldr	r3, [pc, #20]	; (2444 <__aeabi_i2f+0x9c>)
    2430:	002a      	movs	r2, r5
    2432:	401c      	ands	r4, r3
    2434:	239f      	movs	r3, #159	; 0x9f
    2436:	01a4      	lsls	r4, r4, #6
    2438:	1a1b      	subs	r3, r3, r0
    243a:	0a64      	lsrs	r4, r4, #9
    243c:	b2db      	uxtb	r3, r3
    243e:	e7c8      	b.n	23d2 <__aeabi_i2f+0x2a>
    2440:	0022      	movs	r2, r4
    2442:	e7d5      	b.n	23f0 <__aeabi_i2f+0x48>
    2444:	fbffffff 	.word	0xfbffffff

00002448 <__aeabi_ui2f>:
    2448:	b510      	push	{r4, lr}
    244a:	0004      	movs	r4, r0
    244c:	b338      	cbz	r0, 249e <__aeabi_ui2f+0x56>
    244e:	f001 fa77 	bl	3940 <__clzsi2>
    2452:	239e      	movs	r3, #158	; 0x9e
    2454:	1a1b      	subs	r3, r3, r0
    2456:	2b96      	cmp	r3, #150	; 0x96
    2458:	dc0a      	bgt.n	2470 <__aeabi_ui2f+0x28>
    245a:	2296      	movs	r2, #150	; 0x96
    245c:	1ad2      	subs	r2, r2, r3
    245e:	4094      	lsls	r4, r2
    2460:	0264      	lsls	r4, r4, #9
    2462:	0a64      	lsrs	r4, r4, #9
    2464:	b2db      	uxtb	r3, r3
    2466:	0264      	lsls	r4, r4, #9
    2468:	05db      	lsls	r3, r3, #23
    246a:	0a60      	lsrs	r0, r4, #9
    246c:	4318      	orrs	r0, r3
    246e:	bd10      	pop	{r4, pc}
    2470:	2b99      	cmp	r3, #153	; 0x99
    2472:	dc17      	bgt.n	24a4 <__aeabi_ui2f+0x5c>
    2474:	2299      	movs	r2, #153	; 0x99
    2476:	1ad2      	subs	r2, r2, r3
    2478:	2a00      	cmp	r2, #0
    247a:	dd27      	ble.n	24cc <__aeabi_ui2f+0x84>
    247c:	4094      	lsls	r4, r2
    247e:	0022      	movs	r2, r4
    2480:	4c13      	ldr	r4, [pc, #76]	; (24d0 <__aeabi_ui2f+0x88>)
    2482:	4014      	ands	r4, r2
    2484:	0751      	lsls	r1, r2, #29
    2486:	d004      	beq.n	2492 <__aeabi_ui2f+0x4a>
    2488:	210f      	movs	r1, #15
    248a:	400a      	ands	r2, r1
    248c:	2a04      	cmp	r2, #4
    248e:	d000      	beq.n	2492 <__aeabi_ui2f+0x4a>
    2490:	3404      	adds	r4, #4
    2492:	0162      	lsls	r2, r4, #5
    2494:	d412      	bmi.n	24bc <__aeabi_ui2f+0x74>
    2496:	01a4      	lsls	r4, r4, #6
    2498:	0a64      	lsrs	r4, r4, #9
    249a:	b2db      	uxtb	r3, r3
    249c:	e7e3      	b.n	2466 <__aeabi_ui2f+0x1e>
    249e:	2300      	movs	r3, #0
    24a0:	2400      	movs	r4, #0
    24a2:	e7e0      	b.n	2466 <__aeabi_ui2f+0x1e>
    24a4:	22b9      	movs	r2, #185	; 0xb9
    24a6:	0021      	movs	r1, r4
    24a8:	1ad2      	subs	r2, r2, r3
    24aa:	4091      	lsls	r1, r2
    24ac:	000a      	movs	r2, r1
    24ae:	1e51      	subs	r1, r2, #1
    24b0:	418a      	sbcs	r2, r1
    24b2:	2105      	movs	r1, #5
    24b4:	1a09      	subs	r1, r1, r0
    24b6:	40cc      	lsrs	r4, r1
    24b8:	4314      	orrs	r4, r2
    24ba:	e7db      	b.n	2474 <__aeabi_ui2f+0x2c>
    24bc:	4b04      	ldr	r3, [pc, #16]	; (24d0 <__aeabi_ui2f+0x88>)
    24be:	401c      	ands	r4, r3
    24c0:	239f      	movs	r3, #159	; 0x9f
    24c2:	01a4      	lsls	r4, r4, #6
    24c4:	1a1b      	subs	r3, r3, r0
    24c6:	0a64      	lsrs	r4, r4, #9
    24c8:	b2db      	uxtb	r3, r3
    24ca:	e7cc      	b.n	2466 <__aeabi_ui2f+0x1e>
    24cc:	0022      	movs	r2, r4
    24ce:	e7d7      	b.n	2480 <__aeabi_ui2f+0x38>
    24d0:	fbffffff 	.word	0xfbffffff

000024d4 <__aeabi_ddiv>:
    24d4:	b5f0      	push	{r4, r5, r6, r7, lr}
    24d6:	4657      	mov	r7, sl
    24d8:	4645      	mov	r5, r8
    24da:	46de      	mov	lr, fp
    24dc:	464e      	mov	r6, r9
    24de:	b5e0      	push	{r5, r6, r7, lr}
    24e0:	004c      	lsls	r4, r1, #1
    24e2:	001e      	movs	r6, r3
    24e4:	030f      	lsls	r7, r1, #12
    24e6:	0fcb      	lsrs	r3, r1, #31
    24e8:	0d64      	lsrs	r4, r4, #21
    24ea:	b085      	sub	sp, #20
    24ec:	4683      	mov	fp, r0
    24ee:	4692      	mov	sl, r2
    24f0:	0005      	movs	r5, r0
    24f2:	0b3f      	lsrs	r7, r7, #12
    24f4:	4698      	mov	r8, r3
    24f6:	2c00      	cmp	r4, #0
    24f8:	d053      	beq.n	25a2 <__aeabi_ddiv+0xce>
    24fa:	f240 73ff 	movw	r3, #2047	; 0x7ff
    24fe:	429c      	cmp	r4, r3
    2500:	d035      	beq.n	256e <__aeabi_ddiv+0x9a>
    2502:	2380      	movs	r3, #128	; 0x80
    2504:	0f42      	lsrs	r2, r0, #29
    2506:	041b      	lsls	r3, r3, #16
    2508:	00ff      	lsls	r7, r7, #3
    250a:	4313      	orrs	r3, r2
    250c:	433b      	orrs	r3, r7
    250e:	4699      	mov	r9, r3
    2510:	4b71      	ldr	r3, [pc, #452]	; (26d8 <__aeabi_ddiv+0x204>)
    2512:	2700      	movs	r7, #0
    2514:	469c      	mov	ip, r3
    2516:	2300      	movs	r3, #0
    2518:	00c5      	lsls	r5, r0, #3
    251a:	4464      	add	r4, ip
    251c:	9302      	str	r3, [sp, #8]
    251e:	0333      	lsls	r3, r6, #12
    2520:	0b1b      	lsrs	r3, r3, #12
    2522:	469b      	mov	fp, r3
    2524:	0073      	lsls	r3, r6, #1
    2526:	0d5b      	lsrs	r3, r3, #21
    2528:	0ff6      	lsrs	r6, r6, #31
    252a:	4650      	mov	r0, sl
    252c:	9601      	str	r6, [sp, #4]
    252e:	2b00      	cmp	r3, #0
    2530:	d063      	beq.n	25fa <__aeabi_ddiv+0x126>
    2532:	f240 72ff 	movw	r2, #2047	; 0x7ff
    2536:	4293      	cmp	r3, r2
    2538:	d055      	beq.n	25e6 <__aeabi_ddiv+0x112>
    253a:	465a      	mov	r2, fp
    253c:	00d1      	lsls	r1, r2, #3
    253e:	2280      	movs	r2, #128	; 0x80
    2540:	0f40      	lsrs	r0, r0, #29
    2542:	0412      	lsls	r2, r2, #16
    2544:	4302      	orrs	r2, r0
    2546:	430a      	orrs	r2, r1
    2548:	4963      	ldr	r1, [pc, #396]	; (26d8 <__aeabi_ddiv+0x204>)
    254a:	4693      	mov	fp, r2
    254c:	4652      	mov	r2, sl
    254e:	1858      	adds	r0, r3, r1
    2550:	2100      	movs	r1, #0
    2552:	00d2      	lsls	r2, r2, #3
    2554:	4643      	mov	r3, r8
    2556:	1a20      	subs	r0, r4, r0
    2558:	4073      	eors	r3, r6
    255a:	469c      	mov	ip, r3
    255c:	9000      	str	r0, [sp, #0]
    255e:	430f      	orrs	r7, r1
    2560:	2f0f      	cmp	r7, #15
    2562:	d900      	bls.n	2566 <__aeabi_ddiv+0x92>
    2564:	e0be      	b.n	26e4 <__aeabi_ddiv+0x210>
    2566:	485d      	ldr	r0, [pc, #372]	; (26dc <__aeabi_ddiv+0x208>)
    2568:	00bf      	lsls	r7, r7, #2
    256a:	59c0      	ldr	r0, [r0, r7]
    256c:	4687      	mov	pc, r0
    256e:	0003      	movs	r3, r0
    2570:	433b      	orrs	r3, r7
    2572:	4699      	mov	r9, r3
    2574:	2b00      	cmp	r3, #0
    2576:	d175      	bne.n	2664 <__aeabi_ddiv+0x190>
    2578:	2302      	movs	r3, #2
    257a:	2500      	movs	r5, #0
    257c:	2708      	movs	r7, #8
    257e:	f240 74ff 	movw	r4, #2047	; 0x7ff
    2582:	9302      	str	r3, [sp, #8]
    2584:	e7cb      	b.n	251e <__aeabi_ddiv+0x4a>
    2586:	4643      	mov	r3, r8
    2588:	46cb      	mov	fp, r9
    258a:	002a      	movs	r2, r5
    258c:	9902      	ldr	r1, [sp, #8]
    258e:	9301      	str	r3, [sp, #4]
    2590:	2902      	cmp	r1, #2
    2592:	d000      	beq.n	2596 <__aeabi_ddiv+0xc2>
    2594:	e1bd      	b.n	2912 <__aeabi_ddiv+0x43e>
    2596:	9b01      	ldr	r3, [sp, #4]
    2598:	f240 76ff 	movw	r6, #2047	; 0x7ff
    259c:	2400      	movs	r4, #0
    259e:	2500      	movs	r5, #0
    25a0:	e06d      	b.n	267e <__aeabi_ddiv+0x1aa>
    25a2:	0003      	movs	r3, r0
    25a4:	433b      	orrs	r3, r7
    25a6:	4699      	mov	r9, r3
    25a8:	2b00      	cmp	r3, #0
    25aa:	d055      	beq.n	2658 <__aeabi_ddiv+0x184>
    25ac:	2f00      	cmp	r7, #0
    25ae:	d100      	bne.n	25b2 <__aeabi_ddiv+0xde>
    25b0:	e1c8      	b.n	2944 <__aeabi_ddiv+0x470>
    25b2:	0038      	movs	r0, r7
    25b4:	f001 f9c4 	bl	3940 <__clzsi2>
    25b8:	0003      	movs	r3, r0
    25ba:	3b0b      	subs	r3, #11
    25bc:	2b1c      	cmp	r3, #28
    25be:	dd00      	ble.n	25c2 <__aeabi_ddiv+0xee>
    25c0:	e1b9      	b.n	2936 <__aeabi_ddiv+0x462>
    25c2:	221d      	movs	r2, #29
    25c4:	1ad3      	subs	r3, r2, r3
    25c6:	465a      	mov	r2, fp
    25c8:	0001      	movs	r1, r0
    25ca:	40da      	lsrs	r2, r3
    25cc:	3908      	subs	r1, #8
    25ce:	408f      	lsls	r7, r1
    25d0:	0013      	movs	r3, r2
    25d2:	465d      	mov	r5, fp
    25d4:	433b      	orrs	r3, r7
    25d6:	4699      	mov	r9, r3
    25d8:	408d      	lsls	r5, r1
    25da:	2300      	movs	r3, #0
    25dc:	4c40      	ldr	r4, [pc, #256]	; (26e0 <__aeabi_ddiv+0x20c>)
    25de:	2700      	movs	r7, #0
    25e0:	1a24      	subs	r4, r4, r0
    25e2:	9302      	str	r3, [sp, #8]
    25e4:	e79b      	b.n	251e <__aeabi_ddiv+0x4a>
    25e6:	4652      	mov	r2, sl
    25e8:	465b      	mov	r3, fp
    25ea:	431a      	orrs	r2, r3
    25ec:	bb7a      	cbnz	r2, 264e <__aeabi_ddiv+0x17a>
    25ee:	f240 0b00 	movw	fp, #0
    25f2:	f240 70ff 	movw	r0, #2047	; 0x7ff
    25f6:	2102      	movs	r1, #2
    25f8:	e7ac      	b.n	2554 <__aeabi_ddiv+0x80>
    25fa:	465a      	mov	r2, fp
    25fc:	4302      	orrs	r2, r0
    25fe:	b30a      	cbz	r2, 2644 <__aeabi_ddiv+0x170>
    2600:	465b      	mov	r3, fp
    2602:	2b00      	cmp	r3, #0
    2604:	d100      	bne.n	2608 <__aeabi_ddiv+0x134>
    2606:	e1a8      	b.n	295a <__aeabi_ddiv+0x486>
    2608:	4658      	mov	r0, fp
    260a:	f001 f999 	bl	3940 <__clzsi2>
    260e:	0003      	movs	r3, r0
    2610:	3b0b      	subs	r3, #11
    2612:	2b1c      	cmp	r3, #28
    2614:	dd00      	ble.n	2618 <__aeabi_ddiv+0x144>
    2616:	e199      	b.n	294c <__aeabi_ddiv+0x478>
    2618:	0002      	movs	r2, r0
    261a:	4659      	mov	r1, fp
    261c:	3a08      	subs	r2, #8
    261e:	4091      	lsls	r1, r2
    2620:	f240 0c1d 	movw	ip, #29
    2624:	468b      	mov	fp, r1
    2626:	4661      	mov	r1, ip
    2628:	1acb      	subs	r3, r1, r3
    262a:	4651      	mov	r1, sl
    262c:	40d9      	lsrs	r1, r3
    262e:	000b      	movs	r3, r1
    2630:	4659      	mov	r1, fp
    2632:	430b      	orrs	r3, r1
    2634:	469b      	mov	fp, r3
    2636:	4653      	mov	r3, sl
    2638:	4093      	lsls	r3, r2
    263a:	001a      	movs	r2, r3
    263c:	4b28      	ldr	r3, [pc, #160]	; (26e0 <__aeabi_ddiv+0x20c>)
    263e:	2100      	movs	r1, #0
    2640:	1a18      	subs	r0, r3, r0
    2642:	e787      	b.n	2554 <__aeabi_ddiv+0x80>
    2644:	f240 0b00 	movw	fp, #0
    2648:	2000      	movs	r0, #0
    264a:	2101      	movs	r1, #1
    264c:	e782      	b.n	2554 <__aeabi_ddiv+0x80>
    264e:	4652      	mov	r2, sl
    2650:	f240 70ff 	movw	r0, #2047	; 0x7ff
    2654:	2103      	movs	r1, #3
    2656:	e77d      	b.n	2554 <__aeabi_ddiv+0x80>
    2658:	2301      	movs	r3, #1
    265a:	2500      	movs	r5, #0
    265c:	2704      	movs	r7, #4
    265e:	2400      	movs	r4, #0
    2660:	9302      	str	r3, [sp, #8]
    2662:	e75c      	b.n	251e <__aeabi_ddiv+0x4a>
    2664:	2303      	movs	r3, #3
    2666:	46b9      	mov	r9, r7
    2668:	f240 74ff 	movw	r4, #2047	; 0x7ff
    266c:	270c      	movs	r7, #12
    266e:	9302      	str	r3, [sp, #8]
    2670:	e755      	b.n	251e <__aeabi_ddiv+0x4a>
    2672:	2480      	movs	r4, #128	; 0x80
    2674:	2300      	movs	r3, #0
    2676:	2500      	movs	r5, #0
    2678:	0324      	lsls	r4, r4, #12
    267a:	f240 76ff 	movw	r6, #2047	; 0x7ff
    267e:	2100      	movs	r1, #0
    2680:	0028      	movs	r0, r5
    2682:	f64f 75ff 	movw	r5, #65535	; 0xffff
    2686:	0324      	lsls	r4, r4, #12
    2688:	0b22      	lsrs	r2, r4, #12
    268a:	0d0c      	lsrs	r4, r1, #20
    268c:	0524      	lsls	r4, r4, #20
    268e:	4314      	orrs	r4, r2
    2690:	f2c8 050f 	movt	r5, #32783	; 0x800f
    2694:	0532      	lsls	r2, r6, #20
    2696:	402c      	ands	r4, r5
    2698:	4322      	orrs	r2, r4
    269a:	0052      	lsls	r2, r2, #1
    269c:	07db      	lsls	r3, r3, #31
    269e:	0852      	lsrs	r2, r2, #1
    26a0:	431a      	orrs	r2, r3
    26a2:	0011      	movs	r1, r2
    26a4:	b005      	add	sp, #20
    26a6:	bc3c      	pop	{r2, r3, r4, r5}
    26a8:	4690      	mov	r8, r2
    26aa:	4699      	mov	r9, r3
    26ac:	46a2      	mov	sl, r4
    26ae:	46ab      	mov	fp, r5
    26b0:	bdf0      	pop	{r4, r5, r6, r7, pc}
    26b2:	2201      	movs	r2, #1
    26b4:	4252      	negs	r2, r2
    26b6:	2301      	movs	r3, #1
    26b8:	1b99      	subs	r1, r3, r6
    26ba:	2938      	cmp	r1, #56	; 0x38
    26bc:	dc00      	bgt.n	26c0 <__aeabi_ddiv+0x1ec>
    26be:	e1bc      	b.n	2a3a <__aeabi_ddiv+0x566>
    26c0:	4662      	mov	r2, ip
    26c2:	4013      	ands	r3, r2
    26c4:	2600      	movs	r6, #0
    26c6:	2400      	movs	r4, #0
    26c8:	2500      	movs	r5, #0
    26ca:	e7d8      	b.n	267e <__aeabi_ddiv+0x1aa>
    26cc:	f240 76ff 	movw	r6, #2047	; 0x7ff
    26d0:	2400      	movs	r4, #0
    26d2:	2500      	movs	r5, #0
    26d4:	e7d3      	b.n	267e <__aeabi_ddiv+0x1aa>
    26d6:	46c0      	nop			; (mov r8, r8)
    26d8:	fffffc01 	.word	0xfffffc01
    26dc:	00005bb4 	.word	0x00005bb4
    26e0:	fffffc0d 	.word	0xfffffc0d
    26e4:	45d9      	cmp	r9, fp
    26e6:	d900      	bls.n	26ea <__aeabi_ddiv+0x216>
    26e8:	e13e      	b.n	2968 <__aeabi_ddiv+0x494>
    26ea:	d100      	bne.n	26ee <__aeabi_ddiv+0x21a>
    26ec:	e139      	b.n	2962 <__aeabi_ddiv+0x48e>
    26ee:	9b00      	ldr	r3, [sp, #0]
    26f0:	002f      	movs	r7, r5
    26f2:	3b01      	subs	r3, #1
    26f4:	9300      	str	r3, [sp, #0]
    26f6:	2500      	movs	r5, #0
    26f8:	464b      	mov	r3, r9
    26fa:	4659      	mov	r1, fp
    26fc:	0e10      	lsrs	r0, r2, #24
    26fe:	0209      	lsls	r1, r1, #8
    2700:	4301      	orrs	r1, r0
    2702:	0c08      	lsrs	r0, r1, #16
    2704:	0216      	lsls	r6, r2, #8
    2706:	f64f 72ff 	movw	r2, #65535	; 0xffff
    270a:	fbb3 f8f0 	udiv	r8, r3, r0
    270e:	400a      	ands	r2, r1
    2710:	0014      	movs	r4, r2
    2712:	9201      	str	r2, [sp, #4]
    2714:	4642      	mov	r2, r8
    2716:	4362      	muls	r2, r4
    2718:	4644      	mov	r4, r8
    271a:	4344      	muls	r4, r0
    271c:	1b1b      	subs	r3, r3, r4
    271e:	041b      	lsls	r3, r3, #16
    2720:	4699      	mov	r9, r3
    2722:	464c      	mov	r4, r9
    2724:	0c3b      	lsrs	r3, r7, #16
    2726:	4323      	orrs	r3, r4
    2728:	429a      	cmp	r2, r3
    272a:	d90f      	bls.n	274c <__aeabi_ddiv+0x278>
    272c:	2401      	movs	r4, #1
    272e:	4264      	negs	r4, r4
    2730:	4444      	add	r4, r8
    2732:	185b      	adds	r3, r3, r1
    2734:	46a1      	mov	r9, r4
    2736:	4299      	cmp	r1, r3
    2738:	d900      	bls.n	273c <__aeabi_ddiv+0x268>
    273a:	e13d      	b.n	29b8 <__aeabi_ddiv+0x4e4>
    273c:	429a      	cmp	r2, r3
    273e:	d800      	bhi.n	2742 <__aeabi_ddiv+0x26e>
    2740:	e13a      	b.n	29b8 <__aeabi_ddiv+0x4e4>
    2742:	2402      	movs	r4, #2
    2744:	4264      	negs	r4, r4
    2746:	46a1      	mov	r9, r4
    2748:	185b      	adds	r3, r3, r1
    274a:	44c8      	add	r8, r9
    274c:	1a9b      	subs	r3, r3, r2
    274e:	fbb3 fbf0 	udiv	fp, r3, r0
    2752:	465a      	mov	r2, fp
    2754:	9c01      	ldr	r4, [sp, #4]
    2756:	f64f 7aff 	movw	sl, #65535	; 0xffff
    275a:	4362      	muls	r2, r4
    275c:	465c      	mov	r4, fp
    275e:	4344      	muls	r4, r0
    2760:	1b1b      	subs	r3, r3, r4
    2762:	4654      	mov	r4, sl
    2764:	041b      	lsls	r3, r3, #16
    2766:	403c      	ands	r4, r7
    2768:	4323      	orrs	r3, r4
    276a:	429a      	cmp	r2, r3
    276c:	d90d      	bls.n	278a <__aeabi_ddiv+0x2b6>
    276e:	465c      	mov	r4, fp
    2770:	185b      	adds	r3, r3, r1
    2772:	1e67      	subs	r7, r4, #1
    2774:	4299      	cmp	r1, r3
    2776:	d900      	bls.n	277a <__aeabi_ddiv+0x2a6>
    2778:	e120      	b.n	29bc <__aeabi_ddiv+0x4e8>
    277a:	429a      	cmp	r2, r3
    277c:	d800      	bhi.n	2780 <__aeabi_ddiv+0x2ac>
    277e:	e11d      	b.n	29bc <__aeabi_ddiv+0x4e8>
    2780:	2402      	movs	r4, #2
    2782:	4264      	negs	r4, r4
    2784:	46a1      	mov	r9, r4
    2786:	185b      	adds	r3, r3, r1
    2788:	44cb      	add	fp, r9
    278a:	1a9a      	subs	r2, r3, r2
    278c:	4643      	mov	r3, r8
    278e:	465c      	mov	r4, fp
    2790:	f64f 78ff 	movw	r8, #65535	; 0xffff
    2794:	041b      	lsls	r3, r3, #16
    2796:	431c      	orrs	r4, r3
    2798:	0c33      	lsrs	r3, r6, #16
    279a:	469a      	mov	sl, r3
    279c:	4643      	mov	r3, r8
    279e:	0c27      	lsrs	r7, r4, #16
    27a0:	4023      	ands	r3, r4
    27a2:	46a3      	mov	fp, r4
    27a4:	4644      	mov	r4, r8
    27a6:	4034      	ands	r4, r6
    27a8:	9403      	str	r4, [sp, #12]
    27aa:	435c      	muls	r4, r3
    27ac:	9402      	str	r4, [sp, #8]
    27ae:	9c03      	ldr	r4, [sp, #12]
    27b0:	437c      	muls	r4, r7
    27b2:	46a1      	mov	r9, r4
    27b4:	4654      	mov	r4, sl
    27b6:	4363      	muls	r3, r4
    27b8:	4367      	muls	r7, r4
    27ba:	9c02      	ldr	r4, [sp, #8]
    27bc:	444b      	add	r3, r9
    27be:	0c24      	lsrs	r4, r4, #16
    27c0:	46a0      	mov	r8, r4
    27c2:	4443      	add	r3, r8
    27c4:	4599      	cmp	r9, r3
    27c6:	d903      	bls.n	27d0 <__aeabi_ddiv+0x2fc>
    27c8:	2480      	movs	r4, #128	; 0x80
    27ca:	0264      	lsls	r4, r4, #9
    27cc:	46a0      	mov	r8, r4
    27ce:	4447      	add	r7, r8
    27d0:	0c1c      	lsrs	r4, r3, #16
    27d2:	46a1      	mov	r9, r4
    27d4:	44b9      	add	r9, r7
    27d6:	f64f 77ff 	movw	r7, #65535	; 0xffff
    27da:	9c02      	ldr	r4, [sp, #8]
    27dc:	041b      	lsls	r3, r3, #16
    27de:	4027      	ands	r7, r4
    27e0:	19db      	adds	r3, r3, r7
    27e2:	454a      	cmp	r2, r9
    27e4:	d200      	bcs.n	27e8 <__aeabi_ddiv+0x314>
    27e6:	e0cb      	b.n	2980 <__aeabi_ddiv+0x4ac>
    27e8:	d100      	bne.n	27ec <__aeabi_ddiv+0x318>
    27ea:	e0c5      	b.n	2978 <__aeabi_ddiv+0x4a4>
    27ec:	464c      	mov	r4, r9
    27ee:	1b17      	subs	r7, r2, r4
    27f0:	1aeb      	subs	r3, r5, r3
    27f2:	429d      	cmp	r5, r3
    27f4:	41ad      	sbcs	r5, r5
    27f6:	426d      	negs	r5, r5
    27f8:	1b7f      	subs	r7, r7, r5
    27fa:	42b9      	cmp	r1, r7
    27fc:	d100      	bne.n	2800 <__aeabi_ddiv+0x32c>
    27fe:	e107      	b.n	2a10 <__aeabi_ddiv+0x53c>
    2800:	fbb7 f2f0 	udiv	r2, r7, r0
    2804:	0004      	movs	r4, r0
    2806:	9d01      	ldr	r5, [sp, #4]
    2808:	4354      	muls	r4, r2
    280a:	4355      	muls	r5, r2
    280c:	1b3f      	subs	r7, r7, r4
    280e:	043f      	lsls	r7, r7, #16
    2810:	0c1c      	lsrs	r4, r3, #16
    2812:	4327      	orrs	r7, r4
    2814:	42bd      	cmp	r5, r7
    2816:	d90a      	bls.n	282e <__aeabi_ddiv+0x35a>
    2818:	1e54      	subs	r4, r2, #1
    281a:	187f      	adds	r7, r7, r1
    281c:	46a0      	mov	r8, r4
    281e:	42b9      	cmp	r1, r7
    2820:	d900      	bls.n	2824 <__aeabi_ddiv+0x350>
    2822:	e0ff      	b.n	2a24 <__aeabi_ddiv+0x550>
    2824:	42bd      	cmp	r5, r7
    2826:	d800      	bhi.n	282a <__aeabi_ddiv+0x356>
    2828:	e0fc      	b.n	2a24 <__aeabi_ddiv+0x550>
    282a:	3a02      	subs	r2, #2
    282c:	187f      	adds	r7, r7, r1
    282e:	1b7f      	subs	r7, r7, r5
    2830:	fbb7 f5f0 	udiv	r5, r7, r0
    2834:	4368      	muls	r0, r5
    2836:	1a3f      	subs	r7, r7, r0
    2838:	f64f 70ff 	movw	r0, #65535	; 0xffff
    283c:	9c01      	ldr	r4, [sp, #4]
    283e:	043f      	lsls	r7, r7, #16
    2840:	436c      	muls	r4, r5
    2842:	4003      	ands	r3, r0
    2844:	46a0      	mov	r8, r4
    2846:	433b      	orrs	r3, r7
    2848:	429c      	cmp	r4, r3
    284a:	d909      	bls.n	2860 <__aeabi_ddiv+0x38c>
    284c:	185b      	adds	r3, r3, r1
    284e:	1e68      	subs	r0, r5, #1
    2850:	4299      	cmp	r1, r3
    2852:	d900      	bls.n	2856 <__aeabi_ddiv+0x382>
    2854:	e0e8      	b.n	2a28 <__aeabi_ddiv+0x554>
    2856:	429c      	cmp	r4, r3
    2858:	d800      	bhi.n	285c <__aeabi_ddiv+0x388>
    285a:	e0e5      	b.n	2a28 <__aeabi_ddiv+0x554>
    285c:	3d02      	subs	r5, #2
    285e:	185b      	adds	r3, r3, r1
    2860:	4640      	mov	r0, r8
    2862:	0412      	lsls	r2, r2, #16
    2864:	432a      	orrs	r2, r5
    2866:	9c03      	ldr	r4, [sp, #12]
    2868:	0c15      	lsrs	r5, r2, #16
    286a:	1a1b      	subs	r3, r3, r0
    286c:	f64f 70ff 	movw	r0, #65535	; 0xffff
    2870:	0027      	movs	r7, r4
    2872:	436c      	muls	r4, r5
    2874:	46a0      	mov	r8, r4
    2876:	4654      	mov	r4, sl
    2878:	4010      	ands	r0, r2
    287a:	4347      	muls	r7, r0
    287c:	4365      	muls	r5, r4
    287e:	4360      	muls	r0, r4
    2880:	0c3c      	lsrs	r4, r7, #16
    2882:	46a1      	mov	r9, r4
    2884:	4440      	add	r0, r8
    2886:	4448      	add	r0, r9
    2888:	4580      	cmp	r8, r0
    288a:	d903      	bls.n	2894 <__aeabi_ddiv+0x3c0>
    288c:	2480      	movs	r4, #128	; 0x80
    288e:	0264      	lsls	r4, r4, #9
    2890:	46a0      	mov	r8, r4
    2892:	4445      	add	r5, r8
    2894:	0c04      	lsrs	r4, r0, #16
    2896:	46a0      	mov	r8, r4
    2898:	4445      	add	r5, r8
    289a:	f64f 78ff 	movw	r8, #65535	; 0xffff
    289e:	4644      	mov	r4, r8
    28a0:	0400      	lsls	r0, r0, #16
    28a2:	403c      	ands	r4, r7
    28a4:	1900      	adds	r0, r0, r4
    28a6:	42ab      	cmp	r3, r5
    28a8:	d200      	bcs.n	28ac <__aeabi_ddiv+0x3d8>
    28aa:	e099      	b.n	29e0 <__aeabi_ddiv+0x50c>
    28ac:	d100      	bne.n	28b0 <__aeabi_ddiv+0x3dc>
    28ae:	e094      	b.n	29da <__aeabi_ddiv+0x506>
    28b0:	2301      	movs	r3, #1
    28b2:	431a      	orrs	r2, r3
    28b4:	f240 33ff 	movw	r3, #1023	; 0x3ff
    28b8:	9900      	ldr	r1, [sp, #0]
    28ba:	18ce      	adds	r6, r1, r3
    28bc:	2e00      	cmp	r6, #0
    28be:	dc00      	bgt.n	28c2 <__aeabi_ddiv+0x3ee>
    28c0:	e6f9      	b.n	26b6 <__aeabi_ddiv+0x1e2>
    28c2:	0753      	lsls	r3, r2, #29
    28c4:	d000      	beq.n	28c8 <__aeabi_ddiv+0x3f4>
    28c6:	e097      	b.n	29f8 <__aeabi_ddiv+0x524>
    28c8:	465b      	mov	r3, fp
    28ca:	01db      	lsls	r3, r3, #7
    28cc:	d507      	bpl.n	28de <__aeabi_ddiv+0x40a>
    28ce:	4659      	mov	r1, fp
    28d0:	4b93      	ldr	r3, [pc, #588]	; (2b20 <__aeabi_ddiv+0x64c>)
    28d2:	4019      	ands	r1, r3
    28d4:	f240 4300 	movw	r3, #1024	; 0x400
    28d8:	468b      	mov	fp, r1
    28da:	9900      	ldr	r1, [sp, #0]
    28dc:	18ce      	adds	r6, r1, r3
    28de:	f240 73fe 	movw	r3, #2046	; 0x7fe
    28e2:	429e      	cmp	r6, r3
    28e4:	dd6c      	ble.n	29c0 <__aeabi_ddiv+0x4ec>
    28e6:	2301      	movs	r3, #1
    28e8:	4662      	mov	r2, ip
    28ea:	f240 76ff 	movw	r6, #2047	; 0x7ff
    28ee:	4013      	ands	r3, r2
    28f0:	2400      	movs	r4, #0
    28f2:	2500      	movs	r5, #0
    28f4:	e6c3      	b.n	267e <__aeabi_ddiv+0x1aa>
    28f6:	2480      	movs	r4, #128	; 0x80
    28f8:	464b      	mov	r3, r9
    28fa:	0324      	lsls	r4, r4, #12
    28fc:	4223      	tst	r3, r4
    28fe:	d015      	beq.n	292c <__aeabi_ddiv+0x458>
    2900:	465b      	mov	r3, fp
    2902:	4223      	tst	r3, r4
    2904:	d111      	bne.n	292a <__aeabi_ddiv+0x456>
    2906:	431c      	orrs	r4, r3
    2908:	0324      	lsls	r4, r4, #12
    290a:	0b24      	lsrs	r4, r4, #12
    290c:	0033      	movs	r3, r6
    290e:	0015      	movs	r5, r2
    2910:	e6b3      	b.n	267a <__aeabi_ddiv+0x1a6>
    2912:	2903      	cmp	r1, #3
    2914:	d100      	bne.n	2918 <__aeabi_ddiv+0x444>
    2916:	e0f9      	b.n	2b0c <__aeabi_ddiv+0x638>
    2918:	9b01      	ldr	r3, [sp, #4]
    291a:	2901      	cmp	r1, #1
    291c:	d000      	beq.n	2920 <__aeabi_ddiv+0x44c>
    291e:	e08a      	b.n	2a36 <__aeabi_ddiv+0x562>
    2920:	400b      	ands	r3, r1
    2922:	2600      	movs	r6, #0
    2924:	2400      	movs	r4, #0
    2926:	2500      	movs	r5, #0
    2928:	e6a9      	b.n	267e <__aeabi_ddiv+0x1aa>
    292a:	464b      	mov	r3, r9
    292c:	431c      	orrs	r4, r3
    292e:	0324      	lsls	r4, r4, #12
    2930:	0b24      	lsrs	r4, r4, #12
    2932:	4643      	mov	r3, r8
    2934:	e6a1      	b.n	267a <__aeabi_ddiv+0x1a6>
    2936:	0003      	movs	r3, r0
    2938:	465a      	mov	r2, fp
    293a:	3b28      	subs	r3, #40	; 0x28
    293c:	409a      	lsls	r2, r3
    293e:	2500      	movs	r5, #0
    2940:	4691      	mov	r9, r2
    2942:	e64a      	b.n	25da <__aeabi_ddiv+0x106>
    2944:	f000 fffc 	bl	3940 <__clzsi2>
    2948:	3020      	adds	r0, #32
    294a:	e635      	b.n	25b8 <__aeabi_ddiv+0xe4>
    294c:	0003      	movs	r3, r0
    294e:	4652      	mov	r2, sl
    2950:	3b28      	subs	r3, #40	; 0x28
    2952:	409a      	lsls	r2, r3
    2954:	4693      	mov	fp, r2
    2956:	2200      	movs	r2, #0
    2958:	e670      	b.n	263c <__aeabi_ddiv+0x168>
    295a:	f000 fff1 	bl	3940 <__clzsi2>
    295e:	3020      	adds	r0, #32
    2960:	e655      	b.n	260e <__aeabi_ddiv+0x13a>
    2962:	4295      	cmp	r5, r2
    2964:	d200      	bcs.n	2968 <__aeabi_ddiv+0x494>
    2966:	e6c2      	b.n	26ee <__aeabi_ddiv+0x21a>
    2968:	4649      	mov	r1, r9
    296a:	464b      	mov	r3, r9
    296c:	07cf      	lsls	r7, r1, #31
    296e:	0869      	lsrs	r1, r5, #1
    2970:	085b      	lsrs	r3, r3, #1
    2972:	430f      	orrs	r7, r1
    2974:	07ed      	lsls	r5, r5, #31
    2976:	e6c0      	b.n	26fa <__aeabi_ddiv+0x226>
    2978:	2700      	movs	r7, #0
    297a:	429d      	cmp	r5, r3
    297c:	d300      	bcc.n	2980 <__aeabi_ddiv+0x4ac>
    297e:	e737      	b.n	27f0 <__aeabi_ddiv+0x31c>
    2980:	19ad      	adds	r5, r5, r6
    2982:	42b5      	cmp	r5, r6
    2984:	41bf      	sbcs	r7, r7
    2986:	2401      	movs	r4, #1
    2988:	427f      	negs	r7, r7
    298a:	4264      	negs	r4, r4
    298c:	187f      	adds	r7, r7, r1
    298e:	445c      	add	r4, fp
    2990:	18ba      	adds	r2, r7, r2
    2992:	46a0      	mov	r8, r4
    2994:	4291      	cmp	r1, r2
    2996:	d207      	bcs.n	29a8 <__aeabi_ddiv+0x4d4>
    2998:	4591      	cmp	r9, r2
    299a:	d872      	bhi.n	2a82 <__aeabi_ddiv+0x5ae>
    299c:	d100      	bne.n	29a0 <__aeabi_ddiv+0x4cc>
    299e:	e0aa      	b.n	2af6 <__aeabi_ddiv+0x622>
    29a0:	464c      	mov	r4, r9
    29a2:	46c3      	mov	fp, r8
    29a4:	1b17      	subs	r7, r2, r4
    29a6:	e723      	b.n	27f0 <__aeabi_ddiv+0x31c>
    29a8:	4291      	cmp	r1, r2
    29aa:	d1f9      	bne.n	29a0 <__aeabi_ddiv+0x4cc>
    29ac:	42ae      	cmp	r6, r5
    29ae:	d9f3      	bls.n	2998 <__aeabi_ddiv+0x4c4>
    29b0:	464a      	mov	r2, r9
    29b2:	46a3      	mov	fp, r4
    29b4:	1a8f      	subs	r7, r1, r2
    29b6:	e71b      	b.n	27f0 <__aeabi_ddiv+0x31c>
    29b8:	46c8      	mov	r8, r9
    29ba:	e6c7      	b.n	274c <__aeabi_ddiv+0x278>
    29bc:	46bb      	mov	fp, r7
    29be:	e6e4      	b.n	278a <__aeabi_ddiv+0x2b6>
    29c0:	465b      	mov	r3, fp
    29c2:	08d2      	lsrs	r2, r2, #3
    29c4:	075d      	lsls	r5, r3, #29
    29c6:	4315      	orrs	r5, r2
    29c8:	f240 72ff 	movw	r2, #2047	; 0x7ff
    29cc:	025c      	lsls	r4, r3, #9
    29ce:	4016      	ands	r6, r2
    29d0:	2301      	movs	r3, #1
    29d2:	4662      	mov	r2, ip
    29d4:	0b24      	lsrs	r4, r4, #12
    29d6:	4013      	ands	r3, r2
    29d8:	e651      	b.n	267e <__aeabi_ddiv+0x1aa>
    29da:	2800      	cmp	r0, #0
    29dc:	d100      	bne.n	29e0 <__aeabi_ddiv+0x50c>
    29de:	e769      	b.n	28b4 <__aeabi_ddiv+0x3e0>
    29e0:	18cb      	adds	r3, r1, r3
    29e2:	1e57      	subs	r7, r2, #1
    29e4:	4299      	cmp	r1, r3
    29e6:	d921      	bls.n	2a2c <__aeabi_ddiv+0x558>
    29e8:	003a      	movs	r2, r7
    29ea:	42ab      	cmp	r3, r5
    29ec:	d000      	beq.n	29f0 <__aeabi_ddiv+0x51c>
    29ee:	e75f      	b.n	28b0 <__aeabi_ddiv+0x3dc>
    29f0:	42b0      	cmp	r0, r6
    29f2:	d000      	beq.n	29f6 <__aeabi_ddiv+0x522>
    29f4:	e75c      	b.n	28b0 <__aeabi_ddiv+0x3dc>
    29f6:	e75d      	b.n	28b4 <__aeabi_ddiv+0x3e0>
    29f8:	230f      	movs	r3, #15
    29fa:	4013      	ands	r3, r2
    29fc:	2b04      	cmp	r3, #4
    29fe:	d100      	bne.n	2a02 <__aeabi_ddiv+0x52e>
    2a00:	e762      	b.n	28c8 <__aeabi_ddiv+0x3f4>
    2a02:	0013      	movs	r3, r2
    2a04:	1d1a      	adds	r2, r3, #4
    2a06:	429a      	cmp	r2, r3
    2a08:	419b      	sbcs	r3, r3
    2a0a:	425b      	negs	r3, r3
    2a0c:	449b      	add	fp, r3
    2a0e:	e75b      	b.n	28c8 <__aeabi_ddiv+0x3f4>
    2a10:	f240 33ff 	movw	r3, #1023	; 0x3ff
    2a14:	9a00      	ldr	r2, [sp, #0]
    2a16:	18d6      	adds	r6, r2, r3
    2a18:	2e00      	cmp	r6, #0
    2a1a:	dc00      	bgt.n	2a1e <__aeabi_ddiv+0x54a>
    2a1c:	e649      	b.n	26b2 <__aeabi_ddiv+0x1de>
    2a1e:	2301      	movs	r3, #1
    2a20:	425b      	negs	r3, r3
    2a22:	e7ef      	b.n	2a04 <__aeabi_ddiv+0x530>
    2a24:	4642      	mov	r2, r8
    2a26:	e702      	b.n	282e <__aeabi_ddiv+0x35a>
    2a28:	0005      	movs	r5, r0
    2a2a:	e719      	b.n	2860 <__aeabi_ddiv+0x38c>
    2a2c:	429d      	cmp	r5, r3
    2a2e:	d835      	bhi.n	2a9c <__aeabi_ddiv+0x5c8>
    2a30:	d066      	beq.n	2b00 <__aeabi_ddiv+0x62c>
    2a32:	003a      	movs	r2, r7
    2a34:	e73c      	b.n	28b0 <__aeabi_ddiv+0x3dc>
    2a36:	469c      	mov	ip, r3
    2a38:	e73c      	b.n	28b4 <__aeabi_ddiv+0x3e0>
    2a3a:	291f      	cmp	r1, #31
    2a3c:	dc37      	bgt.n	2aae <__aeabi_ddiv+0x5da>
    2a3e:	2320      	movs	r3, #32
    2a40:	0014      	movs	r4, r2
    2a42:	4658      	mov	r0, fp
    2a44:	1a5b      	subs	r3, r3, r1
    2a46:	409a      	lsls	r2, r3
    2a48:	4098      	lsls	r0, r3
    2a4a:	40cc      	lsrs	r4, r1
    2a4c:	1e53      	subs	r3, r2, #1
    2a4e:	419a      	sbcs	r2, r3
    2a50:	4320      	orrs	r0, r4
    2a52:	465c      	mov	r4, fp
    2a54:	4310      	orrs	r0, r2
    2a56:	40cc      	lsrs	r4, r1
    2a58:	0743      	lsls	r3, r0, #29
    2a5a:	d009      	beq.n	2a70 <__aeabi_ddiv+0x59c>
    2a5c:	230f      	movs	r3, #15
    2a5e:	4003      	ands	r3, r0
    2a60:	2b04      	cmp	r3, #4
    2a62:	d005      	beq.n	2a70 <__aeabi_ddiv+0x59c>
    2a64:	0002      	movs	r2, r0
    2a66:	1d10      	adds	r0, r2, #4
    2a68:	4290      	cmp	r0, r2
    2a6a:	419b      	sbcs	r3, r3
    2a6c:	425b      	negs	r3, r3
    2a6e:	18e4      	adds	r4, r4, r3
    2a70:	0223      	lsls	r3, r4, #8
    2a72:	d535      	bpl.n	2ae0 <__aeabi_ddiv+0x60c>
    2a74:	2301      	movs	r3, #1
    2a76:	4662      	mov	r2, ip
    2a78:	2601      	movs	r6, #1
    2a7a:	4013      	ands	r3, r2
    2a7c:	2400      	movs	r4, #0
    2a7e:	2500      	movs	r5, #0
    2a80:	e5fd      	b.n	267e <__aeabi_ddiv+0x1aa>
    2a82:	19ad      	adds	r5, r5, r6
    2a84:	42b5      	cmp	r5, r6
    2a86:	41bf      	sbcs	r7, r7
    2a88:	2402      	movs	r4, #2
    2a8a:	427f      	negs	r7, r7
    2a8c:	4264      	negs	r4, r4
    2a8e:	187f      	adds	r7, r7, r1
    2a90:	18bf      	adds	r7, r7, r2
    2a92:	46a0      	mov	r8, r4
    2a94:	464a      	mov	r2, r9
    2a96:	44c3      	add	fp, r8
    2a98:	1abf      	subs	r7, r7, r2
    2a9a:	e6a9      	b.n	27f0 <__aeabi_ddiv+0x31c>
    2a9c:	1e97      	subs	r7, r2, #2
    2a9e:	0072      	lsls	r2, r6, #1
    2aa0:	42b2      	cmp	r2, r6
    2aa2:	41b6      	sbcs	r6, r6
    2aa4:	4276      	negs	r6, r6
    2aa6:	1871      	adds	r1, r6, r1
    2aa8:	185b      	adds	r3, r3, r1
    2aaa:	0016      	movs	r6, r2
    2aac:	e79c      	b.n	29e8 <__aeabi_ddiv+0x514>
    2aae:	231f      	movs	r3, #31
    2ab0:	465d      	mov	r5, fp
    2ab2:	425b      	negs	r3, r3
    2ab4:	1b9e      	subs	r6, r3, r6
    2ab6:	40f5      	lsrs	r5, r6
    2ab8:	2920      	cmp	r1, #32
    2aba:	d025      	beq.n	2b08 <__aeabi_ddiv+0x634>
    2abc:	335f      	adds	r3, #95	; 0x5f
    2abe:	1a59      	subs	r1, r3, r1
    2ac0:	465b      	mov	r3, fp
    2ac2:	408b      	lsls	r3, r1
    2ac4:	431a      	orrs	r2, r3
    2ac6:	1e53      	subs	r3, r2, #1
    2ac8:	419a      	sbcs	r2, r3
    2aca:	432a      	orrs	r2, r5
    2acc:	2507      	movs	r5, #7
    2ace:	4015      	ands	r5, r2
    2ad0:	2400      	movs	r4, #0
    2ad2:	b14d      	cbz	r5, 2ae8 <__aeabi_ddiv+0x614>
    2ad4:	230f      	movs	r3, #15
    2ad6:	2400      	movs	r4, #0
    2ad8:	4013      	ands	r3, r2
    2ada:	0010      	movs	r0, r2
    2adc:	2b04      	cmp	r3, #4
    2ade:	d1c2      	bne.n	2a66 <__aeabi_ddiv+0x592>
    2ae0:	0002      	movs	r2, r0
    2ae2:	0765      	lsls	r5, r4, #29
    2ae4:	0264      	lsls	r4, r4, #9
    2ae6:	0b24      	lsrs	r4, r4, #12
    2ae8:	08d2      	lsrs	r2, r2, #3
    2aea:	4315      	orrs	r5, r2
    2aec:	2301      	movs	r3, #1
    2aee:	4662      	mov	r2, ip
    2af0:	2600      	movs	r6, #0
    2af2:	4013      	ands	r3, r2
    2af4:	e5c3      	b.n	267e <__aeabi_ddiv+0x1aa>
    2af6:	42ab      	cmp	r3, r5
    2af8:	d8c3      	bhi.n	2a82 <__aeabi_ddiv+0x5ae>
    2afa:	46c3      	mov	fp, r8
    2afc:	2700      	movs	r7, #0
    2afe:	e677      	b.n	27f0 <__aeabi_ddiv+0x31c>
    2b00:	4286      	cmp	r6, r0
    2b02:	d3cb      	bcc.n	2a9c <__aeabi_ddiv+0x5c8>
    2b04:	003a      	movs	r2, r7
    2b06:	e773      	b.n	29f0 <__aeabi_ddiv+0x51c>
    2b08:	2300      	movs	r3, #0
    2b0a:	e7db      	b.n	2ac4 <__aeabi_ddiv+0x5f0>
    2b0c:	2480      	movs	r4, #128	; 0x80
    2b0e:	465b      	mov	r3, fp
    2b10:	0324      	lsls	r4, r4, #12
    2b12:	431c      	orrs	r4, r3
    2b14:	0324      	lsls	r4, r4, #12
    2b16:	0b24      	lsrs	r4, r4, #12
    2b18:	9b01      	ldr	r3, [sp, #4]
    2b1a:	0015      	movs	r5, r2
    2b1c:	e5ad      	b.n	267a <__aeabi_ddiv+0x1a6>
    2b1e:	46c0      	nop			; (mov r8, r8)
    2b20:	feffffff 	.word	0xfeffffff

00002b24 <__aeabi_dmul>:
    2b24:	b5f0      	push	{r4, r5, r6, r7, lr}
    2b26:	464e      	mov	r6, r9
    2b28:	46de      	mov	lr, fp
    2b2a:	4657      	mov	r7, sl
    2b2c:	4645      	mov	r5, r8
    2b2e:	b5e0      	push	{r5, r6, r7, lr}
    2b30:	4699      	mov	r9, r3
    2b32:	004e      	lsls	r6, r1, #1
    2b34:	030b      	lsls	r3, r1, #12
    2b36:	0b1b      	lsrs	r3, r3, #12
    2b38:	0d76      	lsrs	r6, r6, #21
    2b3a:	b087      	sub	sp, #28
    2b3c:	0004      	movs	r4, r0
    2b3e:	4692      	mov	sl, r2
    2b40:	469b      	mov	fp, r3
    2b42:	0fcd      	lsrs	r5, r1, #31
    2b44:	2e00      	cmp	r6, #0
    2b46:	d100      	bne.n	2b4a <__aeabi_dmul+0x26>
    2b48:	e076      	b.n	2c38 <__aeabi_dmul+0x114>
    2b4a:	f240 73ff 	movw	r3, #2047	; 0x7ff
    2b4e:	429e      	cmp	r6, r3
    2b50:	d03a      	beq.n	2bc8 <__aeabi_dmul+0xa4>
    2b52:	465b      	mov	r3, fp
    2b54:	00da      	lsls	r2, r3, #3
    2b56:	2380      	movs	r3, #128	; 0x80
    2b58:	0f41      	lsrs	r1, r0, #29
    2b5a:	041b      	lsls	r3, r3, #16
    2b5c:	430b      	orrs	r3, r1
    2b5e:	4313      	orrs	r3, r2
    2b60:	469b      	mov	fp, r3
    2b62:	4b71      	ldr	r3, [pc, #452]	; (2d28 <__aeabi_dmul+0x204>)
    2b64:	f240 0800 	movw	r8, #0
    2b68:	469c      	mov	ip, r3
    2b6a:	2300      	movs	r3, #0
    2b6c:	00c7      	lsls	r7, r0, #3
    2b6e:	4466      	add	r6, ip
    2b70:	9302      	str	r3, [sp, #8]
    2b72:	464b      	mov	r3, r9
    2b74:	005a      	lsls	r2, r3, #1
    2b76:	031c      	lsls	r4, r3, #12
    2b78:	0d52      	lsrs	r2, r2, #21
    2b7a:	0fdb      	lsrs	r3, r3, #31
    2b7c:	4650      	mov	r0, sl
    2b7e:	0b24      	lsrs	r4, r4, #12
    2b80:	4699      	mov	r9, r3
    2b82:	2a00      	cmp	r2, #0
    2b84:	d100      	bne.n	2b88 <__aeabi_dmul+0x64>
    2b86:	e082      	b.n	2c8e <__aeabi_dmul+0x16a>
    2b88:	f240 73ff 	movw	r3, #2047	; 0x7ff
    2b8c:	429a      	cmp	r2, r3
    2b8e:	d100      	bne.n	2b92 <__aeabi_dmul+0x6e>
    2b90:	e075      	b.n	2c7e <__aeabi_dmul+0x15a>
    2b92:	2380      	movs	r3, #128	; 0x80
    2b94:	0f41      	lsrs	r1, r0, #29
    2b96:	041b      	lsls	r3, r3, #16
    2b98:	430b      	orrs	r3, r1
    2b9a:	4963      	ldr	r1, [pc, #396]	; (2d28 <__aeabi_dmul+0x204>)
    2b9c:	00e4      	lsls	r4, r4, #3
    2b9e:	431c      	orrs	r4, r3
    2ba0:	00c3      	lsls	r3, r0, #3
    2ba2:	1850      	adds	r0, r2, r1
    2ba4:	2200      	movs	r2, #0
    2ba6:	4649      	mov	r1, r9
    2ba8:	1836      	adds	r6, r6, r0
    2baa:	4640      	mov	r0, r8
    2bac:	4069      	eors	r1, r5
    2bae:	9100      	str	r1, [sp, #0]
    2bb0:	1c71      	adds	r1, r6, #1
    2bb2:	9101      	str	r1, [sp, #4]
    2bb4:	4310      	orrs	r0, r2
    2bb6:	280f      	cmp	r0, #15
    2bb8:	d900      	bls.n	2bbc <__aeabi_dmul+0x98>
    2bba:	e0bb      	b.n	2d34 <__aeabi_dmul+0x210>
    2bbc:	0080      	lsls	r0, r0, #2
    2bbe:	4680      	mov	r8, r0
    2bc0:	4641      	mov	r1, r8
    2bc2:	485a      	ldr	r0, [pc, #360]	; (2d2c <__aeabi_dmul+0x208>)
    2bc4:	5841      	ldr	r1, [r0, r1]
    2bc6:	468f      	mov	pc, r1
    2bc8:	465f      	mov	r7, fp
    2bca:	4307      	orrs	r7, r0
    2bcc:	2f00      	cmp	r7, #0
    2bce:	d000      	beq.n	2bd2 <__aeabi_dmul+0xae>
    2bd0:	e092      	b.n	2cf8 <__aeabi_dmul+0x1d4>
    2bd2:	2302      	movs	r3, #2
    2bd4:	f240 0b00 	movw	fp, #0
    2bd8:	f240 0808 	movw	r8, #8
    2bdc:	f240 76ff 	movw	r6, #2047	; 0x7ff
    2be0:	9302      	str	r3, [sp, #8]
    2be2:	e7c6      	b.n	2b72 <__aeabi_dmul+0x4e>
    2be4:	4649      	mov	r1, r9
    2be6:	9100      	str	r1, [sp, #0]
    2be8:	2a02      	cmp	r2, #2
    2bea:	d06c      	beq.n	2cc6 <__aeabi_dmul+0x1a2>
    2bec:	2a03      	cmp	r2, #3
    2bee:	d100      	bne.n	2bf2 <__aeabi_dmul+0xce>
    2bf0:	e214      	b.n	301c <__aeabi_dmul+0x4f8>
    2bf2:	2a01      	cmp	r2, #1
    2bf4:	d000      	beq.n	2bf8 <__aeabi_dmul+0xd4>
    2bf6:	e16c      	b.n	2ed2 <__aeabi_dmul+0x3ae>
    2bf8:	9900      	ldr	r1, [sp, #0]
    2bfa:	2400      	movs	r4, #0
    2bfc:	4011      	ands	r1, r2
    2bfe:	2700      	movs	r7, #0
    2c00:	2200      	movs	r2, #0
    2c02:	b2cd      	uxtb	r5, r1
    2c04:	2100      	movs	r1, #0
    2c06:	0312      	lsls	r2, r2, #12
    2c08:	0d0b      	lsrs	r3, r1, #20
    2c0a:	0b12      	lsrs	r2, r2, #12
    2c0c:	051b      	lsls	r3, r3, #20
    2c0e:	4313      	orrs	r3, r2
    2c10:	f64f 72ff 	movw	r2, #65535	; 0xffff
    2c14:	f2c8 020f 	movt	r2, #32783	; 0x800f
    2c18:	4013      	ands	r3, r2
    2c1a:	0524      	lsls	r4, r4, #20
    2c1c:	431c      	orrs	r4, r3
    2c1e:	0064      	lsls	r4, r4, #1
    2c20:	07ed      	lsls	r5, r5, #31
    2c22:	0864      	lsrs	r4, r4, #1
    2c24:	432c      	orrs	r4, r5
    2c26:	0038      	movs	r0, r7
    2c28:	0021      	movs	r1, r4
    2c2a:	b007      	add	sp, #28
    2c2c:	bc3c      	pop	{r2, r3, r4, r5}
    2c2e:	4690      	mov	r8, r2
    2c30:	4699      	mov	r9, r3
    2c32:	46a2      	mov	sl, r4
    2c34:	46ab      	mov	fp, r5
    2c36:	bdf0      	pop	{r4, r5, r6, r7, pc}
    2c38:	001f      	movs	r7, r3
    2c3a:	4307      	orrs	r7, r0
    2c3c:	2f00      	cmp	r7, #0
    2c3e:	d053      	beq.n	2ce8 <__aeabi_dmul+0x1c4>
    2c40:	2b00      	cmp	r3, #0
    2c42:	d100      	bne.n	2c46 <__aeabi_dmul+0x122>
    2c44:	e192      	b.n	2f6c <__aeabi_dmul+0x448>
    2c46:	0018      	movs	r0, r3
    2c48:	f000 fe7a 	bl	3940 <__clzsi2>
    2c4c:	0003      	movs	r3, r0
    2c4e:	3b0b      	subs	r3, #11
    2c50:	2b1c      	cmp	r3, #28
    2c52:	dd00      	ble.n	2c56 <__aeabi_dmul+0x132>
    2c54:	e184      	b.n	2f60 <__aeabi_dmul+0x43c>
    2c56:	221d      	movs	r2, #29
    2c58:	1ad3      	subs	r3, r2, r3
    2c5a:	0022      	movs	r2, r4
    2c5c:	0001      	movs	r1, r0
    2c5e:	465e      	mov	r6, fp
    2c60:	40da      	lsrs	r2, r3
    2c62:	3908      	subs	r1, #8
    2c64:	408e      	lsls	r6, r1
    2c66:	0013      	movs	r3, r2
    2c68:	408c      	lsls	r4, r1
    2c6a:	4333      	orrs	r3, r6
    2c6c:	469b      	mov	fp, r3
    2c6e:	0027      	movs	r7, r4
    2c70:	2300      	movs	r3, #0
    2c72:	4e2f      	ldr	r6, [pc, #188]	; (2d30 <__aeabi_dmul+0x20c>)
    2c74:	f240 0800 	movw	r8, #0
    2c78:	1a36      	subs	r6, r6, r0
    2c7a:	9302      	str	r3, [sp, #8]
    2c7c:	e779      	b.n	2b72 <__aeabi_dmul+0x4e>
    2c7e:	4653      	mov	r3, sl
    2c80:	4323      	orrs	r3, r4
    2c82:	bb63      	cbnz	r3, 2cde <__aeabi_dmul+0x1ba>
    2c84:	2400      	movs	r4, #0
    2c86:	f240 70ff 	movw	r0, #2047	; 0x7ff
    2c8a:	2202      	movs	r2, #2
    2c8c:	e78b      	b.n	2ba6 <__aeabi_dmul+0x82>
    2c8e:	4653      	mov	r3, sl
    2c90:	4323      	orrs	r3, r4
    2c92:	b303      	cbz	r3, 2cd6 <__aeabi_dmul+0x1b2>
    2c94:	2c00      	cmp	r4, #0
    2c96:	d100      	bne.n	2c9a <__aeabi_dmul+0x176>
    2c98:	e15e      	b.n	2f58 <__aeabi_dmul+0x434>
    2c9a:	0020      	movs	r0, r4
    2c9c:	f000 fe50 	bl	3940 <__clzsi2>
    2ca0:	0003      	movs	r3, r0
    2ca2:	3b0b      	subs	r3, #11
    2ca4:	2b1c      	cmp	r3, #28
    2ca6:	dd00      	ble.n	2caa <__aeabi_dmul+0x186>
    2ca8:	e150      	b.n	2f4c <__aeabi_dmul+0x428>
    2caa:	211d      	movs	r1, #29
    2cac:	1acb      	subs	r3, r1, r3
    2cae:	4651      	mov	r1, sl
    2cb0:	0002      	movs	r2, r0
    2cb2:	40d9      	lsrs	r1, r3
    2cb4:	4653      	mov	r3, sl
    2cb6:	3a08      	subs	r2, #8
    2cb8:	4094      	lsls	r4, r2
    2cba:	4093      	lsls	r3, r2
    2cbc:	430c      	orrs	r4, r1
    2cbe:	4a1c      	ldr	r2, [pc, #112]	; (2d30 <__aeabi_dmul+0x20c>)
    2cc0:	1a10      	subs	r0, r2, r0
    2cc2:	2200      	movs	r2, #0
    2cc4:	e76f      	b.n	2ba6 <__aeabi_dmul+0x82>
    2cc6:	2501      	movs	r5, #1
    2cc8:	9b00      	ldr	r3, [sp, #0]
    2cca:	f240 74ff 	movw	r4, #2047	; 0x7ff
    2cce:	401d      	ands	r5, r3
    2cd0:	2200      	movs	r2, #0
    2cd2:	2700      	movs	r7, #0
    2cd4:	e796      	b.n	2c04 <__aeabi_dmul+0xe0>
    2cd6:	2400      	movs	r4, #0
    2cd8:	2000      	movs	r0, #0
    2cda:	2201      	movs	r2, #1
    2cdc:	e763      	b.n	2ba6 <__aeabi_dmul+0x82>
    2cde:	4653      	mov	r3, sl
    2ce0:	f240 70ff 	movw	r0, #2047	; 0x7ff
    2ce4:	2203      	movs	r2, #3
    2ce6:	e75e      	b.n	2ba6 <__aeabi_dmul+0x82>
    2ce8:	2301      	movs	r3, #1
    2cea:	f240 0b00 	movw	fp, #0
    2cee:	f240 0804 	movw	r8, #4
    2cf2:	2600      	movs	r6, #0
    2cf4:	9302      	str	r3, [sp, #8]
    2cf6:	e73c      	b.n	2b72 <__aeabi_dmul+0x4e>
    2cf8:	2303      	movs	r3, #3
    2cfa:	0007      	movs	r7, r0
    2cfc:	f240 080c 	movw	r8, #12
    2d00:	f240 76ff 	movw	r6, #2047	; 0x7ff
    2d04:	9302      	str	r3, [sp, #8]
    2d06:	e734      	b.n	2b72 <__aeabi_dmul+0x4e>
    2d08:	2280      	movs	r2, #128	; 0x80
    2d0a:	2500      	movs	r5, #0
    2d0c:	2700      	movs	r7, #0
    2d0e:	0312      	lsls	r2, r2, #12
    2d10:	f240 74ff 	movw	r4, #2047	; 0x7ff
    2d14:	e776      	b.n	2c04 <__aeabi_dmul+0xe0>
    2d16:	465c      	mov	r4, fp
    2d18:	003b      	movs	r3, r7
    2d1a:	9a02      	ldr	r2, [sp, #8]
    2d1c:	e764      	b.n	2be8 <__aeabi_dmul+0xc4>
    2d1e:	465c      	mov	r4, fp
    2d20:	003b      	movs	r3, r7
    2d22:	9500      	str	r5, [sp, #0]
    2d24:	9a02      	ldr	r2, [sp, #8]
    2d26:	e75f      	b.n	2be8 <__aeabi_dmul+0xc4>
    2d28:	fffffc01 	.word	0xfffffc01
    2d2c:	00005bf4 	.word	0x00005bf4
    2d30:	fffffc0d 	.word	0xfffffc0d
    2d34:	f64f 75ff 	movw	r5, #65535	; 0xffff
    2d38:	0c3a      	lsrs	r2, r7, #16
    2d3a:	4694      	mov	ip, r2
    2d3c:	0c1a      	lsrs	r2, r3, #16
    2d3e:	402b      	ands	r3, r5
    2d40:	0019      	movs	r1, r3
    2d42:	402f      	ands	r7, r5
    2d44:	4379      	muls	r1, r7
    2d46:	4689      	mov	r9, r1
    2d48:	4661      	mov	r1, ip
    2d4a:	4648      	mov	r0, r9
    2d4c:	4359      	muls	r1, r3
    2d4e:	0015      	movs	r5, r2
    2d50:	4688      	mov	r8, r1
    2d52:	4661      	mov	r1, ip
    2d54:	0c00      	lsrs	r0, r0, #16
    2d56:	4682      	mov	sl, r0
    2d58:	437d      	muls	r5, r7
    2d5a:	4351      	muls	r1, r2
    2d5c:	4445      	add	r5, r8
    2d5e:	4455      	add	r5, sl
    2d60:	9102      	str	r1, [sp, #8]
    2d62:	45a8      	cmp	r8, r5
    2d64:	d904      	bls.n	2d70 <__aeabi_dmul+0x24c>
    2d66:	2080      	movs	r0, #128	; 0x80
    2d68:	0240      	lsls	r0, r0, #9
    2d6a:	4680      	mov	r8, r0
    2d6c:	4441      	add	r1, r8
    2d6e:	9102      	str	r1, [sp, #8]
    2d70:	f64f 78ff 	movw	r8, #65535	; 0xffff
    2d74:	0c29      	lsrs	r1, r5, #16
    2d76:	4640      	mov	r0, r8
    2d78:	9103      	str	r1, [sp, #12]
    2d7a:	4649      	mov	r1, r9
    2d7c:	042d      	lsls	r5, r5, #16
    2d7e:	4001      	ands	r1, r0
    2d80:	4689      	mov	r9, r1
    2d82:	0029      	movs	r1, r5
    2d84:	0c25      	lsrs	r5, r4, #16
    2d86:	4449      	add	r1, r9
    2d88:	4004      	ands	r4, r0
    2d8a:	9104      	str	r1, [sp, #16]
    2d8c:	0021      	movs	r1, r4
    2d8e:	4379      	muls	r1, r7
    2d90:	4688      	mov	r8, r1
    2d92:	4661      	mov	r1, ip
    2d94:	4361      	muls	r1, r4
    2d96:	4689      	mov	r9, r1
    2d98:	4661      	mov	r1, ip
    2d9a:	4369      	muls	r1, r5
    2d9c:	468c      	mov	ip, r1
    2d9e:	4641      	mov	r1, r8
    2da0:	0c09      	lsrs	r1, r1, #16
    2da2:	468a      	mov	sl, r1
    2da4:	436f      	muls	r7, r5
    2da6:	444f      	add	r7, r9
    2da8:	4457      	add	r7, sl
    2daa:	45b9      	cmp	r9, r7
    2dac:	d903      	bls.n	2db6 <__aeabi_dmul+0x292>
    2dae:	2180      	movs	r1, #128	; 0x80
    2db0:	0249      	lsls	r1, r1, #9
    2db2:	4689      	mov	r9, r1
    2db4:	44cc      	add	ip, r9
    2db6:	0c39      	lsrs	r1, r7, #16
    2db8:	4461      	add	r1, ip
    2dba:	f64f 7cff 	movw	ip, #65535	; 0xffff
    2dbe:	9105      	str	r1, [sp, #20]
    2dc0:	4660      	mov	r0, ip
    2dc2:	4641      	mov	r1, r8
    2dc4:	4001      	ands	r1, r0
    2dc6:	4688      	mov	r8, r1
    2dc8:	9903      	ldr	r1, [sp, #12]
    2dca:	043f      	lsls	r7, r7, #16
    2dcc:	4447      	add	r7, r8
    2dce:	4688      	mov	r8, r1
    2dd0:	44b8      	add	r8, r7
    2dd2:	4641      	mov	r1, r8
    2dd4:	9103      	str	r1, [sp, #12]
    2dd6:	4659      	mov	r1, fp
    2dd8:	0c09      	lsrs	r1, r1, #16
    2dda:	4688      	mov	r8, r1
    2ddc:	4658      	mov	r0, fp
    2dde:	4661      	mov	r1, ip
    2de0:	4001      	ands	r1, r0
    2de2:	468c      	mov	ip, r1
    2de4:	4359      	muls	r1, r3
    2de6:	4689      	mov	r9, r1
    2de8:	4641      	mov	r1, r8
    2dea:	434b      	muls	r3, r1
    2dec:	4351      	muls	r1, r2
    2dee:	468a      	mov	sl, r1
    2df0:	4661      	mov	r1, ip
    2df2:	434a      	muls	r2, r1
    2df4:	4649      	mov	r1, r9
    2df6:	0c09      	lsrs	r1, r1, #16
    2df8:	468b      	mov	fp, r1
    2dfa:	18d2      	adds	r2, r2, r3
    2dfc:	445a      	add	r2, fp
    2dfe:	4293      	cmp	r3, r2
    2e00:	d903      	bls.n	2e0a <__aeabi_dmul+0x2e6>
    2e02:	2380      	movs	r3, #128	; 0x80
    2e04:	025b      	lsls	r3, r3, #9
    2e06:	469b      	mov	fp, r3
    2e08:	44da      	add	sl, fp
    2e0a:	0c13      	lsrs	r3, r2, #16
    2e0c:	4453      	add	r3, sl
    2e0e:	f64f 7aff 	movw	sl, #65535	; 0xffff
    2e12:	4648      	mov	r0, r9
    2e14:	4651      	mov	r1, sl
    2e16:	4001      	ands	r1, r0
    2e18:	4689      	mov	r9, r1
    2e1a:	4641      	mov	r1, r8
    2e1c:	4361      	muls	r1, r4
    2e1e:	468a      	mov	sl, r1
    2e20:	4641      	mov	r1, r8
    2e22:	4369      	muls	r1, r5
    2e24:	0412      	lsls	r2, r2, #16
    2e26:	4491      	add	r9, r2
    2e28:	4688      	mov	r8, r1
    2e2a:	4662      	mov	r2, ip
    2e2c:	4661      	mov	r1, ip
    2e2e:	4362      	muls	r2, r4
    2e30:	434d      	muls	r5, r1
    2e32:	0c14      	lsrs	r4, r2, #16
    2e34:	4455      	add	r5, sl
    2e36:	1964      	adds	r4, r4, r5
    2e38:	45a2      	cmp	sl, r4
    2e3a:	d903      	bls.n	2e44 <__aeabi_dmul+0x320>
    2e3c:	2180      	movs	r1, #128	; 0x80
    2e3e:	0249      	lsls	r1, r1, #9
    2e40:	468c      	mov	ip, r1
    2e42:	44e0      	add	r8, ip
    2e44:	9803      	ldr	r0, [sp, #12]
    2e46:	9902      	ldr	r1, [sp, #8]
    2e48:	4684      	mov	ip, r0
    2e4a:	4461      	add	r1, ip
    2e4c:	42b9      	cmp	r1, r7
    2e4e:	41bf      	sbcs	r7, r7
    2e50:	f64f 7cff 	movw	ip, #65535	; 0xffff
    2e54:	000d      	movs	r5, r1
    2e56:	4279      	negs	r1, r7
    2e58:	468a      	mov	sl, r1
    2e5a:	9805      	ldr	r0, [sp, #20]
    2e5c:	4661      	mov	r1, ip
    2e5e:	4684      	mov	ip, r0
    2e60:	0427      	lsls	r7, r4, #16
    2e62:	4011      	ands	r1, r2
    2e64:	187a      	adds	r2, r7, r1
    2e66:	4462      	add	r2, ip
    2e68:	444d      	add	r5, r9
    2e6a:	4694      	mov	ip, r2
    2e6c:	002f      	movs	r7, r5
    2e6e:	454d      	cmp	r5, r9
    2e70:	41ad      	sbcs	r5, r5
    2e72:	44d4      	add	ip, sl
    2e74:	426d      	negs	r5, r5
    2e76:	469b      	mov	fp, r3
    2e78:	4282      	cmp	r2, r0
    2e7a:	4192      	sbcs	r2, r2
    2e7c:	45d4      	cmp	ip, sl
    2e7e:	4189      	sbcs	r1, r1
    2e80:	46a9      	mov	r9, r5
    2e82:	44e3      	add	fp, ip
    2e84:	4252      	negs	r2, r2
    2e86:	4249      	negs	r1, r1
    2e88:	44d9      	add	r9, fp
    2e8a:	0c24      	lsrs	r4, r4, #16
    2e8c:	430a      	orrs	r2, r1
    2e8e:	1912      	adds	r2, r2, r4
    2e90:	45a9      	cmp	r9, r5
    2e92:	41ad      	sbcs	r5, r5
    2e94:	459b      	cmp	fp, r3
    2e96:	41a4      	sbcs	r4, r4
    2e98:	464b      	mov	r3, r9
    2e9a:	426d      	negs	r5, r5
    2e9c:	4264      	negs	r4, r4
    2e9e:	432c      	orrs	r4, r5
    2ea0:	1914      	adds	r4, r2, r4
    2ea2:	4444      	add	r4, r8
    2ea4:	0ddb      	lsrs	r3, r3, #23
    2ea6:	0264      	lsls	r4, r4, #9
    2ea8:	431c      	orrs	r4, r3
    2eaa:	9b04      	ldr	r3, [sp, #16]
    2eac:	027d      	lsls	r5, r7, #9
    2eae:	431d      	orrs	r5, r3
    2eb0:	002b      	movs	r3, r5
    2eb2:	1e5d      	subs	r5, r3, #1
    2eb4:	41ab      	sbcs	r3, r5
    2eb6:	0dff      	lsrs	r7, r7, #23
    2eb8:	431f      	orrs	r7, r3
    2eba:	464b      	mov	r3, r9
    2ebc:	025b      	lsls	r3, r3, #9
    2ebe:	433b      	orrs	r3, r7
    2ec0:	01e2      	lsls	r2, r4, #7
    2ec2:	d557      	bpl.n	2f74 <__aeabi_dmul+0x450>
    2ec4:	2701      	movs	r7, #1
    2ec6:	085a      	lsrs	r2, r3, #1
    2ec8:	403b      	ands	r3, r7
    2eca:	4313      	orrs	r3, r2
    2ecc:	07e7      	lsls	r7, r4, #31
    2ece:	433b      	orrs	r3, r7
    2ed0:	0864      	lsrs	r4, r4, #1
    2ed2:	f240 32ff 	movw	r2, #1023	; 0x3ff
    2ed6:	9901      	ldr	r1, [sp, #4]
    2ed8:	188e      	adds	r6, r1, r2
    2eda:	2e00      	cmp	r6, #0
    2edc:	dd4c      	ble.n	2f78 <__aeabi_dmul+0x454>
    2ede:	075a      	lsls	r2, r3, #29
    2ee0:	d009      	beq.n	2ef6 <__aeabi_dmul+0x3d2>
    2ee2:	220f      	movs	r2, #15
    2ee4:	401a      	ands	r2, r3
    2ee6:	2a04      	cmp	r2, #4
    2ee8:	d005      	beq.n	2ef6 <__aeabi_dmul+0x3d2>
    2eea:	1d1a      	adds	r2, r3, #4
    2eec:	429a      	cmp	r2, r3
    2eee:	419b      	sbcs	r3, r3
    2ef0:	425b      	negs	r3, r3
    2ef2:	18e4      	adds	r4, r4, r3
    2ef4:	0013      	movs	r3, r2
    2ef6:	01e2      	lsls	r2, r4, #7
    2ef8:	d505      	bpl.n	2f06 <__aeabi_dmul+0x3e2>
    2efa:	4a4d      	ldr	r2, [pc, #308]	; (3030 <__aeabi_dmul+0x50c>)
    2efc:	9901      	ldr	r1, [sp, #4]
    2efe:	4014      	ands	r4, r2
    2f00:	f240 4200 	movw	r2, #1024	; 0x400
    2f04:	188e      	adds	r6, r1, r2
    2f06:	f240 72fe 	movw	r2, #2046	; 0x7fe
    2f0a:	4296      	cmp	r6, r2
    2f0c:	dd00      	ble.n	2f10 <__aeabi_dmul+0x3ec>
    2f0e:	e6da      	b.n	2cc6 <__aeabi_dmul+0x1a2>
    2f10:	0767      	lsls	r7, r4, #29
    2f12:	0264      	lsls	r4, r4, #9
    2f14:	0b22      	lsrs	r2, r4, #12
    2f16:	2501      	movs	r5, #1
    2f18:	f240 74ff 	movw	r4, #2047	; 0x7ff
    2f1c:	08db      	lsrs	r3, r3, #3
    2f1e:	431f      	orrs	r7, r3
    2f20:	9b00      	ldr	r3, [sp, #0]
    2f22:	4034      	ands	r4, r6
    2f24:	401d      	ands	r5, r3
    2f26:	e66d      	b.n	2c04 <__aeabi_dmul+0xe0>
    2f28:	2280      	movs	r2, #128	; 0x80
    2f2a:	4659      	mov	r1, fp
    2f2c:	0312      	lsls	r2, r2, #12
    2f2e:	4211      	tst	r1, r2
    2f30:	d007      	beq.n	2f42 <__aeabi_dmul+0x41e>
    2f32:	4214      	tst	r4, r2
    2f34:	d105      	bne.n	2f42 <__aeabi_dmul+0x41e>
    2f36:	4322      	orrs	r2, r4
    2f38:	0312      	lsls	r2, r2, #12
    2f3a:	0b12      	lsrs	r2, r2, #12
    2f3c:	464d      	mov	r5, r9
    2f3e:	001f      	movs	r7, r3
    2f40:	e6e6      	b.n	2d10 <__aeabi_dmul+0x1ec>
    2f42:	465b      	mov	r3, fp
    2f44:	431a      	orrs	r2, r3
    2f46:	0312      	lsls	r2, r2, #12
    2f48:	0b12      	lsrs	r2, r2, #12
    2f4a:	e6e1      	b.n	2d10 <__aeabi_dmul+0x1ec>
    2f4c:	0003      	movs	r3, r0
    2f4e:	4654      	mov	r4, sl
    2f50:	3b28      	subs	r3, #40	; 0x28
    2f52:	409c      	lsls	r4, r3
    2f54:	2300      	movs	r3, #0
    2f56:	e6b2      	b.n	2cbe <__aeabi_dmul+0x19a>
    2f58:	f000 fcf2 	bl	3940 <__clzsi2>
    2f5c:	3020      	adds	r0, #32
    2f5e:	e69f      	b.n	2ca0 <__aeabi_dmul+0x17c>
    2f60:	0003      	movs	r3, r0
    2f62:	3b28      	subs	r3, #40	; 0x28
    2f64:	409c      	lsls	r4, r3
    2f66:	2700      	movs	r7, #0
    2f68:	46a3      	mov	fp, r4
    2f6a:	e681      	b.n	2c70 <__aeabi_dmul+0x14c>
    2f6c:	f000 fce8 	bl	3940 <__clzsi2>
    2f70:	3020      	adds	r0, #32
    2f72:	e66b      	b.n	2c4c <__aeabi_dmul+0x128>
    2f74:	9601      	str	r6, [sp, #4]
    2f76:	e7ac      	b.n	2ed2 <__aeabi_dmul+0x3ae>
    2f78:	2501      	movs	r5, #1
    2f7a:	1baa      	subs	r2, r5, r6
    2f7c:	2a38      	cmp	r2, #56	; 0x38
    2f7e:	dd05      	ble.n	2f8c <__aeabi_dmul+0x468>
    2f80:	9b00      	ldr	r3, [sp, #0]
    2f82:	2400      	movs	r4, #0
    2f84:	401d      	ands	r5, r3
    2f86:	2200      	movs	r2, #0
    2f88:	2700      	movs	r7, #0
    2f8a:	e63b      	b.n	2c04 <__aeabi_dmul+0xe0>
    2f8c:	2a1f      	cmp	r2, #31
    2f8e:	dc20      	bgt.n	2fd2 <__aeabi_dmul+0x4ae>
    2f90:	2520      	movs	r5, #32
    2f92:	0020      	movs	r0, r4
    2f94:	1aad      	subs	r5, r5, r2
    2f96:	001e      	movs	r6, r3
    2f98:	40ab      	lsls	r3, r5
    2f9a:	40a8      	lsls	r0, r5
    2f9c:	40d6      	lsrs	r6, r2
    2f9e:	1e5d      	subs	r5, r3, #1
    2fa0:	41ab      	sbcs	r3, r5
    2fa2:	4330      	orrs	r0, r6
    2fa4:	4318      	orrs	r0, r3
    2fa6:	40d4      	lsrs	r4, r2
    2fa8:	0743      	lsls	r3, r0, #29
    2faa:	d009      	beq.n	2fc0 <__aeabi_dmul+0x49c>
    2fac:	230f      	movs	r3, #15
    2fae:	4003      	ands	r3, r0
    2fb0:	2b04      	cmp	r3, #4
    2fb2:	d005      	beq.n	2fc0 <__aeabi_dmul+0x49c>
    2fb4:	0003      	movs	r3, r0
    2fb6:	1d18      	adds	r0, r3, #4
    2fb8:	4298      	cmp	r0, r3
    2fba:	419b      	sbcs	r3, r3
    2fbc:	425b      	negs	r3, r3
    2fbe:	18e4      	adds	r4, r4, r3
    2fc0:	0223      	lsls	r3, r4, #8
    2fc2:	d51e      	bpl.n	3002 <__aeabi_dmul+0x4de>
    2fc4:	2501      	movs	r5, #1
    2fc6:	9b00      	ldr	r3, [sp, #0]
    2fc8:	2401      	movs	r4, #1
    2fca:	401d      	ands	r5, r3
    2fcc:	2200      	movs	r2, #0
    2fce:	2700      	movs	r7, #0
    2fd0:	e618      	b.n	2c04 <__aeabi_dmul+0xe0>
    2fd2:	201f      	movs	r0, #31
    2fd4:	0027      	movs	r7, r4
    2fd6:	4240      	negs	r0, r0
    2fd8:	1b86      	subs	r6, r0, r6
    2fda:	40f7      	lsrs	r7, r6
    2fdc:	2a20      	cmp	r2, #32
    2fde:	d01b      	beq.n	3018 <__aeabi_dmul+0x4f4>
    2fe0:	305f      	adds	r0, #95	; 0x5f
    2fe2:	1a82      	subs	r2, r0, r2
    2fe4:	4094      	lsls	r4, r2
    2fe6:	4323      	orrs	r3, r4
    2fe8:	1e5c      	subs	r4, r3, #1
    2fea:	41a3      	sbcs	r3, r4
    2fec:	433b      	orrs	r3, r7
    2fee:	2707      	movs	r7, #7
    2ff0:	401f      	ands	r7, r3
    2ff2:	2200      	movs	r2, #0
    2ff4:	b14f      	cbz	r7, 300a <__aeabi_dmul+0x4e6>
    2ff6:	220f      	movs	r2, #15
    2ff8:	2400      	movs	r4, #0
    2ffa:	401a      	ands	r2, r3
    2ffc:	0018      	movs	r0, r3
    2ffe:	2a04      	cmp	r2, #4
    3000:	d1d9      	bne.n	2fb6 <__aeabi_dmul+0x492>
    3002:	0003      	movs	r3, r0
    3004:	0767      	lsls	r7, r4, #29
    3006:	0264      	lsls	r4, r4, #9
    3008:	0b22      	lsrs	r2, r4, #12
    300a:	2501      	movs	r5, #1
    300c:	08db      	lsrs	r3, r3, #3
    300e:	431f      	orrs	r7, r3
    3010:	9b00      	ldr	r3, [sp, #0]
    3012:	2400      	movs	r4, #0
    3014:	401d      	ands	r5, r3
    3016:	e5f5      	b.n	2c04 <__aeabi_dmul+0xe0>
    3018:	2400      	movs	r4, #0
    301a:	e7e4      	b.n	2fe6 <__aeabi_dmul+0x4c2>
    301c:	2280      	movs	r2, #128	; 0x80
    301e:	2501      	movs	r5, #1
    3020:	0312      	lsls	r2, r2, #12
    3022:	4322      	orrs	r2, r4
    3024:	9900      	ldr	r1, [sp, #0]
    3026:	0312      	lsls	r2, r2, #12
    3028:	0b12      	lsrs	r2, r2, #12
    302a:	400d      	ands	r5, r1
    302c:	001f      	movs	r7, r3
    302e:	e66f      	b.n	2d10 <__aeabi_dmul+0x1ec>
    3030:	feffffff 	.word	0xfeffffff

00003034 <__aeabi_dsub>:
    3034:	b5f0      	push	{r4, r5, r6, r7, lr}
    3036:	464f      	mov	r7, r9
    3038:	4646      	mov	r6, r8
    303a:	46d6      	mov	lr, sl
    303c:	030c      	lsls	r4, r1, #12
    303e:	b5c0      	push	{r6, r7, lr}
    3040:	0fcd      	lsrs	r5, r1, #31
    3042:	004f      	lsls	r7, r1, #1
    3044:	0a61      	lsrs	r1, r4, #9
    3046:	0f44      	lsrs	r4, r0, #29
    3048:	430c      	orrs	r4, r1
    304a:	00c1      	lsls	r1, r0, #3
    304c:	0058      	lsls	r0, r3, #1
    304e:	0d40      	lsrs	r0, r0, #21
    3050:	4684      	mov	ip, r0
    3052:	f240 79ff 	movw	r9, #2047	; 0x7ff
    3056:	468a      	mov	sl, r1
    3058:	000e      	movs	r6, r1
    305a:	0319      	lsls	r1, r3, #12
    305c:	0f50      	lsrs	r0, r2, #29
    305e:	0a49      	lsrs	r1, r1, #9
    3060:	0d7f      	lsrs	r7, r7, #21
    3062:	46a8      	mov	r8, r5
    3064:	0fdb      	lsrs	r3, r3, #31
    3066:	4301      	orrs	r1, r0
    3068:	00d2      	lsls	r2, r2, #3
    306a:	45cc      	cmp	ip, r9
    306c:	d100      	bne.n	3070 <__aeabi_dsub+0x3c>
    306e:	e0df      	b.n	3230 <__aeabi_dsub+0x1fc>
    3070:	f240 0901 	movw	r9, #1
    3074:	4648      	mov	r0, r9
    3076:	4043      	eors	r3, r0
    3078:	42ab      	cmp	r3, r5
    307a:	d100      	bne.n	307e <__aeabi_dsub+0x4a>
    307c:	e0aa      	b.n	31d4 <__aeabi_dsub+0x1a0>
    307e:	4660      	mov	r0, ip
    3080:	1a3d      	subs	r5, r7, r0
    3082:	2d00      	cmp	r5, #0
    3084:	dc00      	bgt.n	3088 <__aeabi_dsub+0x54>
    3086:	e10f      	b.n	32a8 <__aeabi_dsub+0x274>
    3088:	b988      	cbnz	r0, 30ae <__aeabi_dsub+0x7a>
    308a:	000b      	movs	r3, r1
    308c:	4313      	orrs	r3, r2
    308e:	2b00      	cmp	r3, #0
    3090:	d100      	bne.n	3094 <__aeabi_dsub+0x60>
    3092:	e0e0      	b.n	3256 <__aeabi_dsub+0x222>
    3094:	1e6b      	subs	r3, r5, #1
    3096:	2b00      	cmp	r3, #0
    3098:	d000      	beq.n	309c <__aeabi_dsub+0x68>
    309a:	e160      	b.n	335e <__aeabi_dsub+0x32a>
    309c:	4653      	mov	r3, sl
    309e:	1a9e      	subs	r6, r3, r2
    30a0:	45b2      	cmp	sl, r6
    30a2:	4180      	sbcs	r0, r0
    30a4:	1a64      	subs	r4, r4, r1
    30a6:	4240      	negs	r0, r0
    30a8:	1a24      	subs	r4, r4, r0
    30aa:	2701      	movs	r7, #1
    30ac:	e01f      	b.n	30ee <__aeabi_dsub+0xba>
    30ae:	f240 73ff 	movw	r3, #2047	; 0x7ff
    30b2:	429f      	cmp	r7, r3
    30b4:	d048      	beq.n	3148 <__aeabi_dsub+0x114>
    30b6:	2380      	movs	r3, #128	; 0x80
    30b8:	041b      	lsls	r3, r3, #16
    30ba:	4319      	orrs	r1, r3
    30bc:	2d38      	cmp	r5, #56	; 0x38
    30be:	dd00      	ble.n	30c2 <__aeabi_dsub+0x8e>
    30c0:	e12d      	b.n	331e <__aeabi_dsub+0x2ea>
    30c2:	2d1f      	cmp	r5, #31
    30c4:	dd00      	ble.n	30c8 <__aeabi_dsub+0x94>
    30c6:	e160      	b.n	338a <__aeabi_dsub+0x356>
    30c8:	2320      	movs	r3, #32
    30ca:	000e      	movs	r6, r1
    30cc:	1b5b      	subs	r3, r3, r5
    30ce:	0010      	movs	r0, r2
    30d0:	409a      	lsls	r2, r3
    30d2:	409e      	lsls	r6, r3
    30d4:	40e8      	lsrs	r0, r5
    30d6:	1e53      	subs	r3, r2, #1
    30d8:	419a      	sbcs	r2, r3
    30da:	40e9      	lsrs	r1, r5
    30dc:	4306      	orrs	r6, r0
    30de:	4316      	orrs	r6, r2
    30e0:	4653      	mov	r3, sl
    30e2:	1b9e      	subs	r6, r3, r6
    30e4:	1a61      	subs	r1, r4, r1
    30e6:	45b2      	cmp	sl, r6
    30e8:	41a4      	sbcs	r4, r4
    30ea:	4264      	negs	r4, r4
    30ec:	1b0c      	subs	r4, r1, r4
    30ee:	0223      	lsls	r3, r4, #8
    30f0:	d400      	bmi.n	30f4 <__aeabi_dsub+0xc0>
    30f2:	e0ce      	b.n	3292 <__aeabi_dsub+0x25e>
    30f4:	0264      	lsls	r4, r4, #9
    30f6:	0a65      	lsrs	r5, r4, #9
    30f8:	2d00      	cmp	r5, #0
    30fa:	d100      	bne.n	30fe <__aeabi_dsub+0xca>
    30fc:	e0f3      	b.n	32e6 <__aeabi_dsub+0x2b2>
    30fe:	0028      	movs	r0, r5
    3100:	f000 fc1e 	bl	3940 <__clzsi2>
    3104:	0003      	movs	r3, r0
    3106:	3b08      	subs	r3, #8
    3108:	2b1f      	cmp	r3, #31
    310a:	dd00      	ble.n	310e <__aeabi_dsub+0xda>
    310c:	e0f4      	b.n	32f8 <__aeabi_dsub+0x2c4>
    310e:	2220      	movs	r2, #32
    3110:	0034      	movs	r4, r6
    3112:	1ad2      	subs	r2, r2, r3
    3114:	409d      	lsls	r5, r3
    3116:	40d4      	lsrs	r4, r2
    3118:	409e      	lsls	r6, r3
    311a:	4325      	orrs	r5, r4
    311c:	429f      	cmp	r7, r3
    311e:	dd00      	ble.n	3122 <__aeabi_dsub+0xee>
    3120:	e0f1      	b.n	3306 <__aeabi_dsub+0x2d2>
    3122:	1bdf      	subs	r7, r3, r7
    3124:	1c7b      	adds	r3, r7, #1
    3126:	2b1f      	cmp	r3, #31
    3128:	dd00      	ble.n	312c <__aeabi_dsub+0xf8>
    312a:	e11f      	b.n	336c <__aeabi_dsub+0x338>
    312c:	2220      	movs	r2, #32
    312e:	0030      	movs	r0, r6
    3130:	1ad2      	subs	r2, r2, r3
    3132:	0029      	movs	r1, r5
    3134:	4096      	lsls	r6, r2
    3136:	002c      	movs	r4, r5
    3138:	4091      	lsls	r1, r2
    313a:	40d8      	lsrs	r0, r3
    313c:	1e72      	subs	r2, r6, #1
    313e:	4196      	sbcs	r6, r2
    3140:	40dc      	lsrs	r4, r3
    3142:	2700      	movs	r7, #0
    3144:	4301      	orrs	r1, r0
    3146:	430e      	orrs	r6, r1
    3148:	0773      	lsls	r3, r6, #29
    314a:	d009      	beq.n	3160 <__aeabi_dsub+0x12c>
    314c:	230f      	movs	r3, #15
    314e:	4033      	ands	r3, r6
    3150:	2b04      	cmp	r3, #4
    3152:	d005      	beq.n	3160 <__aeabi_dsub+0x12c>
    3154:	1d33      	adds	r3, r6, #4
    3156:	42b3      	cmp	r3, r6
    3158:	41b6      	sbcs	r6, r6
    315a:	4276      	negs	r6, r6
    315c:	19a4      	adds	r4, r4, r6
    315e:	001e      	movs	r6, r3
    3160:	0223      	lsls	r3, r4, #8
    3162:	d528      	bpl.n	31b6 <__aeabi_dsub+0x182>
    3164:	f240 73ff 	movw	r3, #2047	; 0x7ff
    3168:	3701      	adds	r7, #1
    316a:	429f      	cmp	r7, r3
    316c:	d100      	bne.n	3170 <__aeabi_dsub+0x13c>
    316e:	e0ce      	b.n	330e <__aeabi_dsub+0x2da>
    3170:	401f      	ands	r7, r3
    3172:	2501      	movs	r5, #1
    3174:	4643      	mov	r3, r8
    3176:	4ac1      	ldr	r2, [pc, #772]	; (347c <__aeabi_dsub+0x448>)
    3178:	08f6      	lsrs	r6, r6, #3
    317a:	4014      	ands	r4, r2
    317c:	0762      	lsls	r2, r4, #29
    317e:	0264      	lsls	r4, r4, #9
    3180:	4316      	orrs	r6, r2
    3182:	0b24      	lsrs	r4, r4, #12
    3184:	401d      	ands	r5, r3
    3186:	2100      	movs	r1, #0
    3188:	f64f 72ff 	movw	r2, #65535	; 0xffff
    318c:	0324      	lsls	r4, r4, #12
    318e:	0b23      	lsrs	r3, r4, #12
    3190:	0d0c      	lsrs	r4, r1, #20
    3192:	0524      	lsls	r4, r4, #20
    3194:	431c      	orrs	r4, r3
    3196:	f2c8 020f 	movt	r2, #32783	; 0x800f
    319a:	053b      	lsls	r3, r7, #20
    319c:	4014      	ands	r4, r2
    319e:	4323      	orrs	r3, r4
    31a0:	005b      	lsls	r3, r3, #1
    31a2:	07ed      	lsls	r5, r5, #31
    31a4:	085b      	lsrs	r3, r3, #1
    31a6:	432b      	orrs	r3, r5
    31a8:	0030      	movs	r0, r6
    31aa:	0019      	movs	r1, r3
    31ac:	bc1c      	pop	{r2, r3, r4}
    31ae:	4690      	mov	r8, r2
    31b0:	4699      	mov	r9, r3
    31b2:	46a2      	mov	sl, r4
    31b4:	bdf0      	pop	{r4, r5, r6, r7, pc}
    31b6:	2501      	movs	r5, #1
    31b8:	4643      	mov	r3, r8
    31ba:	0762      	lsls	r2, r4, #29
    31bc:	08f6      	lsrs	r6, r6, #3
    31be:	4316      	orrs	r6, r2
    31c0:	08e4      	lsrs	r4, r4, #3
    31c2:	401d      	ands	r5, r3
    31c4:	f240 73ff 	movw	r3, #2047	; 0x7ff
    31c8:	429f      	cmp	r7, r3
    31ca:	d037      	beq.n	323c <__aeabi_dsub+0x208>
    31cc:	0324      	lsls	r4, r4, #12
    31ce:	0b24      	lsrs	r4, r4, #12
    31d0:	401f      	ands	r7, r3
    31d2:	e7d8      	b.n	3186 <__aeabi_dsub+0x152>
    31d4:	4663      	mov	r3, ip
    31d6:	1afb      	subs	r3, r7, r3
    31d8:	2b00      	cmp	r3, #0
    31da:	dc00      	bgt.n	31de <__aeabi_dsub+0x1aa>
    31dc:	e0a5      	b.n	332a <__aeabi_dsub+0x2f6>
    31de:	4660      	mov	r0, ip
    31e0:	b3d8      	cbz	r0, 325a <__aeabi_dsub+0x226>
    31e2:	f240 7cff 	movw	ip, #2047	; 0x7ff
    31e6:	4567      	cmp	r7, ip
    31e8:	d0ae      	beq.n	3148 <__aeabi_dsub+0x114>
    31ea:	2680      	movs	r6, #128	; 0x80
    31ec:	0436      	lsls	r6, r6, #16
    31ee:	4331      	orrs	r1, r6
    31f0:	2b38      	cmp	r3, #56	; 0x38
    31f2:	dc00      	bgt.n	31f6 <__aeabi_dsub+0x1c2>
    31f4:	e10a      	b.n	340c <__aeabi_dsub+0x3d8>
    31f6:	430a      	orrs	r2, r1
    31f8:	0016      	movs	r6, r2
    31fa:	2100      	movs	r1, #0
    31fc:	1e72      	subs	r2, r6, #1
    31fe:	4196      	sbcs	r6, r2
    3200:	4456      	add	r6, sl
    3202:	4556      	cmp	r6, sl
    3204:	4180      	sbcs	r0, r0
    3206:	1909      	adds	r1, r1, r4
    3208:	4244      	negs	r4, r0
    320a:	190c      	adds	r4, r1, r4
    320c:	0223      	lsls	r3, r4, #8
    320e:	d540      	bpl.n	3292 <__aeabi_dsub+0x25e>
    3210:	f240 73ff 	movw	r3, #2047	; 0x7ff
    3214:	3701      	adds	r7, #1
    3216:	429f      	cmp	r7, r3
    3218:	d100      	bne.n	321c <__aeabi_dsub+0x1e8>
    321a:	e15e      	b.n	34da <__aeabi_dsub+0x4a6>
    321c:	2201      	movs	r2, #1
    321e:	4b97      	ldr	r3, [pc, #604]	; (347c <__aeabi_dsub+0x448>)
    3220:	401c      	ands	r4, r3
    3222:	0873      	lsrs	r3, r6, #1
    3224:	4016      	ands	r6, r2
    3226:	431e      	orrs	r6, r3
    3228:	07e2      	lsls	r2, r4, #31
    322a:	4316      	orrs	r6, r2
    322c:	0864      	lsrs	r4, r4, #1
    322e:	e78b      	b.n	3148 <__aeabi_dsub+0x114>
    3230:	0008      	movs	r0, r1
    3232:	4310      	orrs	r0, r2
    3234:	2800      	cmp	r0, #0
    3236:	d000      	beq.n	323a <__aeabi_dsub+0x206>
    3238:	e71e      	b.n	3078 <__aeabi_dsub+0x44>
    323a:	e719      	b.n	3070 <__aeabi_dsub+0x3c>
    323c:	0023      	movs	r3, r4
    323e:	4333      	orrs	r3, r6
    3240:	2b00      	cmp	r3, #0
    3242:	d100      	bne.n	3246 <__aeabi_dsub+0x212>
    3244:	e1df      	b.n	3606 <__aeabi_dsub+0x5d2>
    3246:	2380      	movs	r3, #128	; 0x80
    3248:	031b      	lsls	r3, r3, #12
    324a:	431c      	orrs	r4, r3
    324c:	0324      	lsls	r4, r4, #12
    324e:	0b24      	lsrs	r4, r4, #12
    3250:	f240 77ff 	movw	r7, #2047	; 0x7ff
    3254:	e797      	b.n	3186 <__aeabi_dsub+0x152>
    3256:	002f      	movs	r7, r5
    3258:	e776      	b.n	3148 <__aeabi_dsub+0x114>
    325a:	0008      	movs	r0, r1
    325c:	4310      	orrs	r0, r2
    325e:	2800      	cmp	r0, #0
    3260:	d100      	bne.n	3264 <__aeabi_dsub+0x230>
    3262:	e0d1      	b.n	3408 <__aeabi_dsub+0x3d4>
    3264:	1e58      	subs	r0, r3, #1
    3266:	2800      	cmp	r0, #0
    3268:	d000      	beq.n	326c <__aeabi_dsub+0x238>
    326a:	e0f3      	b.n	3454 <__aeabi_dsub+0x420>
    326c:	4452      	add	r2, sl
    326e:	4552      	cmp	r2, sl
    3270:	4180      	sbcs	r0, r0
    3272:	1864      	adds	r4, r4, r1
    3274:	4240      	negs	r0, r0
    3276:	1824      	adds	r4, r4, r0
    3278:	0016      	movs	r6, r2
    327a:	2701      	movs	r7, #1
    327c:	0223      	lsls	r3, r4, #8
    327e:	d508      	bpl.n	3292 <__aeabi_dsub+0x25e>
    3280:	2702      	movs	r7, #2
    3282:	e7cb      	b.n	321c <__aeabi_dsub+0x1e8>
    3284:	4664      	mov	r4, ip
    3286:	432c      	orrs	r4, r5
    3288:	2c00      	cmp	r4, #0
    328a:	d100      	bne.n	328e <__aeabi_dsub+0x25a>
    328c:	e1dc      	b.n	3648 <__aeabi_dsub+0x614>
    328e:	002c      	movs	r4, r5
    3290:	4666      	mov	r6, ip
    3292:	0773      	lsls	r3, r6, #29
    3294:	d000      	beq.n	3298 <__aeabi_dsub+0x264>
    3296:	e759      	b.n	314c <__aeabi_dsub+0x118>
    3298:	0763      	lsls	r3, r4, #29
    329a:	08f6      	lsrs	r6, r6, #3
    329c:	431e      	orrs	r6, r3
    329e:	2501      	movs	r5, #1
    32a0:	4643      	mov	r3, r8
    32a2:	08e4      	lsrs	r4, r4, #3
    32a4:	401d      	ands	r5, r3
    32a6:	e78d      	b.n	31c4 <__aeabi_dsub+0x190>
    32a8:	2d00      	cmp	r5, #0
    32aa:	d17d      	bne.n	33a8 <__aeabi_dsub+0x374>
    32ac:	f240 75ff 	movw	r5, #2047	; 0x7ff
    32b0:	1c78      	adds	r0, r7, #1
    32b2:	4005      	ands	r5, r0
    32b4:	2d01      	cmp	r5, #1
    32b6:	dc00      	bgt.n	32ba <__aeabi_dsub+0x286>
    32b8:	e0fe      	b.n	34b8 <__aeabi_dsub+0x484>
    32ba:	4650      	mov	r0, sl
    32bc:	1a80      	subs	r0, r0, r2
    32be:	4582      	cmp	sl, r0
    32c0:	41b6      	sbcs	r6, r6
    32c2:	1a65      	subs	r5, r4, r1
    32c4:	4276      	negs	r6, r6
    32c6:	1bad      	subs	r5, r5, r6
    32c8:	4684      	mov	ip, r0
    32ca:	0228      	lsls	r0, r5, #8
    32cc:	d400      	bmi.n	32d0 <__aeabi_dsub+0x29c>
    32ce:	e091      	b.n	33f4 <__aeabi_dsub+0x3c0>
    32d0:	4650      	mov	r0, sl
    32d2:	1a16      	subs	r6, r2, r0
    32d4:	42b2      	cmp	r2, r6
    32d6:	4192      	sbcs	r2, r2
    32d8:	1b0c      	subs	r4, r1, r4
    32da:	4255      	negs	r5, r2
    32dc:	1b65      	subs	r5, r4, r5
    32de:	4698      	mov	r8, r3
    32e0:	2d00      	cmp	r5, #0
    32e2:	d000      	beq.n	32e6 <__aeabi_dsub+0x2b2>
    32e4:	e70b      	b.n	30fe <__aeabi_dsub+0xca>
    32e6:	0030      	movs	r0, r6
    32e8:	f000 fb2a 	bl	3940 <__clzsi2>
    32ec:	3020      	adds	r0, #32
    32ee:	0003      	movs	r3, r0
    32f0:	3b08      	subs	r3, #8
    32f2:	2b1f      	cmp	r3, #31
    32f4:	dc00      	bgt.n	32f8 <__aeabi_dsub+0x2c4>
    32f6:	e70a      	b.n	310e <__aeabi_dsub+0xda>
    32f8:	0035      	movs	r5, r6
    32fa:	3828      	subs	r0, #40	; 0x28
    32fc:	4085      	lsls	r5, r0
    32fe:	2600      	movs	r6, #0
    3300:	429f      	cmp	r7, r3
    3302:	dc00      	bgt.n	3306 <__aeabi_dsub+0x2d2>
    3304:	e70d      	b.n	3122 <__aeabi_dsub+0xee>
    3306:	4c5d      	ldr	r4, [pc, #372]	; (347c <__aeabi_dsub+0x448>)
    3308:	1aff      	subs	r7, r7, r3
    330a:	402c      	ands	r4, r5
    330c:	e71c      	b.n	3148 <__aeabi_dsub+0x114>
    330e:	2501      	movs	r5, #1
    3310:	4643      	mov	r3, r8
    3312:	f240 77ff 	movw	r7, #2047	; 0x7ff
    3316:	401d      	ands	r5, r3
    3318:	2400      	movs	r4, #0
    331a:	2600      	movs	r6, #0
    331c:	e733      	b.n	3186 <__aeabi_dsub+0x152>
    331e:	430a      	orrs	r2, r1
    3320:	0016      	movs	r6, r2
    3322:	2100      	movs	r1, #0
    3324:	1e72      	subs	r2, r6, #1
    3326:	4196      	sbcs	r6, r2
    3328:	e6da      	b.n	30e0 <__aeabi_dsub+0xac>
    332a:	2b00      	cmp	r3, #0
    332c:	d000      	beq.n	3330 <__aeabi_dsub+0x2fc>
    332e:	e0ea      	b.n	3506 <__aeabi_dsub+0x4d2>
    3330:	f240 7cff 	movw	ip, #2047	; 0x7ff
    3334:	4660      	mov	r0, ip
    3336:	1c7b      	adds	r3, r7, #1
    3338:	4018      	ands	r0, r3
    333a:	2801      	cmp	r0, #1
    333c:	dc00      	bgt.n	3340 <__aeabi_dsub+0x30c>
    333e:	e09f      	b.n	3480 <__aeabi_dsub+0x44c>
    3340:	4563      	cmp	r3, ip
    3342:	d100      	bne.n	3346 <__aeabi_dsub+0x312>
    3344:	e0c7      	b.n	34d6 <__aeabi_dsub+0x4a2>
    3346:	4452      	add	r2, sl
    3348:	4552      	cmp	r2, sl
    334a:	4180      	sbcs	r0, r0
    334c:	1864      	adds	r4, r4, r1
    334e:	4240      	negs	r0, r0
    3350:	1824      	adds	r4, r4, r0
    3352:	07e6      	lsls	r6, r4, #31
    3354:	0852      	lsrs	r2, r2, #1
    3356:	4316      	orrs	r6, r2
    3358:	0864      	lsrs	r4, r4, #1
    335a:	001f      	movs	r7, r3
    335c:	e6f4      	b.n	3148 <__aeabi_dsub+0x114>
    335e:	f240 7cff 	movw	ip, #2047	; 0x7ff
    3362:	4565      	cmp	r5, ip
    3364:	d100      	bne.n	3368 <__aeabi_dsub+0x334>
    3366:	e082      	b.n	346e <__aeabi_dsub+0x43a>
    3368:	001d      	movs	r5, r3
    336a:	e6a7      	b.n	30bc <__aeabi_dsub+0x88>
    336c:	0029      	movs	r1, r5
    336e:	3f1f      	subs	r7, #31
    3370:	40f9      	lsrs	r1, r7
    3372:	2b20      	cmp	r3, #32
    3374:	d07e      	beq.n	3474 <__aeabi_dsub+0x440>
    3376:	2240      	movs	r2, #64	; 0x40
    3378:	1ad3      	subs	r3, r2, r3
    337a:	409d      	lsls	r5, r3
    337c:	432e      	orrs	r6, r5
    337e:	1e75      	subs	r5, r6, #1
    3380:	41ae      	sbcs	r6, r5
    3382:	2400      	movs	r4, #0
    3384:	430e      	orrs	r6, r1
    3386:	2700      	movs	r7, #0
    3388:	e783      	b.n	3292 <__aeabi_dsub+0x25e>
    338a:	002b      	movs	r3, r5
    338c:	000e      	movs	r6, r1
    338e:	3b20      	subs	r3, #32
    3390:	40de      	lsrs	r6, r3
    3392:	2d20      	cmp	r5, #32
    3394:	d070      	beq.n	3478 <__aeabi_dsub+0x444>
    3396:	2340      	movs	r3, #64	; 0x40
    3398:	1b5d      	subs	r5, r3, r5
    339a:	40a9      	lsls	r1, r5
    339c:	430a      	orrs	r2, r1
    339e:	1e51      	subs	r1, r2, #1
    33a0:	418a      	sbcs	r2, r1
    33a2:	2100      	movs	r1, #0
    33a4:	4316      	orrs	r6, r2
    33a6:	e69b      	b.n	30e0 <__aeabi_dsub+0xac>
    33a8:	2f00      	cmp	r7, #0
    33aa:	d040      	beq.n	342e <__aeabi_dsub+0x3fa>
    33ac:	f240 76ff 	movw	r6, #2047	; 0x7ff
    33b0:	45b4      	cmp	ip, r6
    33b2:	d049      	beq.n	3448 <__aeabi_dsub+0x414>
    33b4:	2680      	movs	r6, #128	; 0x80
    33b6:	0436      	lsls	r6, r6, #16
    33b8:	426d      	negs	r5, r5
    33ba:	4334      	orrs	r4, r6
    33bc:	2d38      	cmp	r5, #56	; 0x38
    33be:	dd00      	ble.n	33c2 <__aeabi_dsub+0x38e>
    33c0:	e0c5      	b.n	354e <__aeabi_dsub+0x51a>
    33c2:	2d1f      	cmp	r5, #31
    33c4:	dd00      	ble.n	33c8 <__aeabi_dsub+0x394>
    33c6:	e142      	b.n	364e <__aeabi_dsub+0x61a>
    33c8:	2720      	movs	r7, #32
    33ca:	0026      	movs	r6, r4
    33cc:	4650      	mov	r0, sl
    33ce:	1b7f      	subs	r7, r7, r5
    33d0:	40be      	lsls	r6, r7
    33d2:	40e8      	lsrs	r0, r5
    33d4:	4306      	orrs	r6, r0
    33d6:	4650      	mov	r0, sl
    33d8:	40b8      	lsls	r0, r7
    33da:	1e47      	subs	r7, r0, #1
    33dc:	41b8      	sbcs	r0, r7
    33de:	40ec      	lsrs	r4, r5
    33e0:	4330      	orrs	r0, r6
    33e2:	1a16      	subs	r6, r2, r0
    33e4:	42b2      	cmp	r2, r6
    33e6:	4192      	sbcs	r2, r2
    33e8:	1b0c      	subs	r4, r1, r4
    33ea:	4252      	negs	r2, r2
    33ec:	1aa4      	subs	r4, r4, r2
    33ee:	4667      	mov	r7, ip
    33f0:	4698      	mov	r8, r3
    33f2:	e67c      	b.n	30ee <__aeabi_dsub+0xba>
    33f4:	4664      	mov	r4, ip
    33f6:	432c      	orrs	r4, r5
    33f8:	4666      	mov	r6, ip
    33fa:	2c00      	cmp	r4, #0
    33fc:	d000      	beq.n	3400 <__aeabi_dsub+0x3cc>
    33fe:	e67b      	b.n	30f8 <__aeabi_dsub+0xc4>
    3400:	2500      	movs	r5, #0
    3402:	2700      	movs	r7, #0
    3404:	2600      	movs	r6, #0
    3406:	e6dd      	b.n	31c4 <__aeabi_dsub+0x190>
    3408:	001f      	movs	r7, r3
    340a:	e69d      	b.n	3148 <__aeabi_dsub+0x114>
    340c:	2b1f      	cmp	r3, #31
    340e:	dc67      	bgt.n	34e0 <__aeabi_dsub+0x4ac>
    3410:	2620      	movs	r6, #32
    3412:	1af0      	subs	r0, r6, r3
    3414:	000e      	movs	r6, r1
    3416:	4684      	mov	ip, r0
    3418:	4086      	lsls	r6, r0
    341a:	0010      	movs	r0, r2
    341c:	40d8      	lsrs	r0, r3
    341e:	4306      	orrs	r6, r0
    3420:	4660      	mov	r0, ip
    3422:	4082      	lsls	r2, r0
    3424:	1e50      	subs	r0, r2, #1
    3426:	4182      	sbcs	r2, r0
    3428:	40d9      	lsrs	r1, r3
    342a:	4316      	orrs	r6, r2
    342c:	e6e8      	b.n	3200 <__aeabi_dsub+0x1cc>
    342e:	0026      	movs	r6, r4
    3430:	4650      	mov	r0, sl
    3432:	4306      	orrs	r6, r0
    3434:	2e00      	cmp	r6, #0
    3436:	d100      	bne.n	343a <__aeabi_dsub+0x406>
    3438:	e084      	b.n	3544 <__aeabi_dsub+0x510>
    343a:	43ed      	mvns	r5, r5
    343c:	2d00      	cmp	r5, #0
    343e:	d0d0      	beq.n	33e2 <__aeabi_dsub+0x3ae>
    3440:	f240 76ff 	movw	r6, #2047	; 0x7ff
    3444:	45b4      	cmp	ip, r6
    3446:	d1b9      	bne.n	33bc <__aeabi_dsub+0x388>
    3448:	000c      	movs	r4, r1
    344a:	0016      	movs	r6, r2
    344c:	f240 77ff 	movw	r7, #2047	; 0x7ff
    3450:	4698      	mov	r8, r3
    3452:	e679      	b.n	3148 <__aeabi_dsub+0x114>
    3454:	f240 79ff 	movw	r9, #2047	; 0x7ff
    3458:	454b      	cmp	r3, r9
    345a:	d008      	beq.n	346e <__aeabi_dsub+0x43a>
    345c:	0003      	movs	r3, r0
    345e:	e6c7      	b.n	31f0 <__aeabi_dsub+0x1bc>
    3460:	f240 76ff 	movw	r6, #2047	; 0x7ff
    3464:	45b4      	cmp	ip, r6
    3466:	d000      	beq.n	346a <__aeabi_dsub+0x436>
    3468:	e080      	b.n	356c <__aeabi_dsub+0x538>
    346a:	000c      	movs	r4, r1
    346c:	0016      	movs	r6, r2
    346e:	f240 77ff 	movw	r7, #2047	; 0x7ff
    3472:	e669      	b.n	3148 <__aeabi_dsub+0x114>
    3474:	2500      	movs	r5, #0
    3476:	e781      	b.n	337c <__aeabi_dsub+0x348>
    3478:	2100      	movs	r1, #0
    347a:	e78f      	b.n	339c <__aeabi_dsub+0x368>
    347c:	ff7fffff 	.word	0xff7fffff
    3480:	0023      	movs	r3, r4
    3482:	4650      	mov	r0, sl
    3484:	4303      	orrs	r3, r0
    3486:	2f00      	cmp	r7, #0
    3488:	d000      	beq.n	348c <__aeabi_dsub+0x458>
    348a:	e0c1      	b.n	3610 <__aeabi_dsub+0x5dc>
    348c:	2b00      	cmp	r3, #0
    348e:	d100      	bne.n	3492 <__aeabi_dsub+0x45e>
    3490:	e101      	b.n	3696 <__aeabi_dsub+0x662>
    3492:	000b      	movs	r3, r1
    3494:	4313      	orrs	r3, r2
    3496:	2b00      	cmp	r3, #0
    3498:	d100      	bne.n	349c <__aeabi_dsub+0x468>
    349a:	e655      	b.n	3148 <__aeabi_dsub+0x114>
    349c:	4452      	add	r2, sl
    349e:	4552      	cmp	r2, sl
    34a0:	4180      	sbcs	r0, r0
    34a2:	1864      	adds	r4, r4, r1
    34a4:	4240      	negs	r0, r0
    34a6:	1824      	adds	r4, r4, r0
    34a8:	0016      	movs	r6, r2
    34aa:	0223      	lsls	r3, r4, #8
    34ac:	d400      	bmi.n	34b0 <__aeabi_dsub+0x47c>
    34ae:	e6f0      	b.n	3292 <__aeabi_dsub+0x25e>
    34b0:	4b85      	ldr	r3, [pc, #532]	; (36c8 <__aeabi_dsub+0x694>)
    34b2:	3701      	adds	r7, #1
    34b4:	401c      	ands	r4, r3
    34b6:	e647      	b.n	3148 <__aeabi_dsub+0x114>
    34b8:	0025      	movs	r5, r4
    34ba:	4650      	mov	r0, sl
    34bc:	4305      	orrs	r5, r0
    34be:	bba7      	cbnz	r7, 352a <__aeabi_dsub+0x4f6>
    34c0:	2d00      	cmp	r5, #0
    34c2:	d168      	bne.n	3596 <__aeabi_dsub+0x562>
    34c4:	000c      	movs	r4, r1
    34c6:	4314      	orrs	r4, r2
    34c8:	2c00      	cmp	r4, #0
    34ca:	d100      	bne.n	34ce <__aeabi_dsub+0x49a>
    34cc:	e0bc      	b.n	3648 <__aeabi_dsub+0x614>
    34ce:	000c      	movs	r4, r1
    34d0:	0016      	movs	r6, r2
    34d2:	4698      	mov	r8, r3
    34d4:	e638      	b.n	3148 <__aeabi_dsub+0x114>
    34d6:	f240 77ff 	movw	r7, #2047	; 0x7ff
    34da:	2400      	movs	r4, #0
    34dc:	2600      	movs	r6, #0
    34de:	e671      	b.n	31c4 <__aeabi_dsub+0x190>
    34e0:	001e      	movs	r6, r3
    34e2:	0008      	movs	r0, r1
    34e4:	3e20      	subs	r6, #32
    34e6:	40f0      	lsrs	r0, r6
    34e8:	0006      	movs	r6, r0
    34ea:	2b20      	cmp	r3, #32
    34ec:	d100      	bne.n	34f0 <__aeabi_dsub+0x4bc>
    34ee:	e0a9      	b.n	3644 <__aeabi_dsub+0x610>
    34f0:	f240 0c40 	movw	ip, #64	; 0x40
    34f4:	4660      	mov	r0, ip
    34f6:	1ac3      	subs	r3, r0, r3
    34f8:	4099      	lsls	r1, r3
    34fa:	430a      	orrs	r2, r1
    34fc:	1e51      	subs	r1, r2, #1
    34fe:	418a      	sbcs	r2, r1
    3500:	2100      	movs	r1, #0
    3502:	4316      	orrs	r6, r2
    3504:	e67c      	b.n	3200 <__aeabi_dsub+0x1cc>
    3506:	bb47      	cbnz	r7, 355a <__aeabi_dsub+0x526>
    3508:	0026      	movs	r6, r4
    350a:	4650      	mov	r0, sl
    350c:	4306      	orrs	r6, r0
    350e:	2e00      	cmp	r6, #0
    3510:	d100      	bne.n	3514 <__aeabi_dsub+0x4e0>
    3512:	e0ad      	b.n	3670 <__aeabi_dsub+0x63c>
    3514:	43db      	mvns	r3, r3
    3516:	2b00      	cmp	r3, #0
    3518:	d1a2      	bne.n	3460 <__aeabi_dsub+0x42c>
    351a:	1886      	adds	r6, r0, r2
    351c:	4296      	cmp	r6, r2
    351e:	4192      	sbcs	r2, r2
    3520:	1864      	adds	r4, r4, r1
    3522:	4252      	negs	r2, r2
    3524:	18a4      	adds	r4, r4, r2
    3526:	4667      	mov	r7, ip
    3528:	e670      	b.n	320c <__aeabi_dsub+0x1d8>
    352a:	2d00      	cmp	r5, #0
    352c:	d14c      	bne.n	35c8 <__aeabi_dsub+0x594>
    352e:	0008      	movs	r0, r1
    3530:	4310      	orrs	r0, r2
    3532:	2800      	cmp	r0, #0
    3534:	d100      	bne.n	3538 <__aeabi_dsub+0x504>
    3536:	e09f      	b.n	3678 <__aeabi_dsub+0x644>
    3538:	000c      	movs	r4, r1
    353a:	0016      	movs	r6, r2
    353c:	4698      	mov	r8, r3
    353e:	f240 77ff 	movw	r7, #2047	; 0x7ff
    3542:	e601      	b.n	3148 <__aeabi_dsub+0x114>
    3544:	000c      	movs	r4, r1
    3546:	0016      	movs	r6, r2
    3548:	4667      	mov	r7, ip
    354a:	4698      	mov	r8, r3
    354c:	e5fc      	b.n	3148 <__aeabi_dsub+0x114>
    354e:	4650      	mov	r0, sl
    3550:	4320      	orrs	r0, r4
    3552:	1e44      	subs	r4, r0, #1
    3554:	41a0      	sbcs	r0, r4
    3556:	2400      	movs	r4, #0
    3558:	e743      	b.n	33e2 <__aeabi_dsub+0x3ae>
    355a:	f240 76ff 	movw	r6, #2047	; 0x7ff
    355e:	45b4      	cmp	ip, r6
    3560:	d100      	bne.n	3564 <__aeabi_dsub+0x530>
    3562:	e782      	b.n	346a <__aeabi_dsub+0x436>
    3564:	2680      	movs	r6, #128	; 0x80
    3566:	0436      	lsls	r6, r6, #16
    3568:	425b      	negs	r3, r3
    356a:	4334      	orrs	r4, r6
    356c:	2b38      	cmp	r3, #56	; 0x38
    356e:	dd00      	ble.n	3572 <__aeabi_dsub+0x53e>
    3570:	e089      	b.n	3686 <__aeabi_dsub+0x652>
    3572:	2b1f      	cmp	r3, #31
    3574:	dd00      	ble.n	3578 <__aeabi_dsub+0x544>
    3576:	e091      	b.n	369c <__aeabi_dsub+0x668>
    3578:	2720      	movs	r7, #32
    357a:	0026      	movs	r6, r4
    357c:	4650      	mov	r0, sl
    357e:	1aff      	subs	r7, r7, r3
    3580:	40be      	lsls	r6, r7
    3582:	40d8      	lsrs	r0, r3
    3584:	4306      	orrs	r6, r0
    3586:	4650      	mov	r0, sl
    3588:	40b8      	lsls	r0, r7
    358a:	1e47      	subs	r7, r0, #1
    358c:	41b8      	sbcs	r0, r7
    358e:	4306      	orrs	r6, r0
    3590:	40dc      	lsrs	r4, r3
    3592:	18b6      	adds	r6, r6, r2
    3594:	e7c2      	b.n	351c <__aeabi_dsub+0x4e8>
    3596:	000d      	movs	r5, r1
    3598:	4315      	orrs	r5, r2
    359a:	2d00      	cmp	r5, #0
    359c:	d100      	bne.n	35a0 <__aeabi_dsub+0x56c>
    359e:	e5d3      	b.n	3148 <__aeabi_dsub+0x114>
    35a0:	4650      	mov	r0, sl
    35a2:	1a80      	subs	r0, r0, r2
    35a4:	4582      	cmp	sl, r0
    35a6:	41b6      	sbcs	r6, r6
    35a8:	1a65      	subs	r5, r4, r1
    35aa:	4276      	negs	r6, r6
    35ac:	1bad      	subs	r5, r5, r6
    35ae:	4684      	mov	ip, r0
    35b0:	0228      	lsls	r0, r5, #8
    35b2:	d400      	bmi.n	35b6 <__aeabi_dsub+0x582>
    35b4:	e666      	b.n	3284 <__aeabi_dsub+0x250>
    35b6:	4650      	mov	r0, sl
    35b8:	1a16      	subs	r6, r2, r0
    35ba:	42b2      	cmp	r2, r6
    35bc:	4192      	sbcs	r2, r2
    35be:	1b0c      	subs	r4, r1, r4
    35c0:	4252      	negs	r2, r2
    35c2:	1aa4      	subs	r4, r4, r2
    35c4:	4698      	mov	r8, r3
    35c6:	e5bf      	b.n	3148 <__aeabi_dsub+0x114>
    35c8:	000d      	movs	r5, r1
    35ca:	4315      	orrs	r5, r2
    35cc:	f240 77ff 	movw	r7, #2047	; 0x7ff
    35d0:	2d00      	cmp	r5, #0
    35d2:	d100      	bne.n	35d6 <__aeabi_dsub+0x5a2>
    35d4:	e5b8      	b.n	3148 <__aeabi_dsub+0x114>
    35d6:	4650      	mov	r0, sl
    35d8:	0766      	lsls	r6, r4, #29
    35da:	08c0      	lsrs	r0, r0, #3
    35dc:	4306      	orrs	r6, r0
    35de:	2080      	movs	r0, #128	; 0x80
    35e0:	08e4      	lsrs	r4, r4, #3
    35e2:	0300      	lsls	r0, r0, #12
    35e4:	4204      	tst	r4, r0
    35e6:	d007      	beq.n	35f8 <__aeabi_dsub+0x5c4>
    35e8:	08cd      	lsrs	r5, r1, #3
    35ea:	4205      	tst	r5, r0
    35ec:	d104      	bne.n	35f8 <__aeabi_dsub+0x5c4>
    35ee:	002c      	movs	r4, r5
    35f0:	4698      	mov	r8, r3
    35f2:	08d6      	lsrs	r6, r2, #3
    35f4:	0749      	lsls	r1, r1, #29
    35f6:	430e      	orrs	r6, r1
    35f8:	0f73      	lsrs	r3, r6, #29
    35fa:	00e4      	lsls	r4, r4, #3
    35fc:	431c      	orrs	r4, r3
    35fe:	00f6      	lsls	r6, r6, #3
    3600:	f240 77ff 	movw	r7, #2047	; 0x7ff
    3604:	e5a0      	b.n	3148 <__aeabi_dsub+0x114>
    3606:	2600      	movs	r6, #0
    3608:	f240 77ff 	movw	r7, #2047	; 0x7ff
    360c:	2400      	movs	r4, #0
    360e:	e5ba      	b.n	3186 <__aeabi_dsub+0x152>
    3610:	2b00      	cmp	r3, #0
    3612:	d100      	bne.n	3616 <__aeabi_dsub+0x5e2>
    3614:	e729      	b.n	346a <__aeabi_dsub+0x436>
    3616:	000b      	movs	r3, r1
    3618:	4313      	orrs	r3, r2
    361a:	f240 77ff 	movw	r7, #2047	; 0x7ff
    361e:	2b00      	cmp	r3, #0
    3620:	d100      	bne.n	3624 <__aeabi_dsub+0x5f0>
    3622:	e591      	b.n	3148 <__aeabi_dsub+0x114>
    3624:	08c0      	lsrs	r0, r0, #3
    3626:	0766      	lsls	r6, r4, #29
    3628:	4306      	orrs	r6, r0
    362a:	2080      	movs	r0, #128	; 0x80
    362c:	08e4      	lsrs	r4, r4, #3
    362e:	0300      	lsls	r0, r0, #12
    3630:	4204      	tst	r4, r0
    3632:	d0e1      	beq.n	35f8 <__aeabi_dsub+0x5c4>
    3634:	08cb      	lsrs	r3, r1, #3
    3636:	4203      	tst	r3, r0
    3638:	d1de      	bne.n	35f8 <__aeabi_dsub+0x5c4>
    363a:	08d6      	lsrs	r6, r2, #3
    363c:	0749      	lsls	r1, r1, #29
    363e:	430e      	orrs	r6, r1
    3640:	001c      	movs	r4, r3
    3642:	e7d9      	b.n	35f8 <__aeabi_dsub+0x5c4>
    3644:	2100      	movs	r1, #0
    3646:	e758      	b.n	34fa <__aeabi_dsub+0x4c6>
    3648:	2500      	movs	r5, #0
    364a:	2600      	movs	r6, #0
    364c:	e5ba      	b.n	31c4 <__aeabi_dsub+0x190>
    364e:	002e      	movs	r6, r5
    3650:	0020      	movs	r0, r4
    3652:	3e20      	subs	r6, #32
    3654:	40f0      	lsrs	r0, r6
    3656:	0006      	movs	r6, r0
    3658:	2d20      	cmp	r5, #32
    365a:	d031      	beq.n	36c0 <__aeabi_dsub+0x68c>
    365c:	2740      	movs	r7, #64	; 0x40
    365e:	1b7d      	subs	r5, r7, r5
    3660:	40ac      	lsls	r4, r5
    3662:	4650      	mov	r0, sl
    3664:	4320      	orrs	r0, r4
    3666:	1e44      	subs	r4, r0, #1
    3668:	41a0      	sbcs	r0, r4
    366a:	2400      	movs	r4, #0
    366c:	4330      	orrs	r0, r6
    366e:	e6b8      	b.n	33e2 <__aeabi_dsub+0x3ae>
    3670:	000c      	movs	r4, r1
    3672:	0016      	movs	r6, r2
    3674:	4667      	mov	r7, ip
    3676:	e567      	b.n	3148 <__aeabi_dsub+0x114>
    3678:	2480      	movs	r4, #128	; 0x80
    367a:	2500      	movs	r5, #0
    367c:	0324      	lsls	r4, r4, #12
    367e:	f240 77ff 	movw	r7, #2047	; 0x7ff
    3682:	2600      	movs	r6, #0
    3684:	e59e      	b.n	31c4 <__aeabi_dsub+0x190>
    3686:	4650      	mov	r0, sl
    3688:	4320      	orrs	r0, r4
    368a:	0006      	movs	r6, r0
    368c:	1e70      	subs	r0, r6, #1
    368e:	4186      	sbcs	r6, r0
    3690:	2400      	movs	r4, #0
    3692:	18b6      	adds	r6, r6, r2
    3694:	e742      	b.n	351c <__aeabi_dsub+0x4e8>
    3696:	000c      	movs	r4, r1
    3698:	0016      	movs	r6, r2
    369a:	e555      	b.n	3148 <__aeabi_dsub+0x114>
    369c:	001e      	movs	r6, r3
    369e:	0020      	movs	r0, r4
    36a0:	3e20      	subs	r6, #32
    36a2:	40f0      	lsrs	r0, r6
    36a4:	0006      	movs	r6, r0
    36a6:	2b20      	cmp	r3, #32
    36a8:	d00c      	beq.n	36c4 <__aeabi_dsub+0x690>
    36aa:	2740      	movs	r7, #64	; 0x40
    36ac:	1afb      	subs	r3, r7, r3
    36ae:	409c      	lsls	r4, r3
    36b0:	4650      	mov	r0, sl
    36b2:	4320      	orrs	r0, r4
    36b4:	1e44      	subs	r4, r0, #1
    36b6:	41a0      	sbcs	r0, r4
    36b8:	4306      	orrs	r6, r0
    36ba:	2400      	movs	r4, #0
    36bc:	18b6      	adds	r6, r6, r2
    36be:	e72d      	b.n	351c <__aeabi_dsub+0x4e8>
    36c0:	2400      	movs	r4, #0
    36c2:	e7ce      	b.n	3662 <__aeabi_dsub+0x62e>
    36c4:	2400      	movs	r4, #0
    36c6:	e7f3      	b.n	36b0 <__aeabi_dsub+0x67c>
    36c8:	ff7fffff 	.word	0xff7fffff

000036cc <__aeabi_d2iz>:
    36cc:	b530      	push	{r4, r5, lr}
    36ce:	f240 35fe 	movw	r5, #1022	; 0x3fe
    36d2:	030a      	lsls	r2, r1, #12
    36d4:	004b      	lsls	r3, r1, #1
    36d6:	0b12      	lsrs	r2, r2, #12
    36d8:	0d5b      	lsrs	r3, r3, #21
    36da:	0fc9      	lsrs	r1, r1, #31
    36dc:	2400      	movs	r4, #0
    36de:	42ab      	cmp	r3, r5
    36e0:	dd12      	ble.n	3708 <__aeabi_d2iz+0x3c>
    36e2:	f240 441d 	movw	r4, #1053	; 0x41d
    36e6:	42a3      	cmp	r3, r4
    36e8:	dc10      	bgt.n	370c <__aeabi_d2iz+0x40>
    36ea:	2480      	movs	r4, #128	; 0x80
    36ec:	f240 4533 	movw	r5, #1075	; 0x433
    36f0:	0364      	lsls	r4, r4, #13
    36f2:	4322      	orrs	r2, r4
    36f4:	1aed      	subs	r5, r5, r3
    36f6:	2d1f      	cmp	r5, #31
    36f8:	dd0b      	ble.n	3712 <__aeabi_d2iz+0x46>
    36fa:	f240 4013 	movw	r0, #1043	; 0x413
    36fe:	1ac3      	subs	r3, r0, r3
    3700:	40da      	lsrs	r2, r3
    3702:	4254      	negs	r4, r2
    3704:	b901      	cbnz	r1, 3708 <__aeabi_d2iz+0x3c>
    3706:	0014      	movs	r4, r2
    3708:	0020      	movs	r0, r4
    370a:	bd30      	pop	{r4, r5, pc}
    370c:	4b04      	ldr	r3, [pc, #16]	; (3720 <__aeabi_d2iz+0x54>)
    370e:	18cc      	adds	r4, r1, r3
    3710:	e7fa      	b.n	3708 <__aeabi_d2iz+0x3c>
    3712:	4c04      	ldr	r4, [pc, #16]	; (3724 <__aeabi_d2iz+0x58>)
    3714:	40e8      	lsrs	r0, r5
    3716:	46a4      	mov	ip, r4
    3718:	4463      	add	r3, ip
    371a:	409a      	lsls	r2, r3
    371c:	4302      	orrs	r2, r0
    371e:	e7f0      	b.n	3702 <__aeabi_d2iz+0x36>
    3720:	7fffffff 	.word	0x7fffffff
    3724:	fffffbed 	.word	0xfffffbed

00003728 <__aeabi_i2d>:
    3728:	b570      	push	{r4, r5, r6, lr}
    372a:	2800      	cmp	r0, #0
    372c:	d038      	beq.n	37a0 <__aeabi_i2d+0x78>
    372e:	17c3      	asrs	r3, r0, #31
    3730:	18c4      	adds	r4, r0, r3
    3732:	405c      	eors	r4, r3
    3734:	0fc5      	lsrs	r5, r0, #31
    3736:	0020      	movs	r0, r4
    3738:	f000 f902 	bl	3940 <__clzsi2>
    373c:	f240 431e 	movw	r3, #1054	; 0x41e
    3740:	f240 4233 	movw	r2, #1075	; 0x433
    3744:	1a1b      	subs	r3, r3, r0
    3746:	1ad2      	subs	r2, r2, r3
    3748:	2a1f      	cmp	r2, #31
    374a:	dd1d      	ble.n	3788 <__aeabi_i2d+0x60>
    374c:	f240 4213 	movw	r2, #1043	; 0x413
    3750:	1ad2      	subs	r2, r2, r3
    3752:	4094      	lsls	r4, r2
    3754:	f240 72ff 	movw	r2, #2047	; 0x7ff
    3758:	4013      	ands	r3, r2
    375a:	2200      	movs	r2, #0
    375c:	0324      	lsls	r4, r4, #12
    375e:	0b24      	lsrs	r4, r4, #12
    3760:	2100      	movs	r1, #0
    3762:	0010      	movs	r0, r2
    3764:	0324      	lsls	r4, r4, #12
    3766:	0d0a      	lsrs	r2, r1, #20
    3768:	0b24      	lsrs	r4, r4, #12
    376a:	0512      	lsls	r2, r2, #20
    376c:	4322      	orrs	r2, r4
    376e:	f64f 74ff 	movw	r4, #65535	; 0xffff
    3772:	f2c8 040f 	movt	r4, #32783	; 0x800f
    3776:	4022      	ands	r2, r4
    3778:	051b      	lsls	r3, r3, #20
    377a:	4313      	orrs	r3, r2
    377c:	005b      	lsls	r3, r3, #1
    377e:	07ed      	lsls	r5, r5, #31
    3780:	085b      	lsrs	r3, r3, #1
    3782:	432b      	orrs	r3, r5
    3784:	0019      	movs	r1, r3
    3786:	bd70      	pop	{r4, r5, r6, pc}
    3788:	0021      	movs	r1, r4
    378a:	4091      	lsls	r1, r2
    378c:	000a      	movs	r2, r1
    378e:	210b      	movs	r1, #11
    3790:	1a08      	subs	r0, r1, r0
    3792:	40c4      	lsrs	r4, r0
    3794:	f240 71ff 	movw	r1, #2047	; 0x7ff
    3798:	0324      	lsls	r4, r4, #12
    379a:	0b24      	lsrs	r4, r4, #12
    379c:	400b      	ands	r3, r1
    379e:	e7df      	b.n	3760 <__aeabi_i2d+0x38>
    37a0:	2500      	movs	r5, #0
    37a2:	2300      	movs	r3, #0
    37a4:	2400      	movs	r4, #0
    37a6:	2200      	movs	r2, #0
    37a8:	e7da      	b.n	3760 <__aeabi_i2d+0x38>
    37aa:	46c0      	nop			; (mov r8, r8)

000037ac <__aeabi_ui2d>:
    37ac:	b510      	push	{r4, lr}
    37ae:	0004      	movs	r4, r0
    37b0:	2800      	cmp	r0, #0
    37b2:	d030      	beq.n	3816 <__aeabi_ui2d+0x6a>
    37b4:	f000 f8c4 	bl	3940 <__clzsi2>
    37b8:	f240 431e 	movw	r3, #1054	; 0x41e
    37bc:	f240 4233 	movw	r2, #1075	; 0x433
    37c0:	1a1b      	subs	r3, r3, r0
    37c2:	1ad2      	subs	r2, r2, r3
    37c4:	2a1f      	cmp	r2, #31
    37c6:	dd1a      	ble.n	37fe <__aeabi_ui2d+0x52>
    37c8:	f240 4213 	movw	r2, #1043	; 0x413
    37cc:	1ad2      	subs	r2, r2, r3
    37ce:	4094      	lsls	r4, r2
    37d0:	f240 72ff 	movw	r2, #2047	; 0x7ff
    37d4:	4013      	ands	r3, r2
    37d6:	2200      	movs	r2, #0
    37d8:	0324      	lsls	r4, r4, #12
    37da:	0b24      	lsrs	r4, r4, #12
    37dc:	2100      	movs	r1, #0
    37de:	0010      	movs	r0, r2
    37e0:	0324      	lsls	r4, r4, #12
    37e2:	0d0a      	lsrs	r2, r1, #20
    37e4:	0b24      	lsrs	r4, r4, #12
    37e6:	0512      	lsls	r2, r2, #20
    37e8:	4322      	orrs	r2, r4
    37ea:	f64f 74ff 	movw	r4, #65535	; 0xffff
    37ee:	f2c8 040f 	movt	r4, #32783	; 0x800f
    37f2:	4022      	ands	r2, r4
    37f4:	051b      	lsls	r3, r3, #20
    37f6:	4313      	orrs	r3, r2
    37f8:	005b      	lsls	r3, r3, #1
    37fa:	0859      	lsrs	r1, r3, #1
    37fc:	bd10      	pop	{r4, pc}
    37fe:	0021      	movs	r1, r4
    3800:	4091      	lsls	r1, r2
    3802:	000a      	movs	r2, r1
    3804:	210b      	movs	r1, #11
    3806:	1a08      	subs	r0, r1, r0
    3808:	40c4      	lsrs	r4, r0
    380a:	f240 71ff 	movw	r1, #2047	; 0x7ff
    380e:	0324      	lsls	r4, r4, #12
    3810:	0b24      	lsrs	r4, r4, #12
    3812:	400b      	ands	r3, r1
    3814:	e7e2      	b.n	37dc <__aeabi_ui2d+0x30>
    3816:	2300      	movs	r3, #0
    3818:	2400      	movs	r4, #0
    381a:	2200      	movs	r2, #0
    381c:	e7de      	b.n	37dc <__aeabi_ui2d+0x30>
    381e:	46c0      	nop			; (mov r8, r8)

00003820 <__aeabi_f2d>:
    3820:	0041      	lsls	r1, r0, #1
    3822:	0e09      	lsrs	r1, r1, #24
    3824:	1c4b      	adds	r3, r1, #1
    3826:	0242      	lsls	r2, r0, #9
    3828:	b2db      	uxtb	r3, r3
    382a:	b570      	push	{r4, r5, r6, lr}
    382c:	0a56      	lsrs	r6, r2, #9
    382e:	0fc4      	lsrs	r4, r0, #31
    3830:	2b01      	cmp	r3, #1
    3832:	dd19      	ble.n	3868 <__aeabi_f2d+0x48>
    3834:	0b13      	lsrs	r3, r2, #12
    3836:	f240 3280 	movw	r2, #896	; 0x380
    383a:	0776      	lsls	r6, r6, #29
    383c:	188d      	adds	r5, r1, r2
    383e:	2100      	movs	r1, #0
    3840:	0d0a      	lsrs	r2, r1, #20
    3842:	0512      	lsls	r2, r2, #20
    3844:	431a      	orrs	r2, r3
    3846:	f240 73ff 	movw	r3, #2047	; 0x7ff
    384a:	402b      	ands	r3, r5
    384c:	f64f 75ff 	movw	r5, #65535	; 0xffff
    3850:	f2c8 050f 	movt	r5, #32783	; 0x800f
    3854:	402a      	ands	r2, r5
    3856:	051b      	lsls	r3, r3, #20
    3858:	4313      	orrs	r3, r2
    385a:	005b      	lsls	r3, r3, #1
    385c:	07e4      	lsls	r4, r4, #31
    385e:	085b      	lsrs	r3, r3, #1
    3860:	4323      	orrs	r3, r4
    3862:	0030      	movs	r0, r6
    3864:	0019      	movs	r1, r3
    3866:	bd70      	pop	{r4, r5, r6, pc}
    3868:	b9a9      	cbnz	r1, 3896 <__aeabi_f2d+0x76>
    386a:	b30e      	cbz	r6, 38b0 <__aeabi_f2d+0x90>
    386c:	0030      	movs	r0, r6
    386e:	f000 f867 	bl	3940 <__clzsi2>
    3872:	280a      	cmp	r0, #10
    3874:	dc1f      	bgt.n	38b6 <__aeabi_f2d+0x96>
    3876:	230b      	movs	r3, #11
    3878:	0032      	movs	r2, r6
    387a:	1a1b      	subs	r3, r3, r0
    387c:	40da      	lsrs	r2, r3
    387e:	0003      	movs	r3, r0
    3880:	3315      	adds	r3, #21
    3882:	409e      	lsls	r6, r3
    3884:	f240 3589 	movw	r5, #905	; 0x389
    3888:	f240 71ff 	movw	r1, #2047	; 0x7ff
    388c:	0312      	lsls	r2, r2, #12
    388e:	1a2d      	subs	r5, r5, r0
    3890:	0b13      	lsrs	r3, r2, #12
    3892:	400d      	ands	r5, r1
    3894:	e7d3      	b.n	383e <__aeabi_f2d+0x1e>
    3896:	b13e      	cbz	r6, 38a8 <__aeabi_f2d+0x88>
    3898:	2380      	movs	r3, #128	; 0x80
    389a:	0b12      	lsrs	r2, r2, #12
    389c:	031b      	lsls	r3, r3, #12
    389e:	0776      	lsls	r6, r6, #29
    38a0:	4313      	orrs	r3, r2
    38a2:	f240 75ff 	movw	r5, #2047	; 0x7ff
    38a6:	e7ca      	b.n	383e <__aeabi_f2d+0x1e>
    38a8:	f240 75ff 	movw	r5, #2047	; 0x7ff
    38ac:	2300      	movs	r3, #0
    38ae:	e7c6      	b.n	383e <__aeabi_f2d+0x1e>
    38b0:	2500      	movs	r5, #0
    38b2:	2300      	movs	r3, #0
    38b4:	e7c3      	b.n	383e <__aeabi_f2d+0x1e>
    38b6:	0003      	movs	r3, r0
    38b8:	0032      	movs	r2, r6
    38ba:	3b0b      	subs	r3, #11
    38bc:	409a      	lsls	r2, r3
    38be:	2600      	movs	r6, #0
    38c0:	e7e0      	b.n	3884 <__aeabi_f2d+0x64>
    38c2:	46c0      	nop			; (mov r8, r8)

000038c4 <__aeabi_cdrcmple>:
    38c4:	4684      	mov	ip, r0
    38c6:	1c10      	adds	r0, r2, #0
    38c8:	4662      	mov	r2, ip
    38ca:	468c      	mov	ip, r1
    38cc:	1c19      	adds	r1, r3, #0
    38ce:	4663      	mov	r3, ip
    38d0:	e000      	b.n	38d4 <__aeabi_cdcmpeq>
    38d2:	46c0      	nop			; (mov r8, r8)

000038d4 <__aeabi_cdcmpeq>:
    38d4:	b51f      	push	{r0, r1, r2, r3, r4, lr}
    38d6:	f000 f8ef 	bl	3ab8 <__ledf2>
    38da:	2800      	cmp	r0, #0
    38dc:	d401      	bmi.n	38e2 <__aeabi_cdcmpeq+0xe>
    38de:	2100      	movs	r1, #0
    38e0:	42c8      	cmn	r0, r1
    38e2:	bd1f      	pop	{r0, r1, r2, r3, r4, pc}

000038e4 <__aeabi_dcmpeq>:
    38e4:	b510      	push	{r4, lr}
    38e6:	f000 f849 	bl	397c <__eqdf2>
    38ea:	4240      	negs	r0, r0
    38ec:	3001      	adds	r0, #1
    38ee:	bd10      	pop	{r4, pc}

000038f0 <__aeabi_dcmplt>:
    38f0:	b510      	push	{r4, lr}
    38f2:	f000 f8e1 	bl	3ab8 <__ledf2>
    38f6:	2800      	cmp	r0, #0
    38f8:	db01      	blt.n	38fe <__aeabi_dcmplt+0xe>
    38fa:	2000      	movs	r0, #0
    38fc:	bd10      	pop	{r4, pc}
    38fe:	2001      	movs	r0, #1
    3900:	bd10      	pop	{r4, pc}
    3902:	46c0      	nop			; (mov r8, r8)

00003904 <__aeabi_dcmple>:
    3904:	b510      	push	{r4, lr}
    3906:	f000 f8d7 	bl	3ab8 <__ledf2>
    390a:	2800      	cmp	r0, #0
    390c:	dd01      	ble.n	3912 <__aeabi_dcmple+0xe>
    390e:	2000      	movs	r0, #0
    3910:	bd10      	pop	{r4, pc}
    3912:	2001      	movs	r0, #1
    3914:	bd10      	pop	{r4, pc}
    3916:	46c0      	nop			; (mov r8, r8)

00003918 <__aeabi_dcmpgt>:
    3918:	b510      	push	{r4, lr}
    391a:	f000 f86b 	bl	39f4 <__gedf2>
    391e:	2800      	cmp	r0, #0
    3920:	dc01      	bgt.n	3926 <__aeabi_dcmpgt+0xe>
    3922:	2000      	movs	r0, #0
    3924:	bd10      	pop	{r4, pc}
    3926:	2001      	movs	r0, #1
    3928:	bd10      	pop	{r4, pc}
    392a:	46c0      	nop			; (mov r8, r8)

0000392c <__aeabi_dcmpge>:
    392c:	b510      	push	{r4, lr}
    392e:	f000 f861 	bl	39f4 <__gedf2>
    3932:	2800      	cmp	r0, #0
    3934:	da01      	bge.n	393a <__aeabi_dcmpge+0xe>
    3936:	2000      	movs	r0, #0
    3938:	bd10      	pop	{r4, pc}
    393a:	2001      	movs	r0, #1
    393c:	bd10      	pop	{r4, pc}
    393e:	46c0      	nop			; (mov r8, r8)

00003940 <__clzsi2>:
    3940:	211c      	movs	r1, #28
    3942:	2301      	movs	r3, #1
    3944:	041b      	lsls	r3, r3, #16
    3946:	4298      	cmp	r0, r3
    3948:	d301      	bcc.n	394e <__clzsi2+0xe>
    394a:	0c00      	lsrs	r0, r0, #16
    394c:	3910      	subs	r1, #16
    394e:	0a1b      	lsrs	r3, r3, #8
    3950:	4298      	cmp	r0, r3
    3952:	d301      	bcc.n	3958 <__clzsi2+0x18>
    3954:	0a00      	lsrs	r0, r0, #8
    3956:	3908      	subs	r1, #8
    3958:	091b      	lsrs	r3, r3, #4
    395a:	4298      	cmp	r0, r3
    395c:	d301      	bcc.n	3962 <__clzsi2+0x22>
    395e:	0900      	lsrs	r0, r0, #4
    3960:	3904      	subs	r1, #4
    3962:	a202      	add	r2, pc, #8	; (adr r2, 396c <__clzsi2+0x2c>)
    3964:	5c10      	ldrb	r0, [r2, r0]
    3966:	1840      	adds	r0, r0, r1
    3968:	4770      	bx	lr
    396a:	46c0      	nop			; (mov r8, r8)
    396c:	02020304 	.word	0x02020304
    3970:	01010101 	.word	0x01010101
	...

0000397c <__eqdf2>:
    397c:	b5f0      	push	{r4, r5, r6, r7, lr}
    397e:	464f      	mov	r7, r9
    3980:	4646      	mov	r6, r8
    3982:	46d6      	mov	lr, sl
    3984:	005c      	lsls	r4, r3, #1
    3986:	b5c0      	push	{r6, r7, lr}
    3988:	031f      	lsls	r7, r3, #12
    398a:	0fdb      	lsrs	r3, r3, #31
    398c:	469a      	mov	sl, r3
    398e:	f240 73ff 	movw	r3, #2047	; 0x7ff
    3992:	030e      	lsls	r6, r1, #12
    3994:	004d      	lsls	r5, r1, #1
    3996:	4684      	mov	ip, r0
    3998:	4680      	mov	r8, r0
    399a:	0b36      	lsrs	r6, r6, #12
    399c:	0d6d      	lsrs	r5, r5, #21
    399e:	0fc9      	lsrs	r1, r1, #31
    39a0:	4691      	mov	r9, r2
    39a2:	0b3f      	lsrs	r7, r7, #12
    39a4:	0d64      	lsrs	r4, r4, #21
    39a6:	2001      	movs	r0, #1
    39a8:	429d      	cmp	r5, r3
    39aa:	d008      	beq.n	39be <__eqdf2+0x42>
    39ac:	429c      	cmp	r4, r3
    39ae:	d001      	beq.n	39b4 <__eqdf2+0x38>
    39b0:	42a5      	cmp	r5, r4
    39b2:	d00d      	beq.n	39d0 <__eqdf2+0x54>
    39b4:	bc1c      	pop	{r2, r3, r4}
    39b6:	4690      	mov	r8, r2
    39b8:	4699      	mov	r9, r3
    39ba:	46a2      	mov	sl, r4
    39bc:	bdf0      	pop	{r4, r5, r6, r7, pc}
    39be:	4663      	mov	r3, ip
    39c0:	4333      	orrs	r3, r6
    39c2:	2b00      	cmp	r3, #0
    39c4:	d1f6      	bne.n	39b4 <__eqdf2+0x38>
    39c6:	42ac      	cmp	r4, r5
    39c8:	d1f4      	bne.n	39b4 <__eqdf2+0x38>
    39ca:	433a      	orrs	r2, r7
    39cc:	2a00      	cmp	r2, #0
    39ce:	d1f1      	bne.n	39b4 <__eqdf2+0x38>
    39d0:	2001      	movs	r0, #1
    39d2:	42be      	cmp	r6, r7
    39d4:	d1ee      	bne.n	39b4 <__eqdf2+0x38>
    39d6:	45c8      	cmp	r8, r9
    39d8:	d1ec      	bne.n	39b4 <__eqdf2+0x38>
    39da:	4551      	cmp	r1, sl
    39dc:	d007      	beq.n	39ee <__eqdf2+0x72>
    39de:	2d00      	cmp	r5, #0
    39e0:	d1e8      	bne.n	39b4 <__eqdf2+0x38>
    39e2:	4663      	mov	r3, ip
    39e4:	431e      	orrs	r6, r3
    39e6:	0030      	movs	r0, r6
    39e8:	1e46      	subs	r6, r0, #1
    39ea:	41b0      	sbcs	r0, r6
    39ec:	e7e2      	b.n	39b4 <__eqdf2+0x38>
    39ee:	2000      	movs	r0, #0
    39f0:	e7e0      	b.n	39b4 <__eqdf2+0x38>
    39f2:	46c0      	nop			; (mov r8, r8)

000039f4 <__gedf2>:
    39f4:	b5f0      	push	{r4, r5, r6, r7, lr}
    39f6:	464e      	mov	r6, r9
    39f8:	4645      	mov	r5, r8
    39fa:	46de      	mov	lr, fp
    39fc:	4657      	mov	r7, sl
    39fe:	f240 79ff 	movw	r9, #2047	; 0x7ff
    3a02:	b5e0      	push	{r5, r6, r7, lr}
    3a04:	031f      	lsls	r7, r3, #12
    3a06:	0b3d      	lsrs	r5, r7, #12
    3a08:	030e      	lsls	r6, r1, #12
    3a0a:	004c      	lsls	r4, r1, #1
    3a0c:	46ab      	mov	fp, r5
    3a0e:	005d      	lsls	r5, r3, #1
    3a10:	4684      	mov	ip, r0
    3a12:	0b36      	lsrs	r6, r6, #12
    3a14:	0d64      	lsrs	r4, r4, #21
    3a16:	0fc9      	lsrs	r1, r1, #31
    3a18:	4690      	mov	r8, r2
    3a1a:	0d6d      	lsrs	r5, r5, #21
    3a1c:	0fdb      	lsrs	r3, r3, #31
    3a1e:	454c      	cmp	r4, r9
    3a20:	d02e      	beq.n	3a80 <__gedf2+0x8c>
    3a22:	f240 79ff 	movw	r9, #2047	; 0x7ff
    3a26:	454d      	cmp	r5, r9
    3a28:	d01d      	beq.n	3a66 <__gedf2+0x72>
    3a2a:	b96c      	cbnz	r4, 3a48 <__gedf2+0x54>
    3a2c:	4330      	orrs	r0, r6
    3a2e:	0007      	movs	r7, r0
    3a30:	4681      	mov	r9, r0
    3a32:	4278      	negs	r0, r7
    3a34:	4178      	adcs	r0, r7
    3a36:	b2c0      	uxtb	r0, r0
    3a38:	b9e5      	cbnz	r5, 3a74 <__gedf2+0x80>
    3a3a:	465f      	mov	r7, fp
    3a3c:	433a      	orrs	r2, r7
    3a3e:	b9ca      	cbnz	r2, 3a74 <__gedf2+0x80>
    3a40:	464b      	mov	r3, r9
    3a42:	2000      	movs	r0, #0
    3a44:	b14b      	cbz	r3, 3a5a <__gedf2+0x66>
    3a46:	e005      	b.n	3a54 <__gedf2+0x60>
    3a48:	b915      	cbnz	r5, 3a50 <__gedf2+0x5c>
    3a4a:	4658      	mov	r0, fp
    3a4c:	4302      	orrs	r2, r0
    3a4e:	b10a      	cbz	r2, 3a54 <__gedf2+0x60>
    3a50:	4299      	cmp	r1, r3
    3a52:	d01a      	beq.n	3a8a <__gedf2+0x96>
    3a54:	4248      	negs	r0, r1
    3a56:	2101      	movs	r1, #1
    3a58:	4308      	orrs	r0, r1
    3a5a:	bc3c      	pop	{r2, r3, r4, r5}
    3a5c:	4690      	mov	r8, r2
    3a5e:	4699      	mov	r9, r3
    3a60:	46a2      	mov	sl, r4
    3a62:	46ab      	mov	fp, r5
    3a64:	bdf0      	pop	{r4, r5, r6, r7, pc}
    3a66:	465f      	mov	r7, fp
    3a68:	4317      	orrs	r7, r2
    3a6a:	2f00      	cmp	r7, #0
    3a6c:	d0dd      	beq.n	3a2a <__gedf2+0x36>
    3a6e:	2002      	movs	r0, #2
    3a70:	4240      	negs	r0, r0
    3a72:	e7f2      	b.n	3a5a <__gedf2+0x66>
    3a74:	2800      	cmp	r0, #0
    3a76:	d0eb      	beq.n	3a50 <__gedf2+0x5c>
    3a78:	2001      	movs	r0, #1
    3a7a:	3b01      	subs	r3, #1
    3a7c:	4318      	orrs	r0, r3
    3a7e:	e7ec      	b.n	3a5a <__gedf2+0x66>
    3a80:	0037      	movs	r7, r6
    3a82:	4307      	orrs	r7, r0
    3a84:	2f00      	cmp	r7, #0
    3a86:	d0cc      	beq.n	3a22 <__gedf2+0x2e>
    3a88:	e7f1      	b.n	3a6e <__gedf2+0x7a>
    3a8a:	42ac      	cmp	r4, r5
    3a8c:	dce2      	bgt.n	3a54 <__gedf2+0x60>
    3a8e:	da03      	bge.n	3a98 <__gedf2+0xa4>
    3a90:	1e48      	subs	r0, r1, #1
    3a92:	2101      	movs	r1, #1
    3a94:	4308      	orrs	r0, r1
    3a96:	e7e0      	b.n	3a5a <__gedf2+0x66>
    3a98:	455e      	cmp	r6, fp
    3a9a:	d8db      	bhi.n	3a54 <__gedf2+0x60>
    3a9c:	d006      	beq.n	3aac <__gedf2+0xb8>
    3a9e:	2000      	movs	r0, #0
    3aa0:	455e      	cmp	r6, fp
    3aa2:	d2da      	bcs.n	3a5a <__gedf2+0x66>
    3aa4:	2301      	movs	r3, #1
    3aa6:	1e48      	subs	r0, r1, #1
    3aa8:	4318      	orrs	r0, r3
    3aaa:	e7d6      	b.n	3a5a <__gedf2+0x66>
    3aac:	45c4      	cmp	ip, r8
    3aae:	d8d1      	bhi.n	3a54 <__gedf2+0x60>
    3ab0:	2000      	movs	r0, #0
    3ab2:	45c4      	cmp	ip, r8
    3ab4:	d3f6      	bcc.n	3aa4 <__gedf2+0xb0>
    3ab6:	e7d0      	b.n	3a5a <__gedf2+0x66>

00003ab8 <__ledf2>:
    3ab8:	b5f0      	push	{r4, r5, r6, r7, lr}
    3aba:	4657      	mov	r7, sl
    3abc:	464e      	mov	r6, r9
    3abe:	4645      	mov	r5, r8
    3ac0:	46de      	mov	lr, fp
    3ac2:	005c      	lsls	r4, r3, #1
    3ac4:	b5e0      	push	{r5, r6, r7, lr}
    3ac6:	031f      	lsls	r7, r3, #12
    3ac8:	0fdb      	lsrs	r3, r3, #31
    3aca:	469a      	mov	sl, r3
    3acc:	f240 73ff 	movw	r3, #2047	; 0x7ff
    3ad0:	030e      	lsls	r6, r1, #12
    3ad2:	004d      	lsls	r5, r1, #1
    3ad4:	0fc9      	lsrs	r1, r1, #31
    3ad6:	4680      	mov	r8, r0
    3ad8:	0b36      	lsrs	r6, r6, #12
    3ada:	0d6d      	lsrs	r5, r5, #21
    3adc:	468b      	mov	fp, r1
    3ade:	4691      	mov	r9, r2
    3ae0:	0b3f      	lsrs	r7, r7, #12
    3ae2:	0d64      	lsrs	r4, r4, #21
    3ae4:	429d      	cmp	r5, r3
    3ae6:	d023      	beq.n	3b30 <__ledf2+0x78>
    3ae8:	f240 73ff 	movw	r3, #2047	; 0x7ff
    3aec:	429c      	cmp	r4, r3
    3aee:	d019      	beq.n	3b24 <__ledf2+0x6c>
    3af0:	b985      	cbnz	r5, 3b14 <__ledf2+0x5c>
    3af2:	4330      	orrs	r0, r6
    3af4:	4243      	negs	r3, r0
    3af6:	4143      	adcs	r3, r0
    3af8:	b2db      	uxtb	r3, r3
    3afa:	b1fc      	cbz	r4, 3b3c <__ledf2+0x84>
    3afc:	b15b      	cbz	r3, 3b16 <__ledf2+0x5e>
    3afe:	4653      	mov	r3, sl
    3b00:	2001      	movs	r0, #1
    3b02:	3b01      	subs	r3, #1
    3b04:	4303      	orrs	r3, r0
    3b06:	0018      	movs	r0, r3
    3b08:	bc3c      	pop	{r2, r3, r4, r5}
    3b0a:	4690      	mov	r8, r2
    3b0c:	4699      	mov	r9, r3
    3b0e:	46a2      	mov	sl, r4
    3b10:	46ab      	mov	fp, r5
    3b12:	bdf0      	pop	{r4, r5, r6, r7, pc}
    3b14:	b1cc      	cbz	r4, 3b4a <__ledf2+0x92>
    3b16:	45d3      	cmp	fp, sl
    3b18:	d01b      	beq.n	3b52 <__ledf2+0x9a>
    3b1a:	465b      	mov	r3, fp
    3b1c:	4259      	negs	r1, r3
    3b1e:	2301      	movs	r3, #1
    3b20:	430b      	orrs	r3, r1
    3b22:	e7f0      	b.n	3b06 <__ledf2+0x4e>
    3b24:	0039      	movs	r1, r7
    3b26:	4311      	orrs	r1, r2
    3b28:	2302      	movs	r3, #2
    3b2a:	2900      	cmp	r1, #0
    3b2c:	d1eb      	bne.n	3b06 <__ledf2+0x4e>
    3b2e:	e7df      	b.n	3af0 <__ledf2+0x38>
    3b30:	0031      	movs	r1, r6
    3b32:	4301      	orrs	r1, r0
    3b34:	2302      	movs	r3, #2
    3b36:	2900      	cmp	r1, #0
    3b38:	d1e5      	bne.n	3b06 <__ledf2+0x4e>
    3b3a:	e7d5      	b.n	3ae8 <__ledf2+0x30>
    3b3c:	433a      	orrs	r2, r7
    3b3e:	2a00      	cmp	r2, #0
    3b40:	d1dc      	bne.n	3afc <__ledf2+0x44>
    3b42:	2300      	movs	r3, #0
    3b44:	2800      	cmp	r0, #0
    3b46:	d0de      	beq.n	3b06 <__ledf2+0x4e>
    3b48:	e7e7      	b.n	3b1a <__ledf2+0x62>
    3b4a:	433a      	orrs	r2, r7
    3b4c:	2a00      	cmp	r2, #0
    3b4e:	d1e2      	bne.n	3b16 <__ledf2+0x5e>
    3b50:	e7e3      	b.n	3b1a <__ledf2+0x62>
    3b52:	42a5      	cmp	r5, r4
    3b54:	dce1      	bgt.n	3b1a <__ledf2+0x62>
    3b56:	db05      	blt.n	3b64 <__ledf2+0xac>
    3b58:	42be      	cmp	r6, r7
    3b5a:	d8de      	bhi.n	3b1a <__ledf2+0x62>
    3b5c:	d007      	beq.n	3b6e <__ledf2+0xb6>
    3b5e:	2300      	movs	r3, #0
    3b60:	42be      	cmp	r6, r7
    3b62:	d2d0      	bcs.n	3b06 <__ledf2+0x4e>
    3b64:	4659      	mov	r1, fp
    3b66:	2301      	movs	r3, #1
    3b68:	3901      	subs	r1, #1
    3b6a:	430b      	orrs	r3, r1
    3b6c:	e7cb      	b.n	3b06 <__ledf2+0x4e>
    3b6e:	45c8      	cmp	r8, r9
    3b70:	d8d3      	bhi.n	3b1a <__ledf2+0x62>
    3b72:	2300      	movs	r3, #0
    3b74:	45c8      	cmp	r8, r9
    3b76:	d3f5      	bcc.n	3b64 <__ledf2+0xac>
    3b78:	e7c5      	b.n	3b06 <__ledf2+0x4e>
    3b7a:	46c0      	nop			; (mov r8, r8)

00003b7c <gcvt>:
    3b7c:	b5f0      	push	{r4, r5, r6, r7, lr}
    3b7e:	001c      	movs	r4, r3
    3b80:	b085      	sub	sp, #20
    3b82:	2300      	movs	r3, #0
    3b84:	0015      	movs	r5, r2
    3b86:	2200      	movs	r2, #0
    3b88:	0006      	movs	r6, r0
    3b8a:	000f      	movs	r7, r1
    3b8c:	f7ff feb0 	bl	38f0 <__aeabi_dcmplt>
    3b90:	0023      	movs	r3, r4
    3b92:	b118      	cbz	r0, 3b9c <gcvt+0x20>
    3b94:	232d      	movs	r3, #45	; 0x2d
    3b96:	3d01      	subs	r5, #1
    3b98:	7023      	strb	r3, [r4, #0]
    3b9a:	1c63      	adds	r3, r4, #1
    3b9c:	2200      	movs	r2, #0
    3b9e:	4909      	ldr	r1, [pc, #36]	; (3bc4 <gcvt+0x48>)
    3ba0:	9203      	str	r2, [sp, #12]
    3ba2:	3267      	adds	r2, #103	; 0x67
    3ba4:	9202      	str	r2, [sp, #8]
    3ba6:	9301      	str	r3, [sp, #4]
    3ba8:	9500      	str	r5, [sp, #0]
    3baa:	003b      	movs	r3, r7
    3bac:	0032      	movs	r2, r6
    3bae:	6808      	ldr	r0, [r1, #0]
    3bb0:	f000 f8fe 	bl	3db0 <_gcvt>
    3bb4:	1e43      	subs	r3, r0, #1
    3bb6:	4198      	sbcs	r0, r3
    3bb8:	4240      	negs	r0, r0
    3bba:	4004      	ands	r4, r0
    3bbc:	0020      	movs	r0, r4
    3bbe:	b005      	add	sp, #20
    3bc0:	bdf0      	pop	{r4, r5, r6, r7, pc}
    3bc2:	46c0      	nop			; (mov r8, r8)
    3bc4:	20000004 	.word	0x20000004

00003bc8 <__libc_init_array>:
    3bc8:	b570      	push	{r4, r5, r6, lr}
    3bca:	2500      	movs	r5, #0
    3bcc:	4b0e      	ldr	r3, [pc, #56]	; (3c08 <__libc_init_array+0x40>)
    3bce:	4c0f      	ldr	r4, [pc, #60]	; (3c0c <__libc_init_array+0x44>)
    3bd0:	1ae4      	subs	r4, r4, r3
    3bd2:	10a4      	asrs	r4, r4, #2
    3bd4:	42a5      	cmp	r5, r4
    3bd6:	d109      	bne.n	3bec <__libc_init_array+0x24>
    3bd8:	2500      	movs	r5, #0
    3bda:	f002 f8f7 	bl	5dcc <_init>
    3bde:	4c0c      	ldr	r4, [pc, #48]	; (3c10 <__libc_init_array+0x48>)
    3be0:	4b0c      	ldr	r3, [pc, #48]	; (3c14 <__libc_init_array+0x4c>)
    3be2:	1ae4      	subs	r4, r4, r3
    3be4:	10a4      	asrs	r4, r4, #2
    3be6:	42a5      	cmp	r5, r4
    3be8:	d107      	bne.n	3bfa <__libc_init_array+0x32>
    3bea:	bd70      	pop	{r4, r5, r6, pc}
    3bec:	4a06      	ldr	r2, [pc, #24]	; (3c08 <__libc_init_array+0x40>)
    3bee:	00ab      	lsls	r3, r5, #2
    3bf0:	189b      	adds	r3, r3, r2
    3bf2:	681b      	ldr	r3, [r3, #0]
    3bf4:	4798      	blx	r3
    3bf6:	3501      	adds	r5, #1
    3bf8:	e7ec      	b.n	3bd4 <__libc_init_array+0xc>
    3bfa:	4a06      	ldr	r2, [pc, #24]	; (3c14 <__libc_init_array+0x4c>)
    3bfc:	00ab      	lsls	r3, r5, #2
    3bfe:	189b      	adds	r3, r3, r2
    3c00:	681b      	ldr	r3, [r3, #0]
    3c02:	4798      	blx	r3
    3c04:	3501      	adds	r5, #1
    3c06:	e7ee      	b.n	3be6 <__libc_init_array+0x1e>
    3c08:	00005dd8 	.word	0x00005dd8
    3c0c:	00005dd8 	.word	0x00005dd8
    3c10:	00005ddc 	.word	0x00005ddc
    3c14:	00005dd8 	.word	0x00005dd8

00003c18 <__itoa>:
    3c18:	1e93      	subs	r3, r2, #2
    3c1a:	b510      	push	{r4, lr}
    3c1c:	000c      	movs	r4, r1
    3c1e:	2b22      	cmp	r3, #34	; 0x22
    3c20:	d904      	bls.n	3c2c <__itoa+0x14>
    3c22:	2300      	movs	r3, #0
    3c24:	001c      	movs	r4, r3
    3c26:	700b      	strb	r3, [r1, #0]
    3c28:	0020      	movs	r0, r4
    3c2a:	bd10      	pop	{r4, pc}
    3c2c:	2a0a      	cmp	r2, #10
    3c2e:	d109      	bne.n	3c44 <__itoa+0x2c>
    3c30:	2800      	cmp	r0, #0
    3c32:	da07      	bge.n	3c44 <__itoa+0x2c>
    3c34:	232d      	movs	r3, #45	; 0x2d
    3c36:	700b      	strb	r3, [r1, #0]
    3c38:	2101      	movs	r1, #1
    3c3a:	4240      	negs	r0, r0
    3c3c:	1861      	adds	r1, r4, r1
    3c3e:	f000 f80f 	bl	3c60 <__utoa>
    3c42:	e7f1      	b.n	3c28 <__itoa+0x10>
    3c44:	2100      	movs	r1, #0
    3c46:	e7f9      	b.n	3c3c <__itoa+0x24>

00003c48 <itoa>:
    3c48:	b510      	push	{r4, lr}
    3c4a:	f7ff ffe5 	bl	3c18 <__itoa>
    3c4e:	bd10      	pop	{r4, pc}

00003c50 <memset>:
    3c50:	0003      	movs	r3, r0
    3c52:	1882      	adds	r2, r0, r2
    3c54:	4293      	cmp	r3, r2
    3c56:	d100      	bne.n	3c5a <memset+0xa>
    3c58:	4770      	bx	lr
    3c5a:	7019      	strb	r1, [r3, #0]
    3c5c:	3301      	adds	r3, #1
    3c5e:	e7f9      	b.n	3c54 <memset+0x4>

00003c60 <__utoa>:
    3c60:	b5f0      	push	{r4, r5, r6, r7, lr}
    3c62:	0016      	movs	r6, r2
    3c64:	b08b      	sub	sp, #44	; 0x2c
    3c66:	2225      	movs	r2, #37	; 0x25
    3c68:	0005      	movs	r5, r0
    3c6a:	000c      	movs	r4, r1
    3c6c:	4668      	mov	r0, sp
    3c6e:	4914      	ldr	r1, [pc, #80]	; (3cc0 <__utoa+0x60>)
    3c70:	f000 f960 	bl	3f34 <memcpy>
    3c74:	1eb1      	subs	r1, r6, #2
    3c76:	2300      	movs	r3, #0
    3c78:	466a      	mov	r2, sp
    3c7a:	2922      	cmp	r1, #34	; 0x22
    3c7c:	d905      	bls.n	3c8a <__utoa+0x2a>
    3c7e:	7023      	strb	r3, [r4, #0]
    3c80:	001c      	movs	r4, r3
    3c82:	0020      	movs	r0, r4
    3c84:	b00b      	add	sp, #44	; 0x2c
    3c86:	bdf0      	pop	{r4, r5, r6, r7, pc}
    3c88:	4663      	mov	r3, ip
    3c8a:	1c59      	adds	r1, r3, #1
    3c8c:	fbb5 f7f6 	udiv	r7, r5, r6
    3c90:	1860      	adds	r0, r4, r1
    3c92:	468c      	mov	ip, r1
    3c94:	0031      	movs	r1, r6
    3c96:	4379      	muls	r1, r7
    3c98:	1a6d      	subs	r5, r5, r1
    3c9a:	5d51      	ldrb	r1, [r2, r5]
    3c9c:	1e45      	subs	r5, r0, #1
    3c9e:	7029      	strb	r1, [r5, #0]
    3ca0:	003d      	movs	r5, r7
    3ca2:	2f00      	cmp	r7, #0
    3ca4:	d1f0      	bne.n	3c88 <__utoa+0x28>
    3ca6:	0022      	movs	r2, r4
    3ca8:	7007      	strb	r7, [r0, #0]
    3caa:	1b11      	subs	r1, r2, r4
    3cac:	428b      	cmp	r3, r1
    3cae:	dde8      	ble.n	3c82 <__utoa+0x22>
    3cb0:	7811      	ldrb	r1, [r2, #0]
    3cb2:	5ce0      	ldrb	r0, [r4, r3]
    3cb4:	7010      	strb	r0, [r2, #0]
    3cb6:	54e1      	strb	r1, [r4, r3]
    3cb8:	3201      	adds	r2, #1
    3cba:	3b01      	subs	r3, #1
    3cbc:	e7f5      	b.n	3caa <__utoa+0x4a>
    3cbe:	46c0      	nop			; (mov r8, r8)
    3cc0:	00005c34 	.word	0x00005c34

00003cc4 <print_e>:
    3cc4:	b5f0      	push	{r4, r5, r6, r7, lr}
    3cc6:	b08b      	sub	sp, #44	; 0x2c
    3cc8:	000e      	movs	r6, r1
    3cca:	a910      	add	r1, sp, #64	; 0x40
    3ccc:	c910      	ldmia	r1!, {r4}
    3cce:	780d      	ldrb	r5, [r1, #0]
    3cd0:	a908      	add	r1, sp, #32
    3cd2:	9104      	str	r1, [sp, #16]
    3cd4:	a907      	add	r1, sp, #28
    3cd6:	9103      	str	r1, [sp, #12]
    3cd8:	a909      	add	r1, sp, #36	; 0x24
    3cda:	9102      	str	r1, [sp, #8]
    3cdc:	1c61      	adds	r1, r4, #1
    3cde:	9101      	str	r1, [sp, #4]
    3ce0:	2102      	movs	r1, #2
    3ce2:	9100      	str	r1, [sp, #0]
    3ce4:	f000 fd1c 	bl	4720 <_dtoa_r>
    3ce8:	f242 730f 	movw	r3, #9999	; 0x270f
    3cec:	9f09      	ldr	r7, [sp, #36]	; 0x24
    3cee:	429f      	cmp	r7, r3
    3cf0:	d105      	bne.n	3cfe <print_e+0x3a>
    3cf2:	0001      	movs	r1, r0
    3cf4:	0030      	movs	r0, r6
    3cf6:	f000 fc89 	bl	460c <strcpy>
    3cfa:	b00b      	add	sp, #44	; 0x2c
    3cfc:	bdf0      	pop	{r4, r5, r6, r7, pc}
    3cfe:	9a12      	ldr	r2, [sp, #72]	; 0x48
    3d00:	7803      	ldrb	r3, [r0, #0]
    3d02:	4322      	orrs	r2, r4
    3d04:	1c41      	adds	r1, r0, #1
    3d06:	7033      	strb	r3, [r6, #0]
    3d08:	b942      	cbnz	r2, 3d1c <print_e+0x58>
    3d0a:	0014      	movs	r4, r2
    3d0c:	1c73      	adds	r3, r6, #1
    3d0e:	7808      	ldrb	r0, [r1, #0]
    3d10:	001a      	movs	r2, r3
    3d12:	b938      	cbnz	r0, 3d24 <print_e+0x60>
    3d14:	2d67      	cmp	r5, #103	; 0x67
    3d16:	d10c      	bne.n	3d32 <print_e+0x6e>
    3d18:	2565      	movs	r5, #101	; 0x65
    3d1a:	e014      	b.n	3d46 <print_e+0x82>
    3d1c:	222e      	movs	r2, #46	; 0x2e
    3d1e:	1cb3      	adds	r3, r6, #2
    3d20:	7072      	strb	r2, [r6, #1]
    3d22:	e7f4      	b.n	3d0e <print_e+0x4a>
    3d24:	2c00      	cmp	r4, #0
    3d26:	ddf5      	ble.n	3d14 <print_e+0x50>
    3d28:	7018      	strb	r0, [r3, #0]
    3d2a:	3101      	adds	r1, #1
    3d2c:	3c01      	subs	r4, #1
    3d2e:	3301      	adds	r3, #1
    3d30:	e7ed      	b.n	3d0e <print_e+0x4a>
    3d32:	2d47      	cmp	r5, #71	; 0x47
    3d34:	d036      	beq.n	3da4 <print_e+0xe0>
    3d36:	0021      	movs	r1, r4
    3d38:	2030      	movs	r0, #48	; 0x30
    3d3a:	2900      	cmp	r1, #0
    3d3c:	dc2e      	bgt.n	3d9c <print_e+0xd8>
    3d3e:	43e3      	mvns	r3, r4
    3d40:	17db      	asrs	r3, r3, #31
    3d42:	401c      	ands	r4, r3
    3d44:	1912      	adds	r2, r2, r4
    3d46:	1e7b      	subs	r3, r7, #1
    3d48:	1c90      	adds	r0, r2, #2
    3d4a:	7015      	strb	r5, [r2, #0]
    3d4c:	9309      	str	r3, [sp, #36]	; 0x24
    3d4e:	0001      	movs	r1, r0
    3d50:	2b00      	cmp	r3, #0
    3d52:	da29      	bge.n	3da8 <print_e+0xe4>
    3d54:	232d      	movs	r3, #45	; 0x2d
    3d56:	7053      	strb	r3, [r2, #1]
    3d58:	3b2c      	subs	r3, #44	; 0x2c
    3d5a:	1bdf      	subs	r7, r3, r7
    3d5c:	9709      	str	r7, [sp, #36]	; 0x24
    3d5e:	9c09      	ldr	r4, [sp, #36]	; 0x24
    3d60:	2c63      	cmp	r4, #99	; 0x63
    3d62:	dd0b      	ble.n	3d7c <print_e+0xb8>
    3d64:	2264      	movs	r2, #100	; 0x64
    3d66:	fb94 f2f2 	sdiv	r2, r4, r2
    3d6a:	0013      	movs	r3, r2
    3d6c:	3330      	adds	r3, #48	; 0x30
    3d6e:	7003      	strb	r3, [r0, #0]
    3d70:	2364      	movs	r3, #100	; 0x64
    3d72:	425b      	negs	r3, r3
    3d74:	4353      	muls	r3, r2
    3d76:	191b      	adds	r3, r3, r4
    3d78:	9309      	str	r3, [sp, #36]	; 0x24
    3d7a:	1c41      	adds	r1, r0, #1
    3d7c:	220a      	movs	r2, #10
    3d7e:	9809      	ldr	r0, [sp, #36]	; 0x24
    3d80:	fb90 f2f2 	sdiv	r2, r0, r2
    3d84:	0013      	movs	r3, r2
    3d86:	3330      	adds	r3, #48	; 0x30
    3d88:	700b      	strb	r3, [r1, #0]
    3d8a:	230a      	movs	r3, #10
    3d8c:	425b      	negs	r3, r3
    3d8e:	4353      	muls	r3, r2
    3d90:	181b      	adds	r3, r3, r0
    3d92:	3330      	adds	r3, #48	; 0x30
    3d94:	704b      	strb	r3, [r1, #1]
    3d96:	2300      	movs	r3, #0
    3d98:	708b      	strb	r3, [r1, #2]
    3d9a:	e7ae      	b.n	3cfa <print_e+0x36>
    3d9c:	7018      	strb	r0, [r3, #0]
    3d9e:	3901      	subs	r1, #1
    3da0:	3301      	adds	r3, #1
    3da2:	e7ca      	b.n	3d3a <print_e+0x76>
    3da4:	2545      	movs	r5, #69	; 0x45
    3da6:	e7ce      	b.n	3d46 <print_e+0x82>
    3da8:	232b      	movs	r3, #43	; 0x2b
    3daa:	7053      	strb	r3, [r2, #1]
    3dac:	e7d7      	b.n	3d5e <print_e+0x9a>
	...

00003db0 <_gcvt>:
    3db0:	b5f0      	push	{r4, r5, r6, r7, lr}
    3db2:	0015      	movs	r5, r2
    3db4:	001c      	movs	r4, r3
    3db6:	b08d      	sub	sp, #52	; 0x34
    3db8:	ab14      	add	r3, sp, #80	; 0x50
    3dba:	781b      	ldrb	r3, [r3, #0]
    3dbc:	0006      	movs	r6, r0
    3dbe:	9307      	str	r3, [sp, #28]
    3dc0:	2200      	movs	r2, #0
    3dc2:	2300      	movs	r3, #0
    3dc4:	0028      	movs	r0, r5
    3dc6:	0021      	movs	r1, r4
    3dc8:	9f13      	ldr	r7, [sp, #76]	; 0x4c
    3dca:	f7ff fd91 	bl	38f0 <__aeabi_dcmplt>
    3dce:	b110      	cbz	r0, 3dd6 <_gcvt+0x26>
    3dd0:	2380      	movs	r3, #128	; 0x80
    3dd2:	061b      	lsls	r3, r3, #24
    3dd4:	18e4      	adds	r4, r4, r3
    3dd6:	2200      	movs	r2, #0
    3dd8:	2300      	movs	r3, #0
    3dda:	0028      	movs	r0, r5
    3ddc:	0021      	movs	r1, r4
    3dde:	f7ff fd81 	bl	38e4 <__aeabi_dcmpeq>
    3de2:	b130      	cbz	r0, 3df2 <_gcvt+0x42>
    3de4:	2330      	movs	r3, #48	; 0x30
    3de6:	703b      	strb	r3, [r7, #0]
    3de8:	2300      	movs	r3, #0
    3dea:	707b      	strb	r3, [r7, #1]
    3dec:	0038      	movs	r0, r7
    3dee:	b00d      	add	sp, #52	; 0x34
    3df0:	bdf0      	pop	{r4, r5, r6, r7, pc}
    3df2:	4a4d      	ldr	r2, [pc, #308]	; (3f28 <_gcvt+0x178>)
    3df4:	4b4d      	ldr	r3, [pc, #308]	; (3f2c <_gcvt+0x17c>)
    3df6:	0028      	movs	r0, r5
    3df8:	0021      	movs	r1, r4
    3dfa:	f7ff fd83 	bl	3904 <__aeabi_dcmple>
    3dfe:	b168      	cbz	r0, 3e1c <_gcvt+0x6c>
    3e00:	9b15      	ldr	r3, [sp, #84]	; 0x54
    3e02:	002a      	movs	r2, r5
    3e04:	9302      	str	r3, [sp, #8]
    3e06:	9b07      	ldr	r3, [sp, #28]
    3e08:	0039      	movs	r1, r7
    3e0a:	9301      	str	r3, [sp, #4]
    3e0c:	9b12      	ldr	r3, [sp, #72]	; 0x48
    3e0e:	0030      	movs	r0, r6
    3e10:	3b01      	subs	r3, #1
    3e12:	9300      	str	r3, [sp, #0]
    3e14:	0023      	movs	r3, r4
    3e16:	f7ff ff55 	bl	3cc4 <print_e>
    3e1a:	e7e7      	b.n	3dec <_gcvt+0x3c>
    3e1c:	9812      	ldr	r0, [sp, #72]	; 0x48
    3e1e:	f000 fb5f 	bl	44e0 <_mprec_log10>
    3e22:	0002      	movs	r2, r0
    3e24:	000b      	movs	r3, r1
    3e26:	0028      	movs	r0, r5
    3e28:	0021      	movs	r1, r4
    3e2a:	f7ff fd7f 	bl	392c <__aeabi_dcmpge>
    3e2e:	2800      	cmp	r0, #0
    3e30:	d1e6      	bne.n	3e00 <_gcvt+0x50>
    3e32:	2200      	movs	r2, #0
    3e34:	4b3e      	ldr	r3, [pc, #248]	; (3f30 <_gcvt+0x180>)
    3e36:	0028      	movs	r0, r5
    3e38:	0021      	movs	r1, r4
    3e3a:	f7ff fd59 	bl	38f0 <__aeabi_dcmplt>
    3e3e:	ab0a      	add	r3, sp, #40	; 0x28
    3e40:	9303      	str	r3, [sp, #12]
    3e42:	ab09      	add	r3, sp, #36	; 0x24
    3e44:	9302      	str	r3, [sp, #8]
    3e46:	9b12      	ldr	r3, [sp, #72]	; 0x48
    3e48:	aa0b      	add	r2, sp, #44	; 0x2c
    3e4a:	9301      	str	r3, [sp, #4]
    3e4c:	9204      	str	r2, [sp, #16]
    3e4e:	2303      	movs	r3, #3
    3e50:	b900      	cbnz	r0, 3e54 <_gcvt+0xa4>
    3e52:	2302      	movs	r3, #2
    3e54:	9300      	str	r3, [sp, #0]
    3e56:	002a      	movs	r2, r5
    3e58:	0023      	movs	r3, r4
    3e5a:	0030      	movs	r0, r6
    3e5c:	f000 fc60 	bl	4720 <_dtoa_r>
    3e60:	f242 730f 	movw	r3, #9999	; 0x270f
    3e64:	9a09      	ldr	r2, [sp, #36]	; 0x24
    3e66:	429a      	cmp	r2, r3
    3e68:	d011      	beq.n	3e8e <_gcvt+0xde>
    3e6a:	003a      	movs	r2, r7
    3e6c:	9b12      	ldr	r3, [sp, #72]	; 0x48
    3e6e:	7804      	ldrb	r4, [r0, #0]
    3e70:	1a9b      	subs	r3, r3, r2
    3e72:	0011      	movs	r1, r2
    3e74:	18fb      	adds	r3, r7, r3
    3e76:	9d09      	ldr	r5, [sp, #36]	; 0x24
    3e78:	b9a4      	cbnz	r4, 3ea4 <_gcvt+0xf4>
    3e7a:	f240 0c01 	movw	ip, #1
    3e7e:	1aed      	subs	r5, r5, r3
    3e80:	18ee      	adds	r6, r5, r3
    3e82:	0011      	movs	r1, r2
    3e84:	2e00      	cmp	r6, #0
    3e86:	dc35      	bgt.n	3ef4 <_gcvt+0x144>
    3e88:	b174      	cbz	r4, 3ea8 <_gcvt+0xf8>
    3e8a:	9609      	str	r6, [sp, #36]	; 0x24
    3e8c:	e00c      	b.n	3ea8 <_gcvt+0xf8>
    3e8e:	0001      	movs	r1, r0
    3e90:	0038      	movs	r0, r7
    3e92:	f000 fbbb 	bl	460c <strcpy>
    3e96:	e7a9      	b.n	3dec <_gcvt+0x3c>
    3e98:	3d01      	subs	r5, #1
    3e9a:	7014      	strb	r4, [r2, #0]
    3e9c:	3001      	adds	r0, #1
    3e9e:	9509      	str	r5, [sp, #36]	; 0x24
    3ea0:	3201      	adds	r2, #1
    3ea2:	e7e3      	b.n	3e6c <_gcvt+0xbc>
    3ea4:	2d00      	cmp	r5, #0
    3ea6:	dcf7      	bgt.n	3e98 <_gcvt+0xe8>
    3ea8:	9c15      	ldr	r4, [sp, #84]	; 0x54
    3eaa:	b90c      	cbnz	r4, 3eb0 <_gcvt+0x100>
    3eac:	7804      	ldrb	r4, [r0, #0]
    3eae:	b1f4      	cbz	r4, 3eee <_gcvt+0x13e>
    3eb0:	4297      	cmp	r7, r2
    3eb2:	d102      	bne.n	3eba <_gcvt+0x10a>
    3eb4:	2230      	movs	r2, #48	; 0x30
    3eb6:	1c79      	adds	r1, r7, #1
    3eb8:	703a      	strb	r2, [r7, #0]
    3eba:	222e      	movs	r2, #46	; 0x2e
    3ebc:	2530      	movs	r5, #48	; 0x30
    3ebe:	700a      	strb	r2, [r1, #0]
    3ec0:	2601      	movs	r6, #1
    3ec2:	1c4a      	adds	r2, r1, #1
    3ec4:	2100      	movs	r1, #0
    3ec6:	9c09      	ldr	r4, [sp, #36]	; 0x24
    3ec8:	2c00      	cmp	r4, #0
    3eca:	db1b      	blt.n	3f04 <_gcvt+0x154>
    3ecc:	b101      	cbz	r1, 3ed0 <_gcvt+0x120>
    3ece:	9409      	str	r4, [sp, #36]	; 0x24
    3ed0:	7804      	ldrb	r4, [r0, #0]
    3ed2:	0011      	movs	r1, r2
    3ed4:	b10c      	cbz	r4, 3eda <_gcvt+0x12a>
    3ed6:	2b00      	cmp	r3, #0
    3ed8:	dc1c      	bgt.n	3f14 <_gcvt+0x164>
    3eda:	9815      	ldr	r0, [sp, #84]	; 0x54
    3edc:	b138      	cbz	r0, 3eee <_gcvt+0x13e>
    3ede:	0018      	movs	r0, r3
    3ee0:	2430      	movs	r4, #48	; 0x30
    3ee2:	2800      	cmp	r0, #0
    3ee4:	dc1b      	bgt.n	3f1e <_gcvt+0x16e>
    3ee6:	43da      	mvns	r2, r3
    3ee8:	17d2      	asrs	r2, r2, #31
    3eea:	4013      	ands	r3, r2
    3eec:	18c9      	adds	r1, r1, r3
    3eee:	2300      	movs	r3, #0
    3ef0:	700b      	strb	r3, [r1, #0]
    3ef2:	e77b      	b.n	3dec <_gcvt+0x3c>
    3ef4:	2b00      	cmp	r3, #0
    3ef6:	ddc7      	ble.n	3e88 <_gcvt+0xd8>
    3ef8:	2130      	movs	r1, #48	; 0x30
    3efa:	3b01      	subs	r3, #1
    3efc:	7011      	strb	r1, [r2, #0]
    3efe:	4664      	mov	r4, ip
    3f00:	3201      	adds	r2, #1
    3f02:	e7bd      	b.n	3e80 <_gcvt+0xd0>
    3f04:	2b00      	cmp	r3, #0
    3f06:	dde1      	ble.n	3ecc <_gcvt+0x11c>
    3f08:	7015      	strb	r5, [r2, #0]
    3f0a:	3401      	adds	r4, #1
    3f0c:	3b01      	subs	r3, #1
    3f0e:	3201      	adds	r2, #1
    3f10:	0031      	movs	r1, r6
    3f12:	e7d9      	b.n	3ec8 <_gcvt+0x118>
    3f14:	7014      	strb	r4, [r2, #0]
    3f16:	3001      	adds	r0, #1
    3f18:	3b01      	subs	r3, #1
    3f1a:	3201      	adds	r2, #1
    3f1c:	e7d8      	b.n	3ed0 <_gcvt+0x120>
    3f1e:	7014      	strb	r4, [r2, #0]
    3f20:	3801      	subs	r0, #1
    3f22:	3201      	adds	r2, #1
    3f24:	e7dd      	b.n	3ee2 <_gcvt+0x132>
    3f26:	46c0      	nop			; (mov r8, r8)
    3f28:	eb1c432d 	.word	0xeb1c432d
    3f2c:	3f1a36e2 	.word	0x3f1a36e2
    3f30:	3ff00000 	.word	0x3ff00000

00003f34 <memcpy>:
    3f34:	2300      	movs	r3, #0
    3f36:	b510      	push	{r4, lr}
    3f38:	429a      	cmp	r2, r3
    3f3a:	d100      	bne.n	3f3e <memcpy+0xa>
    3f3c:	bd10      	pop	{r4, pc}
    3f3e:	5ccc      	ldrb	r4, [r1, r3]
    3f40:	54c4      	strb	r4, [r0, r3]
    3f42:	3301      	adds	r3, #1
    3f44:	e7f8      	b.n	3f38 <memcpy+0x4>

00003f46 <_Balloc>:
    3f46:	b570      	push	{r4, r5, r6, lr}
    3f48:	6a46      	ldr	r6, [r0, #36]	; 0x24
    3f4a:	0004      	movs	r4, r0
    3f4c:	000d      	movs	r5, r1
    3f4e:	b93e      	cbnz	r6, 3f60 <_Balloc+0x1a>
    3f50:	2010      	movs	r0, #16
    3f52:	f001 f9c1 	bl	52d8 <malloc>
    3f56:	6260      	str	r0, [r4, #36]	; 0x24
    3f58:	6046      	str	r6, [r0, #4]
    3f5a:	6086      	str	r6, [r0, #8]
    3f5c:	6006      	str	r6, [r0, #0]
    3f5e:	60c6      	str	r6, [r0, #12]
    3f60:	6a66      	ldr	r6, [r4, #36]	; 0x24
    3f62:	68f3      	ldr	r3, [r6, #12]
    3f64:	b18b      	cbz	r3, 3f8a <_Balloc+0x44>
    3f66:	6a63      	ldr	r3, [r4, #36]	; 0x24
    3f68:	00aa      	lsls	r2, r5, #2
    3f6a:	68db      	ldr	r3, [r3, #12]
    3f6c:	189b      	adds	r3, r3, r2
    3f6e:	6818      	ldr	r0, [r3, #0]
    3f70:	b9b8      	cbnz	r0, 3fa2 <_Balloc+0x5c>
    3f72:	2101      	movs	r1, #1
    3f74:	000e      	movs	r6, r1
    3f76:	40ae      	lsls	r6, r5
    3f78:	1d72      	adds	r2, r6, #5
    3f7a:	0092      	lsls	r2, r2, #2
    3f7c:	0020      	movs	r0, r4
    3f7e:	f000 fac9 	bl	4514 <_calloc_r>
    3f82:	b160      	cbz	r0, 3f9e <_Balloc+0x58>
    3f84:	6045      	str	r5, [r0, #4]
    3f86:	6086      	str	r6, [r0, #8]
    3f88:	e00d      	b.n	3fa6 <_Balloc+0x60>
    3f8a:	2221      	movs	r2, #33	; 0x21
    3f8c:	2104      	movs	r1, #4
    3f8e:	0020      	movs	r0, r4
    3f90:	f000 fac0 	bl	4514 <_calloc_r>
    3f94:	6a63      	ldr	r3, [r4, #36]	; 0x24
    3f96:	60f0      	str	r0, [r6, #12]
    3f98:	68db      	ldr	r3, [r3, #12]
    3f9a:	2b00      	cmp	r3, #0
    3f9c:	d1e3      	bne.n	3f66 <_Balloc+0x20>
    3f9e:	2000      	movs	r0, #0
    3fa0:	bd70      	pop	{r4, r5, r6, pc}
    3fa2:	6802      	ldr	r2, [r0, #0]
    3fa4:	601a      	str	r2, [r3, #0]
    3fa6:	2300      	movs	r3, #0
    3fa8:	6103      	str	r3, [r0, #16]
    3faa:	60c3      	str	r3, [r0, #12]
    3fac:	e7f8      	b.n	3fa0 <_Balloc+0x5a>

00003fae <_Bfree>:
    3fae:	b570      	push	{r4, r5, r6, lr}
    3fb0:	6a44      	ldr	r4, [r0, #36]	; 0x24
    3fb2:	0006      	movs	r6, r0
    3fb4:	000d      	movs	r5, r1
    3fb6:	b93c      	cbnz	r4, 3fc8 <_Bfree+0x1a>
    3fb8:	2010      	movs	r0, #16
    3fba:	f001 f98d 	bl	52d8 <malloc>
    3fbe:	6270      	str	r0, [r6, #36]	; 0x24
    3fc0:	6044      	str	r4, [r0, #4]
    3fc2:	6084      	str	r4, [r0, #8]
    3fc4:	6004      	str	r4, [r0, #0]
    3fc6:	60c4      	str	r4, [r0, #12]
    3fc8:	b13d      	cbz	r5, 3fda <_Bfree+0x2c>
    3fca:	6a73      	ldr	r3, [r6, #36]	; 0x24
    3fcc:	686a      	ldr	r2, [r5, #4]
    3fce:	68db      	ldr	r3, [r3, #12]
    3fd0:	0092      	lsls	r2, r2, #2
    3fd2:	189b      	adds	r3, r3, r2
    3fd4:	681a      	ldr	r2, [r3, #0]
    3fd6:	602a      	str	r2, [r5, #0]
    3fd8:	601d      	str	r5, [r3, #0]
    3fda:	bd70      	pop	{r4, r5, r6, pc}

00003fdc <__multadd>:
    3fdc:	f240 0c14 	movw	ip, #20
    3fe0:	b5f7      	push	{r0, r1, r2, r4, r5, r6, r7, lr}
    3fe2:	0007      	movs	r7, r0
    3fe4:	000c      	movs	r4, r1
    3fe6:	001e      	movs	r6, r3
    3fe8:	2000      	movs	r0, #0
    3fea:	690d      	ldr	r5, [r1, #16]
    3fec:	448c      	add	ip, r1
    3fee:	4663      	mov	r3, ip
    3ff0:	8819      	ldrh	r1, [r3, #0]
    3ff2:	681b      	ldr	r3, [r3, #0]
    3ff4:	4351      	muls	r1, r2
    3ff6:	0c1b      	lsrs	r3, r3, #16
    3ff8:	4353      	muls	r3, r2
    3ffa:	1989      	adds	r1, r1, r6
    3ffc:	0c0e      	lsrs	r6, r1, #16
    3ffe:	199b      	adds	r3, r3, r6
    4000:	b289      	uxth	r1, r1
    4002:	0c1e      	lsrs	r6, r3, #16
    4004:	041b      	lsls	r3, r3, #16
    4006:	185b      	adds	r3, r3, r1
    4008:	4661      	mov	r1, ip
    400a:	3001      	adds	r0, #1
    400c:	c108      	stmia	r1!, {r3}
    400e:	468c      	mov	ip, r1
    4010:	4285      	cmp	r5, r0
    4012:	dcec      	bgt.n	3fee <__multadd+0x12>
    4014:	b1de      	cbz	r6, 404e <__multadd+0x72>
    4016:	68a3      	ldr	r3, [r4, #8]
    4018:	429d      	cmp	r5, r3
    401a:	db12      	blt.n	4042 <__multadd+0x66>
    401c:	6863      	ldr	r3, [r4, #4]
    401e:	0038      	movs	r0, r7
    4020:	1c59      	adds	r1, r3, #1
    4022:	f7ff ff90 	bl	3f46 <_Balloc>
    4026:	0021      	movs	r1, r4
    4028:	6923      	ldr	r3, [r4, #16]
    402a:	9001      	str	r0, [sp, #4]
    402c:	1c9a      	adds	r2, r3, #2
    402e:	0092      	lsls	r2, r2, #2
    4030:	310c      	adds	r1, #12
    4032:	300c      	adds	r0, #12
    4034:	f7ff ff7e 	bl	3f34 <memcpy>
    4038:	0021      	movs	r1, r4
    403a:	0038      	movs	r0, r7
    403c:	f7ff ffb7 	bl	3fae <_Bfree>
    4040:	9c01      	ldr	r4, [sp, #4]
    4042:	1d2b      	adds	r3, r5, #4
    4044:	009b      	lsls	r3, r3, #2
    4046:	18e3      	adds	r3, r4, r3
    4048:	3501      	adds	r5, #1
    404a:	605e      	str	r6, [r3, #4]
    404c:	6125      	str	r5, [r4, #16]
    404e:	0020      	movs	r0, r4
    4050:	bdfe      	pop	{r1, r2, r3, r4, r5, r6, r7, pc}

00004052 <__hi0bits>:
    4052:	0c02      	lsrs	r2, r0, #16
    4054:	0003      	movs	r3, r0
    4056:	2000      	movs	r0, #0
    4058:	b90a      	cbnz	r2, 405e <__hi0bits+0xc>
    405a:	041b      	lsls	r3, r3, #16
    405c:	3010      	adds	r0, #16
    405e:	0e1a      	lsrs	r2, r3, #24
    4060:	b90a      	cbnz	r2, 4066 <__hi0bits+0x14>
    4062:	3008      	adds	r0, #8
    4064:	021b      	lsls	r3, r3, #8
    4066:	0f1a      	lsrs	r2, r3, #28
    4068:	b90a      	cbnz	r2, 406e <__hi0bits+0x1c>
    406a:	3004      	adds	r0, #4
    406c:	011b      	lsls	r3, r3, #4
    406e:	0f9a      	lsrs	r2, r3, #30
    4070:	b90a      	cbnz	r2, 4076 <__hi0bits+0x24>
    4072:	3002      	adds	r0, #2
    4074:	009b      	lsls	r3, r3, #2
    4076:	2b00      	cmp	r3, #0
    4078:	db03      	blt.n	4082 <__hi0bits+0x30>
    407a:	3001      	adds	r0, #1
    407c:	005b      	lsls	r3, r3, #1
    407e:	d400      	bmi.n	4082 <__hi0bits+0x30>
    4080:	2020      	movs	r0, #32
    4082:	4770      	bx	lr

00004084 <__lo0bits>:
    4084:	2207      	movs	r2, #7
    4086:	6803      	ldr	r3, [r0, #0]
    4088:	b510      	push	{r4, lr}
    408a:	401a      	ands	r2, r3
    408c:	0001      	movs	r1, r0
    408e:	b16a      	cbz	r2, 40ac <__lo0bits+0x28>
    4090:	2401      	movs	r4, #1
    4092:	2000      	movs	r0, #0
    4094:	4223      	tst	r3, r4
    4096:	d105      	bne.n	40a4 <__lo0bits+0x20>
    4098:	3002      	adds	r0, #2
    409a:	4203      	tst	r3, r0
    409c:	d003      	beq.n	40a6 <__lo0bits+0x22>
    409e:	40e3      	lsrs	r3, r4
    40a0:	0020      	movs	r0, r4
    40a2:	600b      	str	r3, [r1, #0]
    40a4:	bd10      	pop	{r4, pc}
    40a6:	089b      	lsrs	r3, r3, #2
    40a8:	600b      	str	r3, [r1, #0]
    40aa:	e7fb      	b.n	40a4 <__lo0bits+0x20>
    40ac:	b29c      	uxth	r4, r3
    40ae:	0010      	movs	r0, r2
    40b0:	b90c      	cbnz	r4, 40b6 <__lo0bits+0x32>
    40b2:	2010      	movs	r0, #16
    40b4:	0c1b      	lsrs	r3, r3, #16
    40b6:	b2da      	uxtb	r2, r3
    40b8:	b90a      	cbnz	r2, 40be <__lo0bits+0x3a>
    40ba:	3008      	adds	r0, #8
    40bc:	0a1b      	lsrs	r3, r3, #8
    40be:	071a      	lsls	r2, r3, #28
    40c0:	d101      	bne.n	40c6 <__lo0bits+0x42>
    40c2:	3004      	adds	r0, #4
    40c4:	091b      	lsrs	r3, r3, #4
    40c6:	079a      	lsls	r2, r3, #30
    40c8:	d101      	bne.n	40ce <__lo0bits+0x4a>
    40ca:	3002      	adds	r0, #2
    40cc:	089b      	lsrs	r3, r3, #2
    40ce:	07da      	lsls	r2, r3, #31
    40d0:	d4ea      	bmi.n	40a8 <__lo0bits+0x24>
    40d2:	085b      	lsrs	r3, r3, #1
    40d4:	b10b      	cbz	r3, 40da <__lo0bits+0x56>
    40d6:	3001      	adds	r0, #1
    40d8:	e7e6      	b.n	40a8 <__lo0bits+0x24>
    40da:	2020      	movs	r0, #32
    40dc:	e7e2      	b.n	40a4 <__lo0bits+0x20>

000040de <__i2b>:
    40de:	b510      	push	{r4, lr}
    40e0:	000c      	movs	r4, r1
    40e2:	2101      	movs	r1, #1
    40e4:	f7ff ff2f 	bl	3f46 <_Balloc>
    40e8:	2301      	movs	r3, #1
    40ea:	6144      	str	r4, [r0, #20]
    40ec:	6103      	str	r3, [r0, #16]
    40ee:	bd10      	pop	{r4, pc}

000040f0 <__multiply>:
    40f0:	b5f0      	push	{r4, r5, r6, r7, lr}
    40f2:	690b      	ldr	r3, [r1, #16]
    40f4:	0015      	movs	r5, r2
    40f6:	6912      	ldr	r2, [r2, #16]
    40f8:	b089      	sub	sp, #36	; 0x24
    40fa:	000c      	movs	r4, r1
    40fc:	4293      	cmp	r3, r2
    40fe:	da01      	bge.n	4104 <__multiply+0x14>
    4100:	002c      	movs	r4, r5
    4102:	000d      	movs	r5, r1
    4104:	6927      	ldr	r7, [r4, #16]
    4106:	692e      	ldr	r6, [r5, #16]
    4108:	68a2      	ldr	r2, [r4, #8]
    410a:	19bb      	adds	r3, r7, r6
    410c:	6861      	ldr	r1, [r4, #4]
    410e:	9301      	str	r3, [sp, #4]
    4110:	4293      	cmp	r3, r2
    4112:	dd00      	ble.n	4116 <__multiply+0x26>
    4114:	3101      	adds	r1, #1
    4116:	f7ff ff16 	bl	3f46 <_Balloc>
    411a:	0003      	movs	r3, r0
    411c:	3314      	adds	r3, #20
    411e:	9300      	str	r3, [sp, #0]
    4120:	9a00      	ldr	r2, [sp, #0]
    4122:	19bb      	adds	r3, r7, r6
    4124:	4694      	mov	ip, r2
    4126:	009b      	lsls	r3, r3, #2
    4128:	449c      	add	ip, r3
    412a:	0013      	movs	r3, r2
    412c:	2200      	movs	r2, #0
    412e:	9004      	str	r0, [sp, #16]
    4130:	4563      	cmp	r3, ip
    4132:	d31c      	bcc.n	416e <__multiply+0x7e>
    4134:	002a      	movs	r2, r5
    4136:	3414      	adds	r4, #20
    4138:	00bf      	lsls	r7, r7, #2
    413a:	19e3      	adds	r3, r4, r7
    413c:	3214      	adds	r2, #20
    413e:	00b6      	lsls	r6, r6, #2
    4140:	9305      	str	r3, [sp, #20]
    4142:	1993      	adds	r3, r2, r6
    4144:	9402      	str	r4, [sp, #8]
    4146:	9306      	str	r3, [sp, #24]
    4148:	9b06      	ldr	r3, [sp, #24]
    414a:	429a      	cmp	r2, r3
    414c:	d311      	bcc.n	4172 <__multiply+0x82>
    414e:	9b01      	ldr	r3, [sp, #4]
    4150:	2b00      	cmp	r3, #0
    4152:	dd06      	ble.n	4162 <__multiply+0x72>
    4154:	2304      	movs	r3, #4
    4156:	425b      	negs	r3, r3
    4158:	449c      	add	ip, r3
    415a:	4663      	mov	r3, ip
    415c:	681b      	ldr	r3, [r3, #0]
    415e:	2b00      	cmp	r3, #0
    4160:	d050      	beq.n	4204 <__multiply+0x114>
    4162:	9b04      	ldr	r3, [sp, #16]
    4164:	9a01      	ldr	r2, [sp, #4]
    4166:	0018      	movs	r0, r3
    4168:	611a      	str	r2, [r3, #16]
    416a:	b009      	add	sp, #36	; 0x24
    416c:	bdf0      	pop	{r4, r5, r6, r7, pc}
    416e:	c304      	stmia	r3!, {r2}
    4170:	e7de      	b.n	4130 <__multiply+0x40>
    4172:	8814      	ldrh	r4, [r2, #0]
    4174:	b1f4      	cbz	r4, 41b4 <__multiply+0xc4>
    4176:	2600      	movs	r6, #0
    4178:	9d00      	ldr	r5, [sp, #0]
    417a:	9f02      	ldr	r7, [sp, #8]
    417c:	cf01      	ldmia	r7!, {r0}
    417e:	9507      	str	r5, [sp, #28]
    4180:	cd08      	ldmia	r5!, {r3}
    4182:	9303      	str	r3, [sp, #12]
    4184:	b283      	uxth	r3, r0
    4186:	4363      	muls	r3, r4
    4188:	0019      	movs	r1, r3
    418a:	466b      	mov	r3, sp
    418c:	0c00      	lsrs	r0, r0, #16
    418e:	899b      	ldrh	r3, [r3, #12]
    4190:	4360      	muls	r0, r4
    4192:	18cb      	adds	r3, r1, r3
    4194:	9903      	ldr	r1, [sp, #12]
    4196:	199b      	adds	r3, r3, r6
    4198:	0c09      	lsrs	r1, r1, #16
    419a:	1841      	adds	r1, r0, r1
    419c:	0c18      	lsrs	r0, r3, #16
    419e:	1809      	adds	r1, r1, r0
    41a0:	0c0e      	lsrs	r6, r1, #16
    41a2:	b29b      	uxth	r3, r3
    41a4:	0409      	lsls	r1, r1, #16
    41a6:	430b      	orrs	r3, r1
    41a8:	9907      	ldr	r1, [sp, #28]
    41aa:	600b      	str	r3, [r1, #0]
    41ac:	9b05      	ldr	r3, [sp, #20]
    41ae:	42bb      	cmp	r3, r7
    41b0:	d8e4      	bhi.n	417c <__multiply+0x8c>
    41b2:	602e      	str	r6, [r5, #0]
    41b4:	6813      	ldr	r3, [r2, #0]
    41b6:	0c1b      	lsrs	r3, r3, #16
    41b8:	9303      	str	r3, [sp, #12]
    41ba:	b1f3      	cbz	r3, 41fa <__multiply+0x10a>
    41bc:	2600      	movs	r6, #0
    41be:	9b00      	ldr	r3, [sp, #0]
    41c0:	9c02      	ldr	r4, [sp, #8]
    41c2:	681b      	ldr	r3, [r3, #0]
    41c4:	9800      	ldr	r0, [sp, #0]
    41c6:	0007      	movs	r7, r0
    41c8:	8821      	ldrh	r1, [r4, #0]
    41ca:	9d03      	ldr	r5, [sp, #12]
    41cc:	b29b      	uxth	r3, r3
    41ce:	4369      	muls	r1, r5
    41d0:	c820      	ldmia	r0!, {r5}
    41d2:	0c2d      	lsrs	r5, r5, #16
    41d4:	1949      	adds	r1, r1, r5
    41d6:	198e      	adds	r6, r1, r6
    41d8:	0431      	lsls	r1, r6, #16
    41da:	430b      	orrs	r3, r1
    41dc:	603b      	str	r3, [r7, #0]
    41de:	cc08      	ldmia	r4!, {r3}
    41e0:	9903      	ldr	r1, [sp, #12]
    41e2:	0c1b      	lsrs	r3, r3, #16
    41e4:	434b      	muls	r3, r1
    41e6:	6879      	ldr	r1, [r7, #4]
    41e8:	0c36      	lsrs	r6, r6, #16
    41ea:	b289      	uxth	r1, r1
    41ec:	185b      	adds	r3, r3, r1
    41ee:	9905      	ldr	r1, [sp, #20]
    41f0:	199b      	adds	r3, r3, r6
    41f2:	0c1e      	lsrs	r6, r3, #16
    41f4:	42a1      	cmp	r1, r4
    41f6:	d8e6      	bhi.n	41c6 <__multiply+0xd6>
    41f8:	6003      	str	r3, [r0, #0]
    41fa:	9b00      	ldr	r3, [sp, #0]
    41fc:	3204      	adds	r2, #4
    41fe:	3304      	adds	r3, #4
    4200:	9300      	str	r3, [sp, #0]
    4202:	e7a1      	b.n	4148 <__multiply+0x58>
    4204:	9b01      	ldr	r3, [sp, #4]
    4206:	3b01      	subs	r3, #1
    4208:	9301      	str	r3, [sp, #4]
    420a:	e7a0      	b.n	414e <__multiply+0x5e>

0000420c <__pow5mult>:
    420c:	2303      	movs	r3, #3
    420e:	4013      	ands	r3, r2
    4210:	b5f7      	push	{r0, r1, r2, r4, r5, r6, r7, lr}
    4212:	0005      	movs	r5, r0
    4214:	000e      	movs	r6, r1
    4216:	0014      	movs	r4, r2
    4218:	b143      	cbz	r3, 422c <__pow5mult+0x20>
    421a:	3b01      	subs	r3, #1
    421c:	4920      	ldr	r1, [pc, #128]	; (42a0 <__pow5mult+0x94>)
    421e:	009a      	lsls	r2, r3, #2
    4220:	5852      	ldr	r2, [r2, r1]
    4222:	2300      	movs	r3, #0
    4224:	0031      	movs	r1, r6
    4226:	f7ff fed9 	bl	3fdc <__multadd>
    422a:	0006      	movs	r6, r0
    422c:	10a3      	asrs	r3, r4, #2
    422e:	9301      	str	r3, [sp, #4]
    4230:	b3a3      	cbz	r3, 429c <__pow5mult+0x90>
    4232:	6a6c      	ldr	r4, [r5, #36]	; 0x24
    4234:	b93c      	cbnz	r4, 4246 <__pow5mult+0x3a>
    4236:	2010      	movs	r0, #16
    4238:	f001 f84e 	bl	52d8 <malloc>
    423c:	6268      	str	r0, [r5, #36]	; 0x24
    423e:	6044      	str	r4, [r0, #4]
    4240:	6084      	str	r4, [r0, #8]
    4242:	6004      	str	r4, [r0, #0]
    4244:	60c4      	str	r4, [r0, #12]
    4246:	6a6f      	ldr	r7, [r5, #36]	; 0x24
    4248:	68bc      	ldr	r4, [r7, #8]
    424a:	b944      	cbnz	r4, 425e <__pow5mult+0x52>
    424c:	f240 2171 	movw	r1, #625	; 0x271
    4250:	0028      	movs	r0, r5
    4252:	f7ff ff44 	bl	40de <__i2b>
    4256:	2300      	movs	r3, #0
    4258:	0004      	movs	r4, r0
    425a:	60b8      	str	r0, [r7, #8]
    425c:	6003      	str	r3, [r0, #0]
    425e:	2201      	movs	r2, #1
    4260:	9b01      	ldr	r3, [sp, #4]
    4262:	4213      	tst	r3, r2
    4264:	d00a      	beq.n	427c <__pow5mult+0x70>
    4266:	0031      	movs	r1, r6
    4268:	0022      	movs	r2, r4
    426a:	0028      	movs	r0, r5
    426c:	f7ff ff40 	bl	40f0 <__multiply>
    4270:	0007      	movs	r7, r0
    4272:	0031      	movs	r1, r6
    4274:	0028      	movs	r0, r5
    4276:	f7ff fe9a 	bl	3fae <_Bfree>
    427a:	003e      	movs	r6, r7
    427c:	9b01      	ldr	r3, [sp, #4]
    427e:	105b      	asrs	r3, r3, #1
    4280:	9301      	str	r3, [sp, #4]
    4282:	b15b      	cbz	r3, 429c <__pow5mult+0x90>
    4284:	6820      	ldr	r0, [r4, #0]
    4286:	b938      	cbnz	r0, 4298 <__pow5mult+0x8c>
    4288:	0022      	movs	r2, r4
    428a:	0021      	movs	r1, r4
    428c:	0028      	movs	r0, r5
    428e:	f7ff ff2f 	bl	40f0 <__multiply>
    4292:	2300      	movs	r3, #0
    4294:	6020      	str	r0, [r4, #0]
    4296:	6003      	str	r3, [r0, #0]
    4298:	0004      	movs	r4, r0
    429a:	e7e0      	b.n	425e <__pow5mult+0x52>
    429c:	0030      	movs	r0, r6
    429e:	bdfe      	pop	{r1, r2, r3, r4, r5, r6, r7, pc}
    42a0:	00005db0 	.word	0x00005db0

000042a4 <__lshift>:
    42a4:	b5f0      	push	{r4, r5, r6, r7, lr}
    42a6:	000d      	movs	r5, r1
    42a8:	0017      	movs	r7, r2
    42aa:	692b      	ldr	r3, [r5, #16]
    42ac:	1154      	asrs	r4, r2, #5
    42ae:	b085      	sub	sp, #20
    42b0:	18e3      	adds	r3, r4, r3
    42b2:	9302      	str	r3, [sp, #8]
    42b4:	3301      	adds	r3, #1
    42b6:	9301      	str	r3, [sp, #4]
    42b8:	6849      	ldr	r1, [r1, #4]
    42ba:	68ab      	ldr	r3, [r5, #8]
    42bc:	9003      	str	r0, [sp, #12]
    42be:	9a01      	ldr	r2, [sp, #4]
    42c0:	4293      	cmp	r3, r2
    42c2:	db33      	blt.n	432c <__lshift+0x88>
    42c4:	9803      	ldr	r0, [sp, #12]
    42c6:	f7ff fe3e 	bl	3f46 <_Balloc>
    42ca:	2300      	movs	r3, #0
    42cc:	0002      	movs	r2, r0
    42ce:	0006      	movs	r6, r0
    42d0:	0019      	movs	r1, r3
    42d2:	3214      	adds	r2, #20
    42d4:	42a3      	cmp	r3, r4
    42d6:	db2c      	blt.n	4332 <__lshift+0x8e>
    42d8:	43e3      	mvns	r3, r4
    42da:	17db      	asrs	r3, r3, #31
    42dc:	401c      	ands	r4, r3
    42de:	211f      	movs	r1, #31
    42e0:	002b      	movs	r3, r5
    42e2:	00a4      	lsls	r4, r4, #2
    42e4:	1914      	adds	r4, r2, r4
    42e6:	692a      	ldr	r2, [r5, #16]
    42e8:	3314      	adds	r3, #20
    42ea:	0092      	lsls	r2, r2, #2
    42ec:	400f      	ands	r7, r1
    42ee:	189a      	adds	r2, r3, r2
    42f0:	b31f      	cbz	r7, 433a <__lshift+0x96>
    42f2:	3101      	adds	r1, #1
    42f4:	1bc9      	subs	r1, r1, r7
    42f6:	468c      	mov	ip, r1
    42f8:	2100      	movs	r1, #0
    42fa:	6818      	ldr	r0, [r3, #0]
    42fc:	40b8      	lsls	r0, r7
    42fe:	4301      	orrs	r1, r0
    4300:	4660      	mov	r0, ip
    4302:	6021      	str	r1, [r4, #0]
    4304:	cb02      	ldmia	r3!, {r1}
    4306:	3404      	adds	r4, #4
    4308:	40c1      	lsrs	r1, r0
    430a:	429a      	cmp	r2, r3
    430c:	d8f5      	bhi.n	42fa <__lshift+0x56>
    430e:	6021      	str	r1, [r4, #0]
    4310:	b111      	cbz	r1, 4318 <__lshift+0x74>
    4312:	9b02      	ldr	r3, [sp, #8]
    4314:	3302      	adds	r3, #2
    4316:	9301      	str	r3, [sp, #4]
    4318:	9b01      	ldr	r3, [sp, #4]
    431a:	9803      	ldr	r0, [sp, #12]
    431c:	3b01      	subs	r3, #1
    431e:	6133      	str	r3, [r6, #16]
    4320:	0029      	movs	r1, r5
    4322:	f7ff fe44 	bl	3fae <_Bfree>
    4326:	0030      	movs	r0, r6
    4328:	b005      	add	sp, #20
    432a:	bdf0      	pop	{r4, r5, r6, r7, pc}
    432c:	3101      	adds	r1, #1
    432e:	005b      	lsls	r3, r3, #1
    4330:	e7c5      	b.n	42be <__lshift+0x1a>
    4332:	0098      	lsls	r0, r3, #2
    4334:	5011      	str	r1, [r2, r0]
    4336:	3301      	adds	r3, #1
    4338:	e7cc      	b.n	42d4 <__lshift+0x30>
    433a:	cb02      	ldmia	r3!, {r1}
    433c:	c402      	stmia	r4!, {r1}
    433e:	429a      	cmp	r2, r3
    4340:	d8fb      	bhi.n	433a <__lshift+0x96>
    4342:	e7e9      	b.n	4318 <__lshift+0x74>

00004344 <__mcmp>:
    4344:	690a      	ldr	r2, [r1, #16]
    4346:	6903      	ldr	r3, [r0, #16]
    4348:	b530      	push	{r4, r5, lr}
    434a:	1a9b      	subs	r3, r3, r2
    434c:	b973      	cbnz	r3, 436c <__mcmp+0x28>
    434e:	0092      	lsls	r2, r2, #2
    4350:	3014      	adds	r0, #20
    4352:	3114      	adds	r1, #20
    4354:	1884      	adds	r4, r0, r2
    4356:	1889      	adds	r1, r1, r2
    4358:	3c04      	subs	r4, #4
    435a:	3904      	subs	r1, #4
    435c:	6822      	ldr	r2, [r4, #0]
    435e:	680d      	ldr	r5, [r1, #0]
    4360:	42aa      	cmp	r2, r5
    4362:	d005      	beq.n	4370 <__mcmp+0x2c>
    4364:	42aa      	cmp	r2, r5
    4366:	4192      	sbcs	r2, r2
    4368:	2301      	movs	r3, #1
    436a:	4313      	orrs	r3, r2
    436c:	0018      	movs	r0, r3
    436e:	bd30      	pop	{r4, r5, pc}
    4370:	42a0      	cmp	r0, r4
    4372:	d3f1      	bcc.n	4358 <__mcmp+0x14>
    4374:	e7fa      	b.n	436c <__mcmp+0x28>

00004376 <__mdiff>:
    4376:	b5f0      	push	{r4, r5, r6, r7, lr}
    4378:	000d      	movs	r5, r1
    437a:	b085      	sub	sp, #20
    437c:	0007      	movs	r7, r0
    437e:	0011      	movs	r1, r2
    4380:	0028      	movs	r0, r5
    4382:	0014      	movs	r4, r2
    4384:	f7ff ffde 	bl	4344 <__mcmp>
    4388:	0006      	movs	r6, r0
    438a:	b940      	cbnz	r0, 439e <__mdiff+0x28>
    438c:	0001      	movs	r1, r0
    438e:	0038      	movs	r0, r7
    4390:	f7ff fdd9 	bl	3f46 <_Balloc>
    4394:	2301      	movs	r3, #1
    4396:	6146      	str	r6, [r0, #20]
    4398:	6103      	str	r3, [r0, #16]
    439a:	b005      	add	sp, #20
    439c:	bdf0      	pop	{r4, r5, r6, r7, pc}
    439e:	2301      	movs	r3, #1
    43a0:	9301      	str	r3, [sp, #4]
    43a2:	2800      	cmp	r0, #0
    43a4:	db04      	blt.n	43b0 <__mdiff+0x3a>
    43a6:	0023      	movs	r3, r4
    43a8:	002c      	movs	r4, r5
    43aa:	001d      	movs	r5, r3
    43ac:	2300      	movs	r3, #0
    43ae:	9301      	str	r3, [sp, #4]
    43b0:	6861      	ldr	r1, [r4, #4]
    43b2:	0038      	movs	r0, r7
    43b4:	f7ff fdc7 	bl	3f46 <_Balloc>
    43b8:	002f      	movs	r7, r5
    43ba:	9b01      	ldr	r3, [sp, #4]
    43bc:	6926      	ldr	r6, [r4, #16]
    43be:	60c3      	str	r3, [r0, #12]
    43c0:	3414      	adds	r4, #20
    43c2:	00b3      	lsls	r3, r6, #2
    43c4:	18e3      	adds	r3, r4, r3
    43c6:	9302      	str	r3, [sp, #8]
    43c8:	692b      	ldr	r3, [r5, #16]
    43ca:	3714      	adds	r7, #20
    43cc:	009b      	lsls	r3, r3, #2
    43ce:	18fb      	adds	r3, r7, r3
    43d0:	9303      	str	r3, [sp, #12]
    43d2:	0003      	movs	r3, r0
    43d4:	f240 0c00 	movw	ip, #0
    43d8:	3314      	adds	r3, #20
    43da:	cc20      	ldmia	r4!, {r5}
    43dc:	cf04      	ldmia	r7!, {r2}
    43de:	9201      	str	r2, [sp, #4]
    43e0:	b2aa      	uxth	r2, r5
    43e2:	4494      	add	ip, r2
    43e4:	466a      	mov	r2, sp
    43e6:	4661      	mov	r1, ip
    43e8:	8892      	ldrh	r2, [r2, #4]
    43ea:	0c2d      	lsrs	r5, r5, #16
    43ec:	1a8a      	subs	r2, r1, r2
    43ee:	9901      	ldr	r1, [sp, #4]
    43f0:	0c09      	lsrs	r1, r1, #16
    43f2:	1a69      	subs	r1, r5, r1
    43f4:	1415      	asrs	r5, r2, #16
    43f6:	1949      	adds	r1, r1, r5
    43f8:	140d      	asrs	r5, r1, #16
    43fa:	b292      	uxth	r2, r2
    43fc:	0409      	lsls	r1, r1, #16
    43fe:	430a      	orrs	r2, r1
    4400:	601a      	str	r2, [r3, #0]
    4402:	9a03      	ldr	r2, [sp, #12]
    4404:	46ac      	mov	ip, r5
    4406:	3304      	adds	r3, #4
    4408:	42ba      	cmp	r2, r7
    440a:	d8e6      	bhi.n	43da <__mdiff+0x64>
    440c:	9902      	ldr	r1, [sp, #8]
    440e:	001a      	movs	r2, r3
    4410:	428c      	cmp	r4, r1
    4412:	d304      	bcc.n	441e <__mdiff+0xa8>
    4414:	3a04      	subs	r2, #4
    4416:	6813      	ldr	r3, [r2, #0]
    4418:	b173      	cbz	r3, 4438 <__mdiff+0xc2>
    441a:	6106      	str	r6, [r0, #16]
    441c:	e7bd      	b.n	439a <__mdiff+0x24>
    441e:	cc04      	ldmia	r4!, {r2}
    4420:	b291      	uxth	r1, r2
    4422:	4461      	add	r1, ip
    4424:	140d      	asrs	r5, r1, #16
    4426:	0c12      	lsrs	r2, r2, #16
    4428:	1952      	adds	r2, r2, r5
    442a:	1415      	asrs	r5, r2, #16
    442c:	b289      	uxth	r1, r1
    442e:	0412      	lsls	r2, r2, #16
    4430:	430a      	orrs	r2, r1
    4432:	46ac      	mov	ip, r5
    4434:	c304      	stmia	r3!, {r2}
    4436:	e7e9      	b.n	440c <__mdiff+0x96>
    4438:	3e01      	subs	r6, #1
    443a:	e7eb      	b.n	4414 <__mdiff+0x9e>

0000443c <__d2b>:
    443c:	b5f7      	push	{r0, r1, r2, r4, r5, r6, r7, lr}
    443e:	001d      	movs	r5, r3
    4440:	2101      	movs	r1, #1
    4442:	9f08      	ldr	r7, [sp, #32]
    4444:	0014      	movs	r4, r2
    4446:	f7ff fd7e 	bl	3f46 <_Balloc>
    444a:	032b      	lsls	r3, r5, #12
    444c:	006d      	lsls	r5, r5, #1
    444e:	0d6d      	lsrs	r5, r5, #21
    4450:	0006      	movs	r6, r0
    4452:	0b1b      	lsrs	r3, r3, #12
    4454:	bb0d      	cbnz	r5, 449a <__d2b+0x5e>
    4456:	9301      	str	r3, [sp, #4]
    4458:	b32c      	cbz	r4, 44a6 <__d2b+0x6a>
    445a:	4668      	mov	r0, sp
    445c:	9400      	str	r4, [sp, #0]
    445e:	f7ff fe11 	bl	4084 <__lo0bits>
    4462:	9c00      	ldr	r4, [sp, #0]
    4464:	b1e8      	cbz	r0, 44a2 <__d2b+0x66>
    4466:	9b01      	ldr	r3, [sp, #4]
    4468:	2120      	movs	r1, #32
    446a:	001a      	movs	r2, r3
    446c:	1a09      	subs	r1, r1, r0
    446e:	408a      	lsls	r2, r1
    4470:	40c3      	lsrs	r3, r0
    4472:	4322      	orrs	r2, r4
    4474:	6172      	str	r2, [r6, #20]
    4476:	9301      	str	r3, [sp, #4]
    4478:	9c01      	ldr	r4, [sp, #4]
    447a:	61b4      	str	r4, [r6, #24]
    447c:	1e63      	subs	r3, r4, #1
    447e:	419c      	sbcs	r4, r3
    4480:	3401      	adds	r4, #1
    4482:	6134      	str	r4, [r6, #16]
    4484:	b1c5      	cbz	r5, 44b8 <__d2b+0x7c>
    4486:	4b13      	ldr	r3, [pc, #76]	; (44d4 <__d2b+0x98>)
    4488:	18ed      	adds	r5, r5, r3
    448a:	2335      	movs	r3, #53	; 0x35
    448c:	182d      	adds	r5, r5, r0
    448e:	603d      	str	r5, [r7, #0]
    4490:	1a18      	subs	r0, r3, r0
    4492:	9b09      	ldr	r3, [sp, #36]	; 0x24
    4494:	6018      	str	r0, [r3, #0]
    4496:	0030      	movs	r0, r6
    4498:	bdfe      	pop	{r1, r2, r3, r4, r5, r6, r7, pc}
    449a:	2280      	movs	r2, #128	; 0x80
    449c:	0352      	lsls	r2, r2, #13
    449e:	4313      	orrs	r3, r2
    44a0:	e7d9      	b.n	4456 <__d2b+0x1a>
    44a2:	6174      	str	r4, [r6, #20]
    44a4:	e7e8      	b.n	4478 <__d2b+0x3c>
    44a6:	a801      	add	r0, sp, #4
    44a8:	f7ff fdec 	bl	4084 <__lo0bits>
    44ac:	2401      	movs	r4, #1
    44ae:	9b01      	ldr	r3, [sp, #4]
    44b0:	6134      	str	r4, [r6, #16]
    44b2:	6173      	str	r3, [r6, #20]
    44b4:	3020      	adds	r0, #32
    44b6:	e7e5      	b.n	4484 <__d2b+0x48>
    44b8:	4b07      	ldr	r3, [pc, #28]	; (44d8 <__d2b+0x9c>)
    44ba:	18c0      	adds	r0, r0, r3
    44bc:	4b07      	ldr	r3, [pc, #28]	; (44dc <__d2b+0xa0>)
    44be:	6038      	str	r0, [r7, #0]
    44c0:	18e3      	adds	r3, r4, r3
    44c2:	009b      	lsls	r3, r3, #2
    44c4:	18f3      	adds	r3, r6, r3
    44c6:	6958      	ldr	r0, [r3, #20]
    44c8:	f7ff fdc3 	bl	4052 <__hi0bits>
    44cc:	0164      	lsls	r4, r4, #5
    44ce:	1a20      	subs	r0, r4, r0
    44d0:	e7df      	b.n	4492 <__d2b+0x56>
    44d2:	46c0      	nop			; (mov r8, r8)
    44d4:	fffffbcd 	.word	0xfffffbcd
    44d8:	fffffbce 	.word	0xfffffbce
    44dc:	3fffffff 	.word	0x3fffffff

000044e0 <_mprec_log10>:
    44e0:	b510      	push	{r4, lr}
    44e2:	0004      	movs	r4, r0
    44e4:	2817      	cmp	r0, #23
    44e6:	dc05      	bgt.n	44f4 <_mprec_log10+0x14>
    44e8:	4b07      	ldr	r3, [pc, #28]	; (4508 <_mprec_log10+0x28>)
    44ea:	00c4      	lsls	r4, r0, #3
    44ec:	18e4      	adds	r4, r4, r3
    44ee:	6820      	ldr	r0, [r4, #0]
    44f0:	6861      	ldr	r1, [r4, #4]
    44f2:	bd10      	pop	{r4, pc}
    44f4:	2000      	movs	r0, #0
    44f6:	4905      	ldr	r1, [pc, #20]	; (450c <_mprec_log10+0x2c>)
    44f8:	2200      	movs	r2, #0
    44fa:	4b05      	ldr	r3, [pc, #20]	; (4510 <_mprec_log10+0x30>)
    44fc:	3c01      	subs	r4, #1
    44fe:	f7fe fb11 	bl	2b24 <__aeabi_dmul>
    4502:	2c00      	cmp	r4, #0
    4504:	d1f8      	bne.n	44f8 <_mprec_log10+0x18>
    4506:	e7f4      	b.n	44f2 <_mprec_log10+0x12>
    4508:	00005ce8 	.word	0x00005ce8
    450c:	3ff00000 	.word	0x3ff00000
    4510:	40240000 	.word	0x40240000

00004514 <_calloc_r>:
    4514:	434a      	muls	r2, r1
    4516:	b570      	push	{r4, r5, r6, lr}
    4518:	0011      	movs	r1, r2
    451a:	0014      	movs	r4, r2
    451c:	f000 f808 	bl	4530 <_malloc_r>
    4520:	0005      	movs	r5, r0
    4522:	b118      	cbz	r0, 452c <_calloc_r+0x18>
    4524:	0022      	movs	r2, r4
    4526:	2100      	movs	r1, #0
    4528:	f7ff fb92 	bl	3c50 <memset>
    452c:	0028      	movs	r0, r5
    452e:	bd70      	pop	{r4, r5, r6, pc}

00004530 <_malloc_r>:
    4530:	2303      	movs	r3, #3
    4532:	b570      	push	{r4, r5, r6, lr}
    4534:	1ccd      	adds	r5, r1, #3
    4536:	439d      	bics	r5, r3
    4538:	3508      	adds	r5, #8
    453a:	0006      	movs	r6, r0
    453c:	2d0c      	cmp	r5, #12
    453e:	d21c      	bcs.n	457a <_malloc_r+0x4a>
    4540:	250c      	movs	r5, #12
    4542:	42a9      	cmp	r1, r5
    4544:	d81b      	bhi.n	457e <_malloc_r+0x4e>
    4546:	0030      	movs	r0, r6
    4548:	f000 fed0 	bl	52ec <__malloc_lock>
    454c:	4a25      	ldr	r2, [pc, #148]	; (45e4 <_malloc_r+0xb4>)
    454e:	6814      	ldr	r4, [r2, #0]
    4550:	0021      	movs	r1, r4
    4552:	b9c1      	cbnz	r1, 4586 <_malloc_r+0x56>
    4554:	4c24      	ldr	r4, [pc, #144]	; (45e8 <_malloc_r+0xb8>)
    4556:	6823      	ldr	r3, [r4, #0]
    4558:	b91b      	cbnz	r3, 4562 <_malloc_r+0x32>
    455a:	0030      	movs	r0, r6
    455c:	f000 f846 	bl	45ec <_sbrk_r>
    4560:	6020      	str	r0, [r4, #0]
    4562:	0029      	movs	r1, r5
    4564:	0030      	movs	r0, r6
    4566:	f000 f841 	bl	45ec <_sbrk_r>
    456a:	1c43      	adds	r3, r0, #1
    456c:	d12d      	bne.n	45ca <_malloc_r+0x9a>
    456e:	230c      	movs	r3, #12
    4570:	0030      	movs	r0, r6
    4572:	6033      	str	r3, [r6, #0]
    4574:	f000 febb 	bl	52ee <__malloc_unlock>
    4578:	e003      	b.n	4582 <_malloc_r+0x52>
    457a:	2d00      	cmp	r5, #0
    457c:	dae1      	bge.n	4542 <_malloc_r+0x12>
    457e:	230c      	movs	r3, #12
    4580:	6033      	str	r3, [r6, #0]
    4582:	2000      	movs	r0, #0
    4584:	bd70      	pop	{r4, r5, r6, pc}
    4586:	680b      	ldr	r3, [r1, #0]
    4588:	1b5b      	subs	r3, r3, r5
    458a:	d41b      	bmi.n	45c4 <_malloc_r+0x94>
    458c:	2b0b      	cmp	r3, #11
    458e:	d903      	bls.n	4598 <_malloc_r+0x68>
    4590:	600b      	str	r3, [r1, #0]
    4592:	18cc      	adds	r4, r1, r3
    4594:	6025      	str	r5, [r4, #0]
    4596:	e003      	b.n	45a0 <_malloc_r+0x70>
    4598:	428c      	cmp	r4, r1
    459a:	d10f      	bne.n	45bc <_malloc_r+0x8c>
    459c:	6863      	ldr	r3, [r4, #4]
    459e:	6013      	str	r3, [r2, #0]
    45a0:	0030      	movs	r0, r6
    45a2:	f000 fea4 	bl	52ee <__malloc_unlock>
    45a6:	0020      	movs	r0, r4
    45a8:	2207      	movs	r2, #7
    45aa:	300b      	adds	r0, #11
    45ac:	1d23      	adds	r3, r4, #4
    45ae:	4390      	bics	r0, r2
    45b0:	1ac3      	subs	r3, r0, r3
    45b2:	2b00      	cmp	r3, #0
    45b4:	d0e6      	beq.n	4584 <_malloc_r+0x54>
    45b6:	425a      	negs	r2, r3
    45b8:	50e2      	str	r2, [r4, r3]
    45ba:	e7e3      	b.n	4584 <_malloc_r+0x54>
    45bc:	684b      	ldr	r3, [r1, #4]
    45be:	6063      	str	r3, [r4, #4]
    45c0:	000c      	movs	r4, r1
    45c2:	e7ed      	b.n	45a0 <_malloc_r+0x70>
    45c4:	000c      	movs	r4, r1
    45c6:	6849      	ldr	r1, [r1, #4]
    45c8:	e7c3      	b.n	4552 <_malloc_r+0x22>
    45ca:	2303      	movs	r3, #3
    45cc:	1cc4      	adds	r4, r0, #3
    45ce:	439c      	bics	r4, r3
    45d0:	42a0      	cmp	r0, r4
    45d2:	d0df      	beq.n	4594 <_malloc_r+0x64>
    45d4:	1a21      	subs	r1, r4, r0
    45d6:	0030      	movs	r0, r6
    45d8:	f000 f808 	bl	45ec <_sbrk_r>
    45dc:	1c43      	adds	r3, r0, #1
    45de:	d1d9      	bne.n	4594 <_malloc_r+0x64>
    45e0:	e7c5      	b.n	456e <_malloc_r+0x3e>
    45e2:	46c0      	nop			; (mov r8, r8)
    45e4:	2000008c 	.word	0x2000008c
    45e8:	20000090 	.word	0x20000090

000045ec <_sbrk_r>:
    45ec:	2300      	movs	r3, #0
    45ee:	b570      	push	{r4, r5, r6, lr}
    45f0:	4c05      	ldr	r4, [pc, #20]	; (4608 <_sbrk_r+0x1c>)
    45f2:	0005      	movs	r5, r0
    45f4:	0008      	movs	r0, r1
    45f6:	6023      	str	r3, [r4, #0]
    45f8:	f7fc fbab 	bl	d52 <_sbrk>
    45fc:	1c43      	adds	r3, r0, #1
    45fe:	d102      	bne.n	4606 <_sbrk_r+0x1a>
    4600:	6823      	ldr	r3, [r4, #0]
    4602:	b103      	cbz	r3, 4606 <_sbrk_r+0x1a>
    4604:	602b      	str	r3, [r5, #0]
    4606:	bd70      	pop	{r4, r5, r6, pc}
    4608:	20000150 	.word	0x20000150

0000460c <strcpy>:
    460c:	1c03      	adds	r3, r0, #0
    460e:	780a      	ldrb	r2, [r1, #0]
    4610:	3101      	adds	r1, #1
    4612:	701a      	strb	r2, [r3, #0]
    4614:	3301      	adds	r3, #1
    4616:	2a00      	cmp	r2, #0
    4618:	d1f9      	bne.n	460e <strcpy+0x2>
    461a:	4770      	bx	lr

0000461c <quorem>:
    461c:	b5f0      	push	{r4, r5, r6, r7, lr}
    461e:	0006      	movs	r6, r0
    4620:	690c      	ldr	r4, [r1, #16]
    4622:	6933      	ldr	r3, [r6, #16]
    4624:	b089      	sub	sp, #36	; 0x24
    4626:	9106      	str	r1, [sp, #24]
    4628:	2000      	movs	r0, #0
    462a:	429c      	cmp	r4, r3
    462c:	dc6b      	bgt.n	4706 <quorem+0xea>
    462e:	000b      	movs	r3, r1
    4630:	3c01      	subs	r4, #1
    4632:	3314      	adds	r3, #20
    4634:	00a2      	lsls	r2, r4, #2
    4636:	9303      	str	r3, [sp, #12]
    4638:	189b      	adds	r3, r3, r2
    463a:	9304      	str	r3, [sp, #16]
    463c:	0033      	movs	r3, r6
    463e:	3314      	adds	r3, #20
    4640:	189a      	adds	r2, r3, r2
    4642:	9301      	str	r3, [sp, #4]
    4644:	9b04      	ldr	r3, [sp, #16]
    4646:	6815      	ldr	r5, [r2, #0]
    4648:	681b      	ldr	r3, [r3, #0]
    464a:	9302      	str	r3, [sp, #8]
    464c:	3301      	adds	r3, #1
    464e:	fbb5 f5f3 	udiv	r5, r5, r3
    4652:	b385      	cbz	r5, 46b6 <quorem+0x9a>
    4654:	9b03      	ldr	r3, [sp, #12]
    4656:	9f01      	ldr	r7, [sp, #4]
    4658:	9305      	str	r3, [sp, #20]
    465a:	9002      	str	r0, [sp, #8]
    465c:	9007      	str	r0, [sp, #28]
    465e:	9805      	ldr	r0, [sp, #20]
    4660:	9902      	ldr	r1, [sp, #8]
    4662:	c808      	ldmia	r0!, {r3}
    4664:	9005      	str	r0, [sp, #20]
    4666:	b298      	uxth	r0, r3
    4668:	4368      	muls	r0, r5
    466a:	1840      	adds	r0, r0, r1
    466c:	0c01      	lsrs	r1, r0, #16
    466e:	468c      	mov	ip, r1
    4670:	0c1b      	lsrs	r3, r3, #16
    4672:	436b      	muls	r3, r5
    4674:	4463      	add	r3, ip
    4676:	0c19      	lsrs	r1, r3, #16
    4678:	9102      	str	r1, [sp, #8]
    467a:	8839      	ldrh	r1, [r7, #0]
    467c:	b280      	uxth	r0, r0
    467e:	468c      	mov	ip, r1
    4680:	9907      	ldr	r1, [sp, #28]
    4682:	b29b      	uxth	r3, r3
    4684:	4461      	add	r1, ip
    4686:	1a08      	subs	r0, r1, r0
    4688:	6839      	ldr	r1, [r7, #0]
    468a:	0c09      	lsrs	r1, r1, #16
    468c:	1acb      	subs	r3, r1, r3
    468e:	1401      	asrs	r1, r0, #16
    4690:	468c      	mov	ip, r1
    4692:	4463      	add	r3, ip
    4694:	1419      	asrs	r1, r3, #16
    4696:	b280      	uxth	r0, r0
    4698:	041b      	lsls	r3, r3, #16
    469a:	4318      	orrs	r0, r3
    469c:	9107      	str	r1, [sp, #28]
    469e:	9b04      	ldr	r3, [sp, #16]
    46a0:	9905      	ldr	r1, [sp, #20]
    46a2:	c701      	stmia	r7!, {r0}
    46a4:	428b      	cmp	r3, r1
    46a6:	d2da      	bcs.n	465e <quorem+0x42>
    46a8:	6813      	ldr	r3, [r2, #0]
    46aa:	b923      	cbnz	r3, 46b6 <quorem+0x9a>
    46ac:	9b01      	ldr	r3, [sp, #4]
    46ae:	3a04      	subs	r2, #4
    46b0:	4293      	cmp	r3, r2
    46b2:	d32a      	bcc.n	470a <quorem+0xee>
    46b4:	6134      	str	r4, [r6, #16]
    46b6:	9906      	ldr	r1, [sp, #24]
    46b8:	0030      	movs	r0, r6
    46ba:	f7ff fe43 	bl	4344 <__mcmp>
    46be:	2800      	cmp	r0, #0
    46c0:	db20      	blt.n	4704 <quorem+0xe8>
    46c2:	2700      	movs	r7, #0
    46c4:	9801      	ldr	r0, [sp, #4]
    46c6:	9903      	ldr	r1, [sp, #12]
    46c8:	3501      	adds	r5, #1
    46ca:	c908      	ldmia	r1!, {r3}
    46cc:	8802      	ldrh	r2, [r0, #0]
    46ce:	19d7      	adds	r7, r2, r7
    46d0:	b29a      	uxth	r2, r3
    46d2:	1aba      	subs	r2, r7, r2
    46d4:	6807      	ldr	r7, [r0, #0]
    46d6:	0c1b      	lsrs	r3, r3, #16
    46d8:	0c3f      	lsrs	r7, r7, #16
    46da:	1afb      	subs	r3, r7, r3
    46dc:	1417      	asrs	r7, r2, #16
    46de:	19db      	adds	r3, r3, r7
    46e0:	141f      	asrs	r7, r3, #16
    46e2:	b292      	uxth	r2, r2
    46e4:	041b      	lsls	r3, r3, #16
    46e6:	4313      	orrs	r3, r2
    46e8:	c008      	stmia	r0!, {r3}
    46ea:	9b04      	ldr	r3, [sp, #16]
    46ec:	428b      	cmp	r3, r1
    46ee:	d2ec      	bcs.n	46ca <quorem+0xae>
    46f0:	9a01      	ldr	r2, [sp, #4]
    46f2:	00a3      	lsls	r3, r4, #2
    46f4:	18d3      	adds	r3, r2, r3
    46f6:	681a      	ldr	r2, [r3, #0]
    46f8:	b922      	cbnz	r2, 4704 <quorem+0xe8>
    46fa:	9a01      	ldr	r2, [sp, #4]
    46fc:	3b04      	subs	r3, #4
    46fe:	429a      	cmp	r2, r3
    4700:	d308      	bcc.n	4714 <quorem+0xf8>
    4702:	6134      	str	r4, [r6, #16]
    4704:	0028      	movs	r0, r5
    4706:	b009      	add	sp, #36	; 0x24
    4708:	bdf0      	pop	{r4, r5, r6, r7, pc}
    470a:	6813      	ldr	r3, [r2, #0]
    470c:	2b00      	cmp	r3, #0
    470e:	d1d1      	bne.n	46b4 <quorem+0x98>
    4710:	3c01      	subs	r4, #1
    4712:	e7cb      	b.n	46ac <quorem+0x90>
    4714:	681a      	ldr	r2, [r3, #0]
    4716:	2a00      	cmp	r2, #0
    4718:	d1f3      	bne.n	4702 <quorem+0xe6>
    471a:	3c01      	subs	r4, #1
    471c:	e7ed      	b.n	46fa <quorem+0xde>
	...

00004720 <_dtoa_r>:
    4720:	b5f0      	push	{r4, r5, r6, r7, lr}
    4722:	0016      	movs	r6, r2
    4724:	001f      	movs	r7, r3
    4726:	6a44      	ldr	r4, [r0, #36]	; 0x24
    4728:	b09d      	sub	sp, #116	; 0x74
    472a:	9004      	str	r0, [sp, #16]
    472c:	9d25      	ldr	r5, [sp, #148]	; 0x94
    472e:	9608      	str	r6, [sp, #32]
    4730:	9709      	str	r7, [sp, #36]	; 0x24
    4732:	b944      	cbnz	r4, 4746 <_dtoa_r+0x26>
    4734:	2010      	movs	r0, #16
    4736:	f000 fdcf 	bl	52d8 <malloc>
    473a:	9b04      	ldr	r3, [sp, #16]
    473c:	6258      	str	r0, [r3, #36]	; 0x24
    473e:	6044      	str	r4, [r0, #4]
    4740:	6084      	str	r4, [r0, #8]
    4742:	6004      	str	r4, [r0, #0]
    4744:	60c4      	str	r4, [r0, #12]
    4746:	9b04      	ldr	r3, [sp, #16]
    4748:	6a5b      	ldr	r3, [r3, #36]	; 0x24
    474a:	6819      	ldr	r1, [r3, #0]
    474c:	b159      	cbz	r1, 4766 <_dtoa_r+0x46>
    474e:	685a      	ldr	r2, [r3, #4]
    4750:	2301      	movs	r3, #1
    4752:	4093      	lsls	r3, r2
    4754:	604a      	str	r2, [r1, #4]
    4756:	608b      	str	r3, [r1, #8]
    4758:	9804      	ldr	r0, [sp, #16]
    475a:	f7ff fc28 	bl	3fae <_Bfree>
    475e:	2200      	movs	r2, #0
    4760:	9b04      	ldr	r3, [sp, #16]
    4762:	6a5b      	ldr	r3, [r3, #36]	; 0x24
    4764:	601a      	str	r2, [r3, #0]
    4766:	9b09      	ldr	r3, [sp, #36]	; 0x24
    4768:	2b00      	cmp	r3, #0
    476a:	da1a      	bge.n	47a2 <_dtoa_r+0x82>
    476c:	2301      	movs	r3, #1
    476e:	602b      	str	r3, [r5, #0]
    4770:	007b      	lsls	r3, r7, #1
    4772:	085b      	lsrs	r3, r3, #1
    4774:	9309      	str	r3, [sp, #36]	; 0x24
    4776:	9c09      	ldr	r4, [sp, #36]	; 0x24
    4778:	4bb9      	ldr	r3, [pc, #740]	; (4a60 <_dtoa_r+0x340>)
    477a:	0022      	movs	r2, r4
    477c:	9319      	str	r3, [sp, #100]	; 0x64
    477e:	401a      	ands	r2, r3
    4780:	429a      	cmp	r2, r3
    4782:	d11d      	bne.n	47c0 <_dtoa_r+0xa0>
    4784:	f242 730f 	movw	r3, #9999	; 0x270f
    4788:	9a24      	ldr	r2, [sp, #144]	; 0x90
    478a:	6013      	str	r3, [r2, #0]
    478c:	9b08      	ldr	r3, [sp, #32]
    478e:	b923      	cbnz	r3, 479a <_dtoa_r+0x7a>
    4790:	0324      	lsls	r4, r4, #12
    4792:	2c00      	cmp	r4, #0
    4794:	d101      	bne.n	479a <_dtoa_r+0x7a>
    4796:	f000 fd8a 	bl	52ae <_dtoa_r+0xb8e>
    479a:	9b26      	ldr	r3, [sp, #152]	; 0x98
    479c:	b963      	cbnz	r3, 47b8 <_dtoa_r+0x98>
    479e:	4bb1      	ldr	r3, [pc, #708]	; (4a64 <_dtoa_r+0x344>)
    47a0:	e024      	b.n	47ec <_dtoa_r+0xcc>
    47a2:	2300      	movs	r3, #0
    47a4:	602b      	str	r3, [r5, #0]
    47a6:	e7e6      	b.n	4776 <_dtoa_r+0x56>
    47a8:	4baf      	ldr	r3, [pc, #700]	; (4a68 <_dtoa_r+0x348>)
    47aa:	930a      	str	r3, [sp, #40]	; 0x28
    47ac:	4baf      	ldr	r3, [pc, #700]	; (4a6c <_dtoa_r+0x34c>)
    47ae:	9a26      	ldr	r2, [sp, #152]	; 0x98
    47b0:	6013      	str	r3, [r2, #0]
    47b2:	980a      	ldr	r0, [sp, #40]	; 0x28
    47b4:	b01d      	add	sp, #116	; 0x74
    47b6:	bdf0      	pop	{r4, r5, r6, r7, pc}
    47b8:	4baa      	ldr	r3, [pc, #680]	; (4a64 <_dtoa_r+0x344>)
    47ba:	930a      	str	r3, [sp, #40]	; 0x28
    47bc:	4bac      	ldr	r3, [pc, #688]	; (4a70 <_dtoa_r+0x350>)
    47be:	e7f6      	b.n	47ae <_dtoa_r+0x8e>
    47c0:	9e08      	ldr	r6, [sp, #32]
    47c2:	9f09      	ldr	r7, [sp, #36]	; 0x24
    47c4:	2200      	movs	r2, #0
    47c6:	2300      	movs	r3, #0
    47c8:	0030      	movs	r0, r6
    47ca:	0039      	movs	r1, r7
    47cc:	f7ff f88a 	bl	38e4 <__aeabi_dcmpeq>
    47d0:	0005      	movs	r5, r0
    47d2:	b168      	cbz	r0, 47f0 <_dtoa_r+0xd0>
    47d4:	2301      	movs	r3, #1
    47d6:	9a24      	ldr	r2, [sp, #144]	; 0x90
    47d8:	6013      	str	r3, [r2, #0]
    47da:	9b26      	ldr	r3, [sp, #152]	; 0x98
    47dc:	2b00      	cmp	r3, #0
    47de:	d101      	bne.n	47e4 <_dtoa_r+0xc4>
    47e0:	f000 fd62 	bl	52a8 <_dtoa_r+0xb88>
    47e4:	4ba3      	ldr	r3, [pc, #652]	; (4a74 <_dtoa_r+0x354>)
    47e6:	9a26      	ldr	r2, [sp, #152]	; 0x98
    47e8:	6013      	str	r3, [r2, #0]
    47ea:	3b01      	subs	r3, #1
    47ec:	930a      	str	r3, [sp, #40]	; 0x28
    47ee:	e7e0      	b.n	47b2 <_dtoa_r+0x92>
    47f0:	ab1a      	add	r3, sp, #104	; 0x68
    47f2:	9301      	str	r3, [sp, #4]
    47f4:	ab1b      	add	r3, sp, #108	; 0x6c
    47f6:	9300      	str	r3, [sp, #0]
    47f8:	0032      	movs	r2, r6
    47fa:	003b      	movs	r3, r7
    47fc:	9804      	ldr	r0, [sp, #16]
    47fe:	f7ff fe1d 	bl	443c <__d2b>
    4802:	0063      	lsls	r3, r4, #1
    4804:	0d5b      	lsrs	r3, r3, #21
    4806:	9005      	str	r0, [sp, #20]
    4808:	2b00      	cmp	r3, #0
    480a:	d100      	bne.n	480e <_dtoa_r+0xee>
    480c:	e07e      	b.n	490c <_dtoa_r+0x1ec>
    480e:	033a      	lsls	r2, r7, #12
    4810:	4c99      	ldr	r4, [pc, #612]	; (4a78 <_dtoa_r+0x358>)
    4812:	0b12      	lsrs	r2, r2, #12
    4814:	4314      	orrs	r4, r2
    4816:	0021      	movs	r1, r4
    4818:	4a98      	ldr	r2, [pc, #608]	; (4a7c <_dtoa_r+0x35c>)
    481a:	0030      	movs	r0, r6
    481c:	9518      	str	r5, [sp, #96]	; 0x60
    481e:	189e      	adds	r6, r3, r2
    4820:	2200      	movs	r2, #0
    4822:	4b97      	ldr	r3, [pc, #604]	; (4a80 <_dtoa_r+0x360>)
    4824:	f7fe fc06 	bl	3034 <__aeabi_dsub>
    4828:	4a96      	ldr	r2, [pc, #600]	; (4a84 <_dtoa_r+0x364>)
    482a:	4b97      	ldr	r3, [pc, #604]	; (4a88 <_dtoa_r+0x368>)
    482c:	f7fe f97a 	bl	2b24 <__aeabi_dmul>
    4830:	4a96      	ldr	r2, [pc, #600]	; (4a8c <_dtoa_r+0x36c>)
    4832:	4b97      	ldr	r3, [pc, #604]	; (4a90 <_dtoa_r+0x370>)
    4834:	f000 fd66 	bl	5304 <__aeabi_dadd>
    4838:	0004      	movs	r4, r0
    483a:	0030      	movs	r0, r6
    483c:	000d      	movs	r5, r1
    483e:	f7fe ff73 	bl	3728 <__aeabi_i2d>
    4842:	4a94      	ldr	r2, [pc, #592]	; (4a94 <_dtoa_r+0x374>)
    4844:	4b94      	ldr	r3, [pc, #592]	; (4a98 <_dtoa_r+0x378>)
    4846:	f7fe f96d 	bl	2b24 <__aeabi_dmul>
    484a:	0002      	movs	r2, r0
    484c:	000b      	movs	r3, r1
    484e:	0020      	movs	r0, r4
    4850:	0029      	movs	r1, r5
    4852:	f000 fd57 	bl	5304 <__aeabi_dadd>
    4856:	0004      	movs	r4, r0
    4858:	000d      	movs	r5, r1
    485a:	f7fe ff37 	bl	36cc <__aeabi_d2iz>
    485e:	2200      	movs	r2, #0
    4860:	9003      	str	r0, [sp, #12]
    4862:	2300      	movs	r3, #0
    4864:	0020      	movs	r0, r4
    4866:	0029      	movs	r1, r5
    4868:	f7ff f842 	bl	38f0 <__aeabi_dcmplt>
    486c:	b170      	cbz	r0, 488c <_dtoa_r+0x16c>
    486e:	9803      	ldr	r0, [sp, #12]
    4870:	f7fe ff5a 	bl	3728 <__aeabi_i2d>
    4874:	000b      	movs	r3, r1
    4876:	0002      	movs	r2, r0
    4878:	0029      	movs	r1, r5
    487a:	0020      	movs	r0, r4
    487c:	f7ff f832 	bl	38e4 <__aeabi_dcmpeq>
    4880:	0003      	movs	r3, r0
    4882:	4258      	negs	r0, r3
    4884:	4158      	adcs	r0, r3
    4886:	9b03      	ldr	r3, [sp, #12]
    4888:	1a1b      	subs	r3, r3, r0
    488a:	9303      	str	r3, [sp, #12]
    488c:	2301      	movs	r3, #1
    488e:	9316      	str	r3, [sp, #88]	; 0x58
    4890:	9b03      	ldr	r3, [sp, #12]
    4892:	2b16      	cmp	r3, #22
    4894:	d80f      	bhi.n	48b6 <_dtoa_r+0x196>
    4896:	00d9      	lsls	r1, r3, #3
    4898:	4b80      	ldr	r3, [pc, #512]	; (4a9c <_dtoa_r+0x37c>)
    489a:	18c9      	adds	r1, r1, r3
    489c:	6808      	ldr	r0, [r1, #0]
    489e:	6849      	ldr	r1, [r1, #4]
    48a0:	9a08      	ldr	r2, [sp, #32]
    48a2:	9b09      	ldr	r3, [sp, #36]	; 0x24
    48a4:	f7ff f838 	bl	3918 <__aeabi_dcmpgt>
    48a8:	2800      	cmp	r0, #0
    48aa:	d04c      	beq.n	4946 <_dtoa_r+0x226>
    48ac:	9b03      	ldr	r3, [sp, #12]
    48ae:	3b01      	subs	r3, #1
    48b0:	9303      	str	r3, [sp, #12]
    48b2:	2300      	movs	r3, #0
    48b4:	9316      	str	r3, [sp, #88]	; 0x58
    48b6:	9b1a      	ldr	r3, [sp, #104]	; 0x68
    48b8:	1b9e      	subs	r6, r3, r6
    48ba:	2300      	movs	r3, #0
    48bc:	930b      	str	r3, [sp, #44]	; 0x2c
    48be:	0033      	movs	r3, r6
    48c0:	3b01      	subs	r3, #1
    48c2:	930d      	str	r3, [sp, #52]	; 0x34
    48c4:	d504      	bpl.n	48d0 <_dtoa_r+0x1b0>
    48c6:	2301      	movs	r3, #1
    48c8:	1b9b      	subs	r3, r3, r6
    48ca:	930b      	str	r3, [sp, #44]	; 0x2c
    48cc:	2300      	movs	r3, #0
    48ce:	930d      	str	r3, [sp, #52]	; 0x34
    48d0:	9b03      	ldr	r3, [sp, #12]
    48d2:	2b00      	cmp	r3, #0
    48d4:	db39      	blt.n	494a <_dtoa_r+0x22a>
    48d6:	9a03      	ldr	r2, [sp, #12]
    48d8:	9b0d      	ldr	r3, [sp, #52]	; 0x34
    48da:	4694      	mov	ip, r2
    48dc:	4463      	add	r3, ip
    48de:	930d      	str	r3, [sp, #52]	; 0x34
    48e0:	2300      	movs	r3, #0
    48e2:	920f      	str	r2, [sp, #60]	; 0x3c
    48e4:	9306      	str	r3, [sp, #24]
    48e6:	9b22      	ldr	r3, [sp, #136]	; 0x88
    48e8:	2501      	movs	r5, #1
    48ea:	2b09      	cmp	r3, #9
    48ec:	d900      	bls.n	48f0 <_dtoa_r+0x1d0>
    48ee:	e090      	b.n	4a12 <_dtoa_r+0x2f2>
    48f0:	2b05      	cmp	r3, #5
    48f2:	dd02      	ble.n	48fa <_dtoa_r+0x1da>
    48f4:	2500      	movs	r5, #0
    48f6:	3b04      	subs	r3, #4
    48f8:	9322      	str	r3, [sp, #136]	; 0x88
    48fa:	9b22      	ldr	r3, [sp, #136]	; 0x88
    48fc:	1e98      	subs	r0, r3, #2
    48fe:	2803      	cmp	r0, #3
    4900:	d900      	bls.n	4904 <_dtoa_r+0x1e4>
    4902:	e090      	b.n	4a26 <_dtoa_r+0x306>
    4904:	f000 fcf4 	bl	52f0 <__gnu_thumb1_case_uqi>
    4908:	752a8381 	.word	0x752a8381
    490c:	9b1a      	ldr	r3, [sp, #104]	; 0x68
    490e:	9a1b      	ldr	r2, [sp, #108]	; 0x6c
    4910:	189e      	adds	r6, r3, r2
    4912:	f240 4332 	movw	r3, #1074	; 0x432
    4916:	18f2      	adds	r2, r6, r3
    4918:	2a20      	cmp	r2, #32
    491a:	dd0f      	ble.n	493c <_dtoa_r+0x21c>
    491c:	3b20      	subs	r3, #32
    491e:	9808      	ldr	r0, [sp, #32]
    4920:	18f3      	adds	r3, r6, r3
    4922:	40d8      	lsrs	r0, r3
    4924:	2340      	movs	r3, #64	; 0x40
    4926:	1a9b      	subs	r3, r3, r2
    4928:	409c      	lsls	r4, r3
    492a:	4320      	orrs	r0, r4
    492c:	f7fe ff3e 	bl	37ac <__aeabi_ui2d>
    4930:	2301      	movs	r3, #1
    4932:	4c5b      	ldr	r4, [pc, #364]	; (4aa0 <_dtoa_r+0x380>)
    4934:	3e01      	subs	r6, #1
    4936:	1909      	adds	r1, r1, r4
    4938:	9318      	str	r3, [sp, #96]	; 0x60
    493a:	e771      	b.n	4820 <_dtoa_r+0x100>
    493c:	2320      	movs	r3, #32
    493e:	9808      	ldr	r0, [sp, #32]
    4940:	1a9b      	subs	r3, r3, r2
    4942:	4098      	lsls	r0, r3
    4944:	e7f2      	b.n	492c <_dtoa_r+0x20c>
    4946:	9016      	str	r0, [sp, #88]	; 0x58
    4948:	e7b5      	b.n	48b6 <_dtoa_r+0x196>
    494a:	9b0b      	ldr	r3, [sp, #44]	; 0x2c
    494c:	9a03      	ldr	r2, [sp, #12]
    494e:	1a9b      	subs	r3, r3, r2
    4950:	930b      	str	r3, [sp, #44]	; 0x2c
    4952:	4253      	negs	r3, r2
    4954:	9306      	str	r3, [sp, #24]
    4956:	2300      	movs	r3, #0
    4958:	930f      	str	r3, [sp, #60]	; 0x3c
    495a:	e7c4      	b.n	48e6 <_dtoa_r+0x1c6>
    495c:	2301      	movs	r3, #1
    495e:	930e      	str	r3, [sp, #56]	; 0x38
    4960:	9b23      	ldr	r3, [sp, #140]	; 0x8c
    4962:	2b00      	cmp	r3, #0
    4964:	dd63      	ble.n	4a2e <_dtoa_r+0x30e>
    4966:	001f      	movs	r7, r3
    4968:	930c      	str	r3, [sp, #48]	; 0x30
    496a:	9a04      	ldr	r2, [sp, #16]
    496c:	6a54      	ldr	r4, [r2, #36]	; 0x24
    496e:	2200      	movs	r2, #0
    4970:	6062      	str	r2, [r4, #4]
    4972:	3204      	adds	r2, #4
    4974:	0011      	movs	r1, r2
    4976:	3114      	adds	r1, #20
    4978:	4299      	cmp	r1, r3
    497a:	d95d      	bls.n	4a38 <_dtoa_r+0x318>
    497c:	6861      	ldr	r1, [r4, #4]
    497e:	9804      	ldr	r0, [sp, #16]
    4980:	f7ff fae1 	bl	3f46 <_Balloc>
    4984:	9b04      	ldr	r3, [sp, #16]
    4986:	6020      	str	r0, [r4, #0]
    4988:	6a5b      	ldr	r3, [r3, #36]	; 0x24
    498a:	681b      	ldr	r3, [r3, #0]
    498c:	930a      	str	r3, [sp, #40]	; 0x28
    498e:	2f0e      	cmp	r7, #14
    4990:	d900      	bls.n	4994 <_dtoa_r+0x274>
    4992:	e0fd      	b.n	4b90 <_dtoa_r+0x470>
    4994:	2d00      	cmp	r5, #0
    4996:	d100      	bne.n	499a <_dtoa_r+0x27a>
    4998:	e0fa      	b.n	4b90 <_dtoa_r+0x470>
    499a:	9b08      	ldr	r3, [sp, #32]
    499c:	9c09      	ldr	r4, [sp, #36]	; 0x24
    499e:	9314      	str	r3, [sp, #80]	; 0x50
    49a0:	9415      	str	r4, [sp, #84]	; 0x54
    49a2:	9b03      	ldr	r3, [sp, #12]
    49a4:	2b00      	cmp	r3, #0
    49a6:	dc00      	bgt.n	49aa <_dtoa_r+0x28a>
    49a8:	e07e      	b.n	4aa8 <_dtoa_r+0x388>
    49aa:	220f      	movs	r2, #15
    49ac:	493b      	ldr	r1, [pc, #236]	; (4a9c <_dtoa_r+0x37c>)
    49ae:	4013      	ands	r3, r2
    49b0:	00db      	lsls	r3, r3, #3
    49b2:	185b      	adds	r3, r3, r1
    49b4:	685c      	ldr	r4, [r3, #4]
    49b6:	681b      	ldr	r3, [r3, #0]
    49b8:	9310      	str	r3, [sp, #64]	; 0x40
    49ba:	9411      	str	r4, [sp, #68]	; 0x44
    49bc:	9b03      	ldr	r3, [sp, #12]
    49be:	2402      	movs	r4, #2
    49c0:	111d      	asrs	r5, r3, #4
    49c2:	06eb      	lsls	r3, r5, #27
    49c4:	d50a      	bpl.n	49dc <_dtoa_r+0x2bc>
    49c6:	9814      	ldr	r0, [sp, #80]	; 0x50
    49c8:	9915      	ldr	r1, [sp, #84]	; 0x54
    49ca:	4b36      	ldr	r3, [pc, #216]	; (4aa4 <_dtoa_r+0x384>)
    49cc:	4015      	ands	r5, r2
    49ce:	6a1a      	ldr	r2, [r3, #32]
    49d0:	6a5b      	ldr	r3, [r3, #36]	; 0x24
    49d2:	f7fd fd7f 	bl	24d4 <__aeabi_ddiv>
    49d6:	9008      	str	r0, [sp, #32]
    49d8:	9109      	str	r1, [sp, #36]	; 0x24
    49da:	3401      	adds	r4, #1
    49dc:	4e31      	ldr	r6, [pc, #196]	; (4aa4 <_dtoa_r+0x384>)
    49de:	bb85      	cbnz	r5, 4a42 <_dtoa_r+0x322>
    49e0:	9a10      	ldr	r2, [sp, #64]	; 0x40
    49e2:	9b11      	ldr	r3, [sp, #68]	; 0x44
    49e4:	9808      	ldr	r0, [sp, #32]
    49e6:	9909      	ldr	r1, [sp, #36]	; 0x24
    49e8:	f7fd fd74 	bl	24d4 <__aeabi_ddiv>
    49ec:	9008      	str	r0, [sp, #32]
    49ee:	9109      	str	r1, [sp, #36]	; 0x24
    49f0:	e074      	b.n	4adc <_dtoa_r+0x3bc>
    49f2:	2301      	movs	r3, #1
    49f4:	9a23      	ldr	r2, [sp, #140]	; 0x8c
    49f6:	930e      	str	r3, [sp, #56]	; 0x38
    49f8:	4694      	mov	ip, r2
    49fa:	9b03      	ldr	r3, [sp, #12]
    49fc:	4463      	add	r3, ip
    49fe:	1c5f      	adds	r7, r3, #1
    4a00:	930c      	str	r3, [sp, #48]	; 0x30
    4a02:	1e3b      	subs	r3, r7, #0
    4a04:	dcb1      	bgt.n	496a <_dtoa_r+0x24a>
    4a06:	2301      	movs	r3, #1
    4a08:	e7af      	b.n	496a <_dtoa_r+0x24a>
    4a0a:	2300      	movs	r3, #0
    4a0c:	e7a7      	b.n	495e <_dtoa_r+0x23e>
    4a0e:	2300      	movs	r3, #0
    4a10:	e7f0      	b.n	49f4 <_dtoa_r+0x2d4>
    4a12:	2300      	movs	r3, #0
    4a14:	950e      	str	r5, [sp, #56]	; 0x38
    4a16:	9322      	str	r3, [sp, #136]	; 0x88
    4a18:	3b01      	subs	r3, #1
    4a1a:	2200      	movs	r2, #0
    4a1c:	930c      	str	r3, [sp, #48]	; 0x30
    4a1e:	001f      	movs	r7, r3
    4a20:	3313      	adds	r3, #19
    4a22:	9223      	str	r2, [sp, #140]	; 0x8c
    4a24:	e7a1      	b.n	496a <_dtoa_r+0x24a>
    4a26:	2301      	movs	r3, #1
    4a28:	930e      	str	r3, [sp, #56]	; 0x38
    4a2a:	3b02      	subs	r3, #2
    4a2c:	e7f5      	b.n	4a1a <_dtoa_r+0x2fa>
    4a2e:	2301      	movs	r3, #1
    4a30:	930c      	str	r3, [sp, #48]	; 0x30
    4a32:	001f      	movs	r7, r3
    4a34:	001a      	movs	r2, r3
    4a36:	e7f4      	b.n	4a22 <_dtoa_r+0x302>
    4a38:	6861      	ldr	r1, [r4, #4]
    4a3a:	0052      	lsls	r2, r2, #1
    4a3c:	3101      	adds	r1, #1
    4a3e:	6061      	str	r1, [r4, #4]
    4a40:	e798      	b.n	4974 <_dtoa_r+0x254>
    4a42:	2301      	movs	r3, #1
    4a44:	421d      	tst	r5, r3
    4a46:	d008      	beq.n	4a5a <_dtoa_r+0x33a>
    4a48:	9810      	ldr	r0, [sp, #64]	; 0x40
    4a4a:	9911      	ldr	r1, [sp, #68]	; 0x44
    4a4c:	18e4      	adds	r4, r4, r3
    4a4e:	6832      	ldr	r2, [r6, #0]
    4a50:	6873      	ldr	r3, [r6, #4]
    4a52:	f7fe f867 	bl	2b24 <__aeabi_dmul>
    4a56:	9010      	str	r0, [sp, #64]	; 0x40
    4a58:	9111      	str	r1, [sp, #68]	; 0x44
    4a5a:	106d      	asrs	r5, r5, #1
    4a5c:	3608      	adds	r6, #8
    4a5e:	e7be      	b.n	49de <_dtoa_r+0x2be>
    4a60:	7ff00000 	.word	0x7ff00000
    4a64:	00005dc5 	.word	0x00005dc5
    4a68:	00005dbc 	.word	0x00005dbc
    4a6c:	00005dc4 	.word	0x00005dc4
    4a70:	00005dc8 	.word	0x00005dc8
    4a74:	00005dca 	.word	0x00005dca
    4a78:	3ff00000 	.word	0x3ff00000
    4a7c:	fffffc01 	.word	0xfffffc01
    4a80:	3ff80000 	.word	0x3ff80000
    4a84:	636f4361 	.word	0x636f4361
    4a88:	3fd287a7 	.word	0x3fd287a7
    4a8c:	8b60c8b3 	.word	0x8b60c8b3
    4a90:	3fc68a28 	.word	0x3fc68a28
    4a94:	509f79fb 	.word	0x509f79fb
    4a98:	3fd34413 	.word	0x3fd34413
    4a9c:	00005ce8 	.word	0x00005ce8
    4aa0:	fe100000 	.word	0xfe100000
    4aa4:	00005cc0 	.word	0x00005cc0
    4aa8:	9b03      	ldr	r3, [sp, #12]
    4aaa:	2402      	movs	r4, #2
    4aac:	b1b3      	cbz	r3, 4adc <_dtoa_r+0x3bc>
    4aae:	9814      	ldr	r0, [sp, #80]	; 0x50
    4ab0:	9915      	ldr	r1, [sp, #84]	; 0x54
    4ab2:	425d      	negs	r5, r3
    4ab4:	230f      	movs	r3, #15
    4ab6:	4aca      	ldr	r2, [pc, #808]	; (4de0 <_dtoa_r+0x6c0>)
    4ab8:	402b      	ands	r3, r5
    4aba:	00db      	lsls	r3, r3, #3
    4abc:	189b      	adds	r3, r3, r2
    4abe:	681a      	ldr	r2, [r3, #0]
    4ac0:	685b      	ldr	r3, [r3, #4]
    4ac2:	f7fe f82f 	bl	2b24 <__aeabi_dmul>
    4ac6:	2300      	movs	r3, #0
    4ac8:	9008      	str	r0, [sp, #32]
    4aca:	9109      	str	r1, [sp, #36]	; 0x24
    4acc:	4ec5      	ldr	r6, [pc, #788]	; (4de4 <_dtoa_r+0x6c4>)
    4ace:	112d      	asrs	r5, r5, #4
    4ad0:	2d00      	cmp	r5, #0
    4ad2:	d000      	beq.n	4ad6 <_dtoa_r+0x3b6>
    4ad4:	e08d      	b.n	4bf2 <_dtoa_r+0x4d2>
    4ad6:	2b00      	cmp	r3, #0
    4ad8:	d000      	beq.n	4adc <_dtoa_r+0x3bc>
    4ada:	e787      	b.n	49ec <_dtoa_r+0x2cc>
    4adc:	9b16      	ldr	r3, [sp, #88]	; 0x58
    4ade:	2b00      	cmp	r3, #0
    4ae0:	d100      	bne.n	4ae4 <_dtoa_r+0x3c4>
    4ae2:	e092      	b.n	4c0a <_dtoa_r+0x4ea>
    4ae4:	9a08      	ldr	r2, [sp, #32]
    4ae6:	9b09      	ldr	r3, [sp, #36]	; 0x24
    4ae8:	9210      	str	r2, [sp, #64]	; 0x40
    4aea:	9311      	str	r3, [sp, #68]	; 0x44
    4aec:	9810      	ldr	r0, [sp, #64]	; 0x40
    4aee:	9911      	ldr	r1, [sp, #68]	; 0x44
    4af0:	2200      	movs	r2, #0
    4af2:	4bbd      	ldr	r3, [pc, #756]	; (4de8 <_dtoa_r+0x6c8>)
    4af4:	f7fe fefc 	bl	38f0 <__aeabi_dcmplt>
    4af8:	2800      	cmp	r0, #0
    4afa:	d100      	bne.n	4afe <_dtoa_r+0x3de>
    4afc:	e085      	b.n	4c0a <_dtoa_r+0x4ea>
    4afe:	2f00      	cmp	r7, #0
    4b00:	d100      	bne.n	4b04 <_dtoa_r+0x3e4>
    4b02:	e082      	b.n	4c0a <_dtoa_r+0x4ea>
    4b04:	9b0c      	ldr	r3, [sp, #48]	; 0x30
    4b06:	2b00      	cmp	r3, #0
    4b08:	dd3e      	ble.n	4b88 <_dtoa_r+0x468>
    4b0a:	9810      	ldr	r0, [sp, #64]	; 0x40
    4b0c:	9911      	ldr	r1, [sp, #68]	; 0x44
    4b0e:	9b03      	ldr	r3, [sp, #12]
    4b10:	2200      	movs	r2, #0
    4b12:	1e5e      	subs	r6, r3, #1
    4b14:	4bb5      	ldr	r3, [pc, #724]	; (4dec <_dtoa_r+0x6cc>)
    4b16:	f7fe f805 	bl	2b24 <__aeabi_dmul>
    4b1a:	9008      	str	r0, [sp, #32]
    4b1c:	9109      	str	r1, [sp, #36]	; 0x24
    4b1e:	9d0c      	ldr	r5, [sp, #48]	; 0x30
    4b20:	3401      	adds	r4, #1
    4b22:	0020      	movs	r0, r4
    4b24:	f7fe fe00 	bl	3728 <__aeabi_i2d>
    4b28:	9a08      	ldr	r2, [sp, #32]
    4b2a:	9b09      	ldr	r3, [sp, #36]	; 0x24
    4b2c:	f7fd fffa 	bl	2b24 <__aeabi_dmul>
    4b30:	2200      	movs	r2, #0
    4b32:	4baf      	ldr	r3, [pc, #700]	; (4df0 <_dtoa_r+0x6d0>)
    4b34:	f000 fbe6 	bl	5304 <__aeabi_dadd>
    4b38:	9012      	str	r0, [sp, #72]	; 0x48
    4b3a:	9113      	str	r1, [sp, #76]	; 0x4c
    4b3c:	9b12      	ldr	r3, [sp, #72]	; 0x48
    4b3e:	9c13      	ldr	r4, [sp, #76]	; 0x4c
    4b40:	4aac      	ldr	r2, [pc, #688]	; (4df4 <_dtoa_r+0x6d4>)
    4b42:	9310      	str	r3, [sp, #64]	; 0x40
    4b44:	9411      	str	r4, [sp, #68]	; 0x44
    4b46:	9b13      	ldr	r3, [sp, #76]	; 0x4c
    4b48:	189c      	adds	r4, r3, r2
    4b4a:	9411      	str	r4, [sp, #68]	; 0x44
    4b4c:	2d00      	cmp	r5, #0
    4b4e:	d15f      	bne.n	4c10 <_dtoa_r+0x4f0>
    4b50:	9808      	ldr	r0, [sp, #32]
    4b52:	9909      	ldr	r1, [sp, #36]	; 0x24
    4b54:	2200      	movs	r2, #0
    4b56:	4ba8      	ldr	r3, [pc, #672]	; (4df8 <_dtoa_r+0x6d8>)
    4b58:	f7fe fa6c 	bl	3034 <__aeabi_dsub>
    4b5c:	9a10      	ldr	r2, [sp, #64]	; 0x40
    4b5e:	0023      	movs	r3, r4
    4b60:	9008      	str	r0, [sp, #32]
    4b62:	9109      	str	r1, [sp, #36]	; 0x24
    4b64:	f7fe fed8 	bl	3918 <__aeabi_dcmpgt>
    4b68:	2800      	cmp	r0, #0
    4b6a:	d000      	beq.n	4b6e <_dtoa_r+0x44e>
    4b6c:	e2f8      	b.n	5160 <_dtoa_r+0xa40>
    4b6e:	48a3      	ldr	r0, [pc, #652]	; (4dfc <_dtoa_r+0x6dc>)
    4b70:	9913      	ldr	r1, [sp, #76]	; 0x4c
    4b72:	4684      	mov	ip, r0
    4b74:	4461      	add	r1, ip
    4b76:	000b      	movs	r3, r1
    4b78:	9808      	ldr	r0, [sp, #32]
    4b7a:	9909      	ldr	r1, [sp, #36]	; 0x24
    4b7c:	9a10      	ldr	r2, [sp, #64]	; 0x40
    4b7e:	f7fe feb7 	bl	38f0 <__aeabi_dcmplt>
    4b82:	2800      	cmp	r0, #0
    4b84:	d000      	beq.n	4b88 <_dtoa_r+0x468>
    4b86:	e2e1      	b.n	514c <_dtoa_r+0xa2c>
    4b88:	9b14      	ldr	r3, [sp, #80]	; 0x50
    4b8a:	9c15      	ldr	r4, [sp, #84]	; 0x54
    4b8c:	9308      	str	r3, [sp, #32]
    4b8e:	9409      	str	r4, [sp, #36]	; 0x24
    4b90:	9b1b      	ldr	r3, [sp, #108]	; 0x6c
    4b92:	2b00      	cmp	r3, #0
    4b94:	da00      	bge.n	4b98 <_dtoa_r+0x478>
    4b96:	e155      	b.n	4e44 <_dtoa_r+0x724>
    4b98:	9a03      	ldr	r2, [sp, #12]
    4b9a:	2a0e      	cmp	r2, #14
    4b9c:	dd00      	ble.n	4ba0 <_dtoa_r+0x480>
    4b9e:	e151      	b.n	4e44 <_dtoa_r+0x724>
    4ba0:	00d3      	lsls	r3, r2, #3
    4ba2:	4a8f      	ldr	r2, [pc, #572]	; (4de0 <_dtoa_r+0x6c0>)
    4ba4:	189b      	adds	r3, r3, r2
    4ba6:	685c      	ldr	r4, [r3, #4]
    4ba8:	681b      	ldr	r3, [r3, #0]
    4baa:	9306      	str	r3, [sp, #24]
    4bac:	9407      	str	r4, [sp, #28]
    4bae:	9b23      	ldr	r3, [sp, #140]	; 0x8c
    4bb0:	2b00      	cmp	r3, #0
    4bb2:	db00      	blt.n	4bb6 <_dtoa_r+0x496>
    4bb4:	e0d0      	b.n	4d58 <_dtoa_r+0x638>
    4bb6:	2f00      	cmp	r7, #0
    4bb8:	dd00      	ble.n	4bbc <_dtoa_r+0x49c>
    4bba:	e0cd      	b.n	4d58 <_dtoa_r+0x638>
    4bbc:	2f00      	cmp	r7, #0
    4bbe:	d000      	beq.n	4bc2 <_dtoa_r+0x4a2>
    4bc0:	e2c7      	b.n	5152 <_dtoa_r+0xa32>
    4bc2:	9806      	ldr	r0, [sp, #24]
    4bc4:	9907      	ldr	r1, [sp, #28]
    4bc6:	2200      	movs	r2, #0
    4bc8:	4b8b      	ldr	r3, [pc, #556]	; (4df8 <_dtoa_r+0x6d8>)
    4bca:	f7fd ffab 	bl	2b24 <__aeabi_dmul>
    4bce:	9a08      	ldr	r2, [sp, #32]
    4bd0:	9b09      	ldr	r3, [sp, #36]	; 0x24
    4bd2:	f7fe feab 	bl	392c <__aeabi_dcmpge>
    4bd6:	003e      	movs	r6, r7
    4bd8:	9706      	str	r7, [sp, #24]
    4bda:	2800      	cmp	r0, #0
    4bdc:	d000      	beq.n	4be0 <_dtoa_r+0x4c0>
    4bde:	e29d      	b.n	511c <_dtoa_r+0x9fc>
    4be0:	9b0a      	ldr	r3, [sp, #40]	; 0x28
    4be2:	9a0a      	ldr	r2, [sp, #40]	; 0x28
    4be4:	1c5d      	adds	r5, r3, #1
    4be6:	2331      	movs	r3, #49	; 0x31
    4be8:	7013      	strb	r3, [r2, #0]
    4bea:	9b03      	ldr	r3, [sp, #12]
    4bec:	3301      	adds	r3, #1
    4bee:	9303      	str	r3, [sp, #12]
    4bf0:	e298      	b.n	5124 <_dtoa_r+0xa04>
    4bf2:	2201      	movs	r2, #1
    4bf4:	4215      	tst	r5, r2
    4bf6:	d005      	beq.n	4c04 <_dtoa_r+0x4e4>
    4bf8:	18a4      	adds	r4, r4, r2
    4bfa:	6832      	ldr	r2, [r6, #0]
    4bfc:	6873      	ldr	r3, [r6, #4]
    4bfe:	f7fd ff91 	bl	2b24 <__aeabi_dmul>
    4c02:	2301      	movs	r3, #1
    4c04:	106d      	asrs	r5, r5, #1
    4c06:	3608      	adds	r6, #8
    4c08:	e762      	b.n	4ad0 <_dtoa_r+0x3b0>
    4c0a:	9e03      	ldr	r6, [sp, #12]
    4c0c:	003d      	movs	r5, r7
    4c0e:	e788      	b.n	4b22 <_dtoa_r+0x402>
    4c10:	9a0a      	ldr	r2, [sp, #40]	; 0x28
    4c12:	1e6b      	subs	r3, r5, #1
    4c14:	1952      	adds	r2, r2, r5
    4c16:	9217      	str	r2, [sp, #92]	; 0x5c
    4c18:	9a0e      	ldr	r2, [sp, #56]	; 0x38
    4c1a:	00db      	lsls	r3, r3, #3
    4c1c:	2a00      	cmp	r2, #0
    4c1e:	d04b      	beq.n	4cb8 <_dtoa_r+0x598>
    4c20:	4a6f      	ldr	r2, [pc, #444]	; (4de0 <_dtoa_r+0x6c0>)
    4c22:	2000      	movs	r0, #0
    4c24:	189b      	adds	r3, r3, r2
    4c26:	681a      	ldr	r2, [r3, #0]
    4c28:	685b      	ldr	r3, [r3, #4]
    4c2a:	4975      	ldr	r1, [pc, #468]	; (4e00 <_dtoa_r+0x6e0>)
    4c2c:	f7fd fc52 	bl	24d4 <__aeabi_ddiv>
    4c30:	9a10      	ldr	r2, [sp, #64]	; 0x40
    4c32:	9b11      	ldr	r3, [sp, #68]	; 0x44
    4c34:	f7fe f9fe 	bl	3034 <__aeabi_dsub>
    4c38:	9b0a      	ldr	r3, [sp, #40]	; 0x28
    4c3a:	9010      	str	r0, [sp, #64]	; 0x40
    4c3c:	9111      	str	r1, [sp, #68]	; 0x44
    4c3e:	9312      	str	r3, [sp, #72]	; 0x48
    4c40:	9808      	ldr	r0, [sp, #32]
    4c42:	9909      	ldr	r1, [sp, #36]	; 0x24
    4c44:	f7fe fd42 	bl	36cc <__aeabi_d2iz>
    4c48:	0004      	movs	r4, r0
    4c4a:	f7fe fd6d 	bl	3728 <__aeabi_i2d>
    4c4e:	0002      	movs	r2, r0
    4c50:	000b      	movs	r3, r1
    4c52:	9808      	ldr	r0, [sp, #32]
    4c54:	9909      	ldr	r1, [sp, #36]	; 0x24
    4c56:	f7fe f9ed 	bl	3034 <__aeabi_dsub>
    4c5a:	9b12      	ldr	r3, [sp, #72]	; 0x48
    4c5c:	3430      	adds	r4, #48	; 0x30
    4c5e:	1c5d      	adds	r5, r3, #1
    4c60:	701c      	strb	r4, [r3, #0]
    4c62:	9a10      	ldr	r2, [sp, #64]	; 0x40
    4c64:	9b11      	ldr	r3, [sp, #68]	; 0x44
    4c66:	9008      	str	r0, [sp, #32]
    4c68:	9109      	str	r1, [sp, #36]	; 0x24
    4c6a:	f7fe fe41 	bl	38f0 <__aeabi_dcmplt>
    4c6e:	2800      	cmp	r0, #0
    4c70:	d166      	bne.n	4d40 <_dtoa_r+0x620>
    4c72:	9a08      	ldr	r2, [sp, #32]
    4c74:	9b09      	ldr	r3, [sp, #36]	; 0x24
    4c76:	2000      	movs	r0, #0
    4c78:	495b      	ldr	r1, [pc, #364]	; (4de8 <_dtoa_r+0x6c8>)
    4c7a:	f7fe f9db 	bl	3034 <__aeabi_dsub>
    4c7e:	9a10      	ldr	r2, [sp, #64]	; 0x40
    4c80:	9b11      	ldr	r3, [sp, #68]	; 0x44
    4c82:	f7fe fe35 	bl	38f0 <__aeabi_dcmplt>
    4c86:	2800      	cmp	r0, #0
    4c88:	d000      	beq.n	4c8c <_dtoa_r+0x56c>
    4c8a:	e0bc      	b.n	4e06 <_dtoa_r+0x6e6>
    4c8c:	9b17      	ldr	r3, [sp, #92]	; 0x5c
    4c8e:	429d      	cmp	r5, r3
    4c90:	d100      	bne.n	4c94 <_dtoa_r+0x574>
    4c92:	e779      	b.n	4b88 <_dtoa_r+0x468>
    4c94:	9810      	ldr	r0, [sp, #64]	; 0x40
    4c96:	9911      	ldr	r1, [sp, #68]	; 0x44
    4c98:	2200      	movs	r2, #0
    4c9a:	4b54      	ldr	r3, [pc, #336]	; (4dec <_dtoa_r+0x6cc>)
    4c9c:	f7fd ff42 	bl	2b24 <__aeabi_dmul>
    4ca0:	2200      	movs	r2, #0
    4ca2:	9010      	str	r0, [sp, #64]	; 0x40
    4ca4:	9111      	str	r1, [sp, #68]	; 0x44
    4ca6:	9808      	ldr	r0, [sp, #32]
    4ca8:	9909      	ldr	r1, [sp, #36]	; 0x24
    4caa:	4b50      	ldr	r3, [pc, #320]	; (4dec <_dtoa_r+0x6cc>)
    4cac:	f7fd ff3a 	bl	2b24 <__aeabi_dmul>
    4cb0:	9512      	str	r5, [sp, #72]	; 0x48
    4cb2:	9008      	str	r0, [sp, #32]
    4cb4:	9109      	str	r1, [sp, #36]	; 0x24
    4cb6:	e7c3      	b.n	4c40 <_dtoa_r+0x520>
    4cb8:	4a49      	ldr	r2, [pc, #292]	; (4de0 <_dtoa_r+0x6c0>)
    4cba:	1899      	adds	r1, r3, r2
    4cbc:	6808      	ldr	r0, [r1, #0]
    4cbe:	6849      	ldr	r1, [r1, #4]
    4cc0:	9a10      	ldr	r2, [sp, #64]	; 0x40
    4cc2:	9b11      	ldr	r3, [sp, #68]	; 0x44
    4cc4:	f7fd ff2e 	bl	2b24 <__aeabi_dmul>
    4cc8:	9010      	str	r0, [sp, #64]	; 0x40
    4cca:	9111      	str	r1, [sp, #68]	; 0x44
    4ccc:	9c0a      	ldr	r4, [sp, #40]	; 0x28
    4cce:	9d17      	ldr	r5, [sp, #92]	; 0x5c
    4cd0:	9808      	ldr	r0, [sp, #32]
    4cd2:	9909      	ldr	r1, [sp, #36]	; 0x24
    4cd4:	f7fe fcfa 	bl	36cc <__aeabi_d2iz>
    4cd8:	9012      	str	r0, [sp, #72]	; 0x48
    4cda:	f7fe fd25 	bl	3728 <__aeabi_i2d>
    4cde:	0002      	movs	r2, r0
    4ce0:	000b      	movs	r3, r1
    4ce2:	9808      	ldr	r0, [sp, #32]
    4ce4:	9909      	ldr	r1, [sp, #36]	; 0x24
    4ce6:	f7fe f9a5 	bl	3034 <__aeabi_dsub>
    4cea:	9b12      	ldr	r3, [sp, #72]	; 0x48
    4cec:	9008      	str	r0, [sp, #32]
    4cee:	9109      	str	r1, [sp, #36]	; 0x24
    4cf0:	3330      	adds	r3, #48	; 0x30
    4cf2:	7023      	strb	r3, [r4, #0]
    4cf4:	9b17      	ldr	r3, [sp, #92]	; 0x5c
    4cf6:	3401      	adds	r4, #1
    4cf8:	2200      	movs	r2, #0
    4cfa:	42a3      	cmp	r3, r4
    4cfc:	d124      	bne.n	4d48 <_dtoa_r+0x628>
    4cfe:	4b40      	ldr	r3, [pc, #256]	; (4e00 <_dtoa_r+0x6e0>)
    4d00:	9810      	ldr	r0, [sp, #64]	; 0x40
    4d02:	9911      	ldr	r1, [sp, #68]	; 0x44
    4d04:	f000 fafe 	bl	5304 <__aeabi_dadd>
    4d08:	0002      	movs	r2, r0
    4d0a:	000b      	movs	r3, r1
    4d0c:	9808      	ldr	r0, [sp, #32]
    4d0e:	9909      	ldr	r1, [sp, #36]	; 0x24
    4d10:	f7fe fe02 	bl	3918 <__aeabi_dcmpgt>
    4d14:	2800      	cmp	r0, #0
    4d16:	d000      	beq.n	4d1a <_dtoa_r+0x5fa>
    4d18:	e075      	b.n	4e06 <_dtoa_r+0x6e6>
    4d1a:	9a10      	ldr	r2, [sp, #64]	; 0x40
    4d1c:	9b11      	ldr	r3, [sp, #68]	; 0x44
    4d1e:	2000      	movs	r0, #0
    4d20:	4937      	ldr	r1, [pc, #220]	; (4e00 <_dtoa_r+0x6e0>)
    4d22:	f7fe f987 	bl	3034 <__aeabi_dsub>
    4d26:	0002      	movs	r2, r0
    4d28:	000b      	movs	r3, r1
    4d2a:	9808      	ldr	r0, [sp, #32]
    4d2c:	9909      	ldr	r1, [sp, #36]	; 0x24
    4d2e:	f7fe fddf 	bl	38f0 <__aeabi_dcmplt>
    4d32:	2800      	cmp	r0, #0
    4d34:	d100      	bne.n	4d38 <_dtoa_r+0x618>
    4d36:	e727      	b.n	4b88 <_dtoa_r+0x468>
    4d38:	1e6b      	subs	r3, r5, #1
    4d3a:	781a      	ldrb	r2, [r3, #0]
    4d3c:	2a30      	cmp	r2, #48	; 0x30
    4d3e:	d001      	beq.n	4d44 <_dtoa_r+0x624>
    4d40:	9603      	str	r6, [sp, #12]
    4d42:	e03d      	b.n	4dc0 <_dtoa_r+0x6a0>
    4d44:	001d      	movs	r5, r3
    4d46:	e7f7      	b.n	4d38 <_dtoa_r+0x618>
    4d48:	9808      	ldr	r0, [sp, #32]
    4d4a:	9909      	ldr	r1, [sp, #36]	; 0x24
    4d4c:	4b27      	ldr	r3, [pc, #156]	; (4dec <_dtoa_r+0x6cc>)
    4d4e:	f7fd fee9 	bl	2b24 <__aeabi_dmul>
    4d52:	9008      	str	r0, [sp, #32]
    4d54:	9109      	str	r1, [sp, #36]	; 0x24
    4d56:	e7bb      	b.n	4cd0 <_dtoa_r+0x5b0>
    4d58:	9e0a      	ldr	r6, [sp, #40]	; 0x28
    4d5a:	9a06      	ldr	r2, [sp, #24]
    4d5c:	9b07      	ldr	r3, [sp, #28]
    4d5e:	9808      	ldr	r0, [sp, #32]
    4d60:	9909      	ldr	r1, [sp, #36]	; 0x24
    4d62:	f7fd fbb7 	bl	24d4 <__aeabi_ddiv>
    4d66:	f7fe fcb1 	bl	36cc <__aeabi_d2iz>
    4d6a:	0004      	movs	r4, r0
    4d6c:	f7fe fcdc 	bl	3728 <__aeabi_i2d>
    4d70:	9a06      	ldr	r2, [sp, #24]
    4d72:	9b07      	ldr	r3, [sp, #28]
    4d74:	f7fd fed6 	bl	2b24 <__aeabi_dmul>
    4d78:	000b      	movs	r3, r1
    4d7a:	0002      	movs	r2, r0
    4d7c:	9808      	ldr	r0, [sp, #32]
    4d7e:	9909      	ldr	r1, [sp, #36]	; 0x24
    4d80:	f7fe f958 	bl	3034 <__aeabi_dsub>
    4d84:	0023      	movs	r3, r4
    4d86:	3330      	adds	r3, #48	; 0x30
    4d88:	7033      	strb	r3, [r6, #0]
    4d8a:	9b0a      	ldr	r3, [sp, #40]	; 0x28
    4d8c:	1c75      	adds	r5, r6, #1
    4d8e:	1aeb      	subs	r3, r5, r3
    4d90:	429f      	cmp	r7, r3
    4d92:	d149      	bne.n	4e28 <_dtoa_r+0x708>
    4d94:	0002      	movs	r2, r0
    4d96:	000b      	movs	r3, r1
    4d98:	f000 fab4 	bl	5304 <__aeabi_dadd>
    4d9c:	0006      	movs	r6, r0
    4d9e:	000f      	movs	r7, r1
    4da0:	0002      	movs	r2, r0
    4da2:	000b      	movs	r3, r1
    4da4:	9806      	ldr	r0, [sp, #24]
    4da6:	9907      	ldr	r1, [sp, #28]
    4da8:	f7fe fda2 	bl	38f0 <__aeabi_dcmplt>
    4dac:	bb50      	cbnz	r0, 4e04 <_dtoa_r+0x6e4>
    4dae:	9806      	ldr	r0, [sp, #24]
    4db0:	9907      	ldr	r1, [sp, #28]
    4db2:	0032      	movs	r2, r6
    4db4:	003b      	movs	r3, r7
    4db6:	f7fe fd95 	bl	38e4 <__aeabi_dcmpeq>
    4dba:	b108      	cbz	r0, 4dc0 <_dtoa_r+0x6a0>
    4dbc:	07e3      	lsls	r3, r4, #31
    4dbe:	d421      	bmi.n	4e04 <_dtoa_r+0x6e4>
    4dc0:	9905      	ldr	r1, [sp, #20]
    4dc2:	9804      	ldr	r0, [sp, #16]
    4dc4:	f7ff f8f3 	bl	3fae <_Bfree>
    4dc8:	2300      	movs	r3, #0
    4dca:	702b      	strb	r3, [r5, #0]
    4dcc:	9b03      	ldr	r3, [sp, #12]
    4dce:	9a24      	ldr	r2, [sp, #144]	; 0x90
    4dd0:	3301      	adds	r3, #1
    4dd2:	6013      	str	r3, [r2, #0]
    4dd4:	9b26      	ldr	r3, [sp, #152]	; 0x98
    4dd6:	2b00      	cmp	r3, #0
    4dd8:	d100      	bne.n	4ddc <_dtoa_r+0x6bc>
    4dda:	e4ea      	b.n	47b2 <_dtoa_r+0x92>
    4ddc:	601d      	str	r5, [r3, #0]
    4dde:	e4e8      	b.n	47b2 <_dtoa_r+0x92>
    4de0:	00005ce8 	.word	0x00005ce8
    4de4:	00005cc0 	.word	0x00005cc0
    4de8:	3ff00000 	.word	0x3ff00000
    4dec:	40240000 	.word	0x40240000
    4df0:	401c0000 	.word	0x401c0000
    4df4:	fcc00000 	.word	0xfcc00000
    4df8:	40140000 	.word	0x40140000
    4dfc:	7cc00000 	.word	0x7cc00000
    4e00:	3fe00000 	.word	0x3fe00000
    4e04:	9e03      	ldr	r6, [sp, #12]
    4e06:	1e6b      	subs	r3, r5, #1
    4e08:	781a      	ldrb	r2, [r3, #0]
    4e0a:	2a39      	cmp	r2, #57	; 0x39
    4e0c:	d106      	bne.n	4e1c <_dtoa_r+0x6fc>
    4e0e:	9a0a      	ldr	r2, [sp, #40]	; 0x28
    4e10:	429a      	cmp	r2, r3
    4e12:	d107      	bne.n	4e24 <_dtoa_r+0x704>
    4e14:	2330      	movs	r3, #48	; 0x30
    4e16:	7013      	strb	r3, [r2, #0]
    4e18:	0013      	movs	r3, r2
    4e1a:	3601      	adds	r6, #1
    4e1c:	781a      	ldrb	r2, [r3, #0]
    4e1e:	3201      	adds	r2, #1
    4e20:	701a      	strb	r2, [r3, #0]
    4e22:	e78d      	b.n	4d40 <_dtoa_r+0x620>
    4e24:	001d      	movs	r5, r3
    4e26:	e7ee      	b.n	4e06 <_dtoa_r+0x6e6>
    4e28:	2200      	movs	r2, #0
    4e2a:	4bcc      	ldr	r3, [pc, #816]	; (515c <_dtoa_r+0xa3c>)
    4e2c:	f7fd fe7a 	bl	2b24 <__aeabi_dmul>
    4e30:	2200      	movs	r2, #0
    4e32:	2300      	movs	r3, #0
    4e34:	9008      	str	r0, [sp, #32]
    4e36:	9109      	str	r1, [sp, #36]	; 0x24
    4e38:	002e      	movs	r6, r5
    4e3a:	f7fe fd53 	bl	38e4 <__aeabi_dcmpeq>
    4e3e:	2800      	cmp	r0, #0
    4e40:	d08b      	beq.n	4d5a <_dtoa_r+0x63a>
    4e42:	e7bd      	b.n	4dc0 <_dtoa_r+0x6a0>
    4e44:	9a0e      	ldr	r2, [sp, #56]	; 0x38
    4e46:	2a00      	cmp	r2, #0
    4e48:	d100      	bne.n	4e4c <_dtoa_r+0x72c>
    4e4a:	e085      	b.n	4f58 <_dtoa_r+0x838>
    4e4c:	9a22      	ldr	r2, [sp, #136]	; 0x88
    4e4e:	2a01      	cmp	r2, #1
    4e50:	dc6c      	bgt.n	4f2c <_dtoa_r+0x80c>
    4e52:	9a18      	ldr	r2, [sp, #96]	; 0x60
    4e54:	2a00      	cmp	r2, #0
    4e56:	d065      	beq.n	4f24 <_dtoa_r+0x804>
    4e58:	f240 4233 	movw	r2, #1075	; 0x433
    4e5c:	189b      	adds	r3, r3, r2
    4e5e:	9d06      	ldr	r5, [sp, #24]
    4e60:	9c0b      	ldr	r4, [sp, #44]	; 0x2c
    4e62:	9a0b      	ldr	r2, [sp, #44]	; 0x2c
    4e64:	2101      	movs	r1, #1
    4e66:	18d2      	adds	r2, r2, r3
    4e68:	920b      	str	r2, [sp, #44]	; 0x2c
    4e6a:	9a0d      	ldr	r2, [sp, #52]	; 0x34
    4e6c:	9804      	ldr	r0, [sp, #16]
    4e6e:	18d3      	adds	r3, r2, r3
    4e70:	930d      	str	r3, [sp, #52]	; 0x34
    4e72:	f7ff f934 	bl	40de <__i2b>
    4e76:	0006      	movs	r6, r0
    4e78:	2c00      	cmp	r4, #0
    4e7a:	dd0e      	ble.n	4e9a <_dtoa_r+0x77a>
    4e7c:	9b0d      	ldr	r3, [sp, #52]	; 0x34
    4e7e:	2b00      	cmp	r3, #0
    4e80:	dd0b      	ble.n	4e9a <_dtoa_r+0x77a>
    4e82:	9a0d      	ldr	r2, [sp, #52]	; 0x34
    4e84:	0023      	movs	r3, r4
    4e86:	4294      	cmp	r4, r2
    4e88:	dd00      	ble.n	4e8c <_dtoa_r+0x76c>
    4e8a:	0013      	movs	r3, r2
    4e8c:	9a0b      	ldr	r2, [sp, #44]	; 0x2c
    4e8e:	1ae4      	subs	r4, r4, r3
    4e90:	1ad2      	subs	r2, r2, r3
    4e92:	920b      	str	r2, [sp, #44]	; 0x2c
    4e94:	9a0d      	ldr	r2, [sp, #52]	; 0x34
    4e96:	1ad3      	subs	r3, r2, r3
    4e98:	930d      	str	r3, [sp, #52]	; 0x34
    4e9a:	9b06      	ldr	r3, [sp, #24]
    4e9c:	b1f3      	cbz	r3, 4edc <_dtoa_r+0x7bc>
    4e9e:	9b0e      	ldr	r3, [sp, #56]	; 0x38
    4ea0:	2b00      	cmp	r3, #0
    4ea2:	d05d      	beq.n	4f60 <_dtoa_r+0x840>
    4ea4:	2d00      	cmp	r5, #0
    4ea6:	dd11      	ble.n	4ecc <_dtoa_r+0x7ac>
    4ea8:	0031      	movs	r1, r6
    4eaa:	002a      	movs	r2, r5
    4eac:	9804      	ldr	r0, [sp, #16]
    4eae:	f7ff f9ad 	bl	420c <__pow5mult>
    4eb2:	9a05      	ldr	r2, [sp, #20]
    4eb4:	0001      	movs	r1, r0
    4eb6:	0006      	movs	r6, r0
    4eb8:	9804      	ldr	r0, [sp, #16]
    4eba:	f7ff f919 	bl	40f0 <__multiply>
    4ebe:	9905      	ldr	r1, [sp, #20]
    4ec0:	9010      	str	r0, [sp, #64]	; 0x40
    4ec2:	9804      	ldr	r0, [sp, #16]
    4ec4:	f7ff f873 	bl	3fae <_Bfree>
    4ec8:	9b10      	ldr	r3, [sp, #64]	; 0x40
    4eca:	9305      	str	r3, [sp, #20]
    4ecc:	9b06      	ldr	r3, [sp, #24]
    4ece:	1b5a      	subs	r2, r3, r5
    4ed0:	b122      	cbz	r2, 4edc <_dtoa_r+0x7bc>
    4ed2:	9905      	ldr	r1, [sp, #20]
    4ed4:	9804      	ldr	r0, [sp, #16]
    4ed6:	f7ff f999 	bl	420c <__pow5mult>
    4eda:	9005      	str	r0, [sp, #20]
    4edc:	2101      	movs	r1, #1
    4ede:	9804      	ldr	r0, [sp, #16]
    4ee0:	f7ff f8fd 	bl	40de <__i2b>
    4ee4:	9b0f      	ldr	r3, [sp, #60]	; 0x3c
    4ee6:	9006      	str	r0, [sp, #24]
    4ee8:	2b00      	cmp	r3, #0
    4eea:	dd3b      	ble.n	4f64 <_dtoa_r+0x844>
    4eec:	001a      	movs	r2, r3
    4eee:	0001      	movs	r1, r0
    4ef0:	9804      	ldr	r0, [sp, #16]
    4ef2:	f7ff f98b 	bl	420c <__pow5mult>
    4ef6:	9b22      	ldr	r3, [sp, #136]	; 0x88
    4ef8:	9006      	str	r0, [sp, #24]
    4efa:	2500      	movs	r5, #0
    4efc:	2b01      	cmp	r3, #1
    4efe:	dc38      	bgt.n	4f72 <_dtoa_r+0x852>
    4f00:	9b08      	ldr	r3, [sp, #32]
    4f02:	2500      	movs	r5, #0
    4f04:	bb93      	cbnz	r3, 4f6c <_dtoa_r+0x84c>
    4f06:	9b09      	ldr	r3, [sp, #36]	; 0x24
    4f08:	031b      	lsls	r3, r3, #12
    4f0a:	bb7b      	cbnz	r3, 4f6c <_dtoa_r+0x84c>
    4f0c:	9b19      	ldr	r3, [sp, #100]	; 0x64
    4f0e:	9a09      	ldr	r2, [sp, #36]	; 0x24
    4f10:	4213      	tst	r3, r2
    4f12:	d02b      	beq.n	4f6c <_dtoa_r+0x84c>
    4f14:	9b0b      	ldr	r3, [sp, #44]	; 0x2c
    4f16:	3501      	adds	r5, #1
    4f18:	3301      	adds	r3, #1
    4f1a:	930b      	str	r3, [sp, #44]	; 0x2c
    4f1c:	9b0d      	ldr	r3, [sp, #52]	; 0x34
    4f1e:	3301      	adds	r3, #1
    4f20:	930d      	str	r3, [sp, #52]	; 0x34
    4f22:	e023      	b.n	4f6c <_dtoa_r+0x84c>
    4f24:	2336      	movs	r3, #54	; 0x36
    4f26:	9a1a      	ldr	r2, [sp, #104]	; 0x68
    4f28:	1a9b      	subs	r3, r3, r2
    4f2a:	e798      	b.n	4e5e <_dtoa_r+0x73e>
    4f2c:	9b06      	ldr	r3, [sp, #24]
    4f2e:	1e7d      	subs	r5, r7, #1
    4f30:	42ab      	cmp	r3, r5
    4f32:	db06      	blt.n	4f42 <_dtoa_r+0x822>
    4f34:	1b5d      	subs	r5, r3, r5
    4f36:	2f00      	cmp	r7, #0
    4f38:	da0b      	bge.n	4f52 <_dtoa_r+0x832>
    4f3a:	9b0b      	ldr	r3, [sp, #44]	; 0x2c
    4f3c:	1bdc      	subs	r4, r3, r7
    4f3e:	2300      	movs	r3, #0
    4f40:	e78f      	b.n	4e62 <_dtoa_r+0x742>
    4f42:	9b06      	ldr	r3, [sp, #24]
    4f44:	9506      	str	r5, [sp, #24]
    4f46:	1aea      	subs	r2, r5, r3
    4f48:	9b0f      	ldr	r3, [sp, #60]	; 0x3c
    4f4a:	2500      	movs	r5, #0
    4f4c:	189b      	adds	r3, r3, r2
    4f4e:	930f      	str	r3, [sp, #60]	; 0x3c
    4f50:	e7f1      	b.n	4f36 <_dtoa_r+0x816>
    4f52:	9c0b      	ldr	r4, [sp, #44]	; 0x2c
    4f54:	003b      	movs	r3, r7
    4f56:	e784      	b.n	4e62 <_dtoa_r+0x742>
    4f58:	9d06      	ldr	r5, [sp, #24]
    4f5a:	9c0b      	ldr	r4, [sp, #44]	; 0x2c
    4f5c:	9e0e      	ldr	r6, [sp, #56]	; 0x38
    4f5e:	e78b      	b.n	4e78 <_dtoa_r+0x758>
    4f60:	9a06      	ldr	r2, [sp, #24]
    4f62:	e7b6      	b.n	4ed2 <_dtoa_r+0x7b2>
    4f64:	9b22      	ldr	r3, [sp, #136]	; 0x88
    4f66:	2500      	movs	r5, #0
    4f68:	2b01      	cmp	r3, #1
    4f6a:	ddc9      	ble.n	4f00 <_dtoa_r+0x7e0>
    4f6c:	9b0f      	ldr	r3, [sp, #60]	; 0x3c
    4f6e:	2001      	movs	r0, #1
    4f70:	b15b      	cbz	r3, 4f8a <_dtoa_r+0x86a>
    4f72:	9b06      	ldr	r3, [sp, #24]
    4f74:	9a06      	ldr	r2, [sp, #24]
    4f76:	691b      	ldr	r3, [r3, #16]
    4f78:	930f      	str	r3, [sp, #60]	; 0x3c
    4f7a:	3303      	adds	r3, #3
    4f7c:	009b      	lsls	r3, r3, #2
    4f7e:	18d3      	adds	r3, r2, r3
    4f80:	6858      	ldr	r0, [r3, #4]
    4f82:	f7ff f866 	bl	4052 <__hi0bits>
    4f86:	2320      	movs	r3, #32
    4f88:	1a18      	subs	r0, r3, r0
    4f8a:	9b0d      	ldr	r3, [sp, #52]	; 0x34
    4f8c:	18c0      	adds	r0, r0, r3
    4f8e:	231f      	movs	r3, #31
    4f90:	4018      	ands	r0, r3
    4f92:	2800      	cmp	r0, #0
    4f94:	d100      	bne.n	4f98 <_dtoa_r+0x878>
    4f96:	e0aa      	b.n	50ee <_dtoa_r+0x9ce>
    4f98:	3301      	adds	r3, #1
    4f9a:	1a1b      	subs	r3, r3, r0
    4f9c:	2b04      	cmp	r3, #4
    4f9e:	dc00      	bgt.n	4fa2 <_dtoa_r+0x882>
    4fa0:	e09a      	b.n	50d8 <_dtoa_r+0x9b8>
    4fa2:	231c      	movs	r3, #28
    4fa4:	1a18      	subs	r0, r3, r0
    4fa6:	9b0b      	ldr	r3, [sp, #44]	; 0x2c
    4fa8:	1824      	adds	r4, r4, r0
    4faa:	181b      	adds	r3, r3, r0
    4fac:	930b      	str	r3, [sp, #44]	; 0x2c
    4fae:	9b0d      	ldr	r3, [sp, #52]	; 0x34
    4fb0:	181b      	adds	r3, r3, r0
    4fb2:	930d      	str	r3, [sp, #52]	; 0x34
    4fb4:	9b0b      	ldr	r3, [sp, #44]	; 0x2c
    4fb6:	2b00      	cmp	r3, #0
    4fb8:	dd05      	ble.n	4fc6 <_dtoa_r+0x8a6>
    4fba:	001a      	movs	r2, r3
    4fbc:	9905      	ldr	r1, [sp, #20]
    4fbe:	9804      	ldr	r0, [sp, #16]
    4fc0:	f7ff f970 	bl	42a4 <__lshift>
    4fc4:	9005      	str	r0, [sp, #20]
    4fc6:	9b0d      	ldr	r3, [sp, #52]	; 0x34
    4fc8:	2b00      	cmp	r3, #0
    4fca:	dd05      	ble.n	4fd8 <_dtoa_r+0x8b8>
    4fcc:	001a      	movs	r2, r3
    4fce:	9906      	ldr	r1, [sp, #24]
    4fd0:	9804      	ldr	r0, [sp, #16]
    4fd2:	f7ff f967 	bl	42a4 <__lshift>
    4fd6:	9006      	str	r0, [sp, #24]
    4fd8:	9b16      	ldr	r3, [sp, #88]	; 0x58
    4fda:	2b00      	cmp	r3, #0
    4fdc:	d100      	bne.n	4fe0 <_dtoa_r+0x8c0>
    4fde:	e088      	b.n	50f2 <_dtoa_r+0x9d2>
    4fe0:	9906      	ldr	r1, [sp, #24]
    4fe2:	9805      	ldr	r0, [sp, #20]
    4fe4:	f7ff f9ae 	bl	4344 <__mcmp>
    4fe8:	2800      	cmp	r0, #0
    4fea:	db00      	blt.n	4fee <_dtoa_r+0x8ce>
    4fec:	e081      	b.n	50f2 <_dtoa_r+0x9d2>
    4fee:	9b03      	ldr	r3, [sp, #12]
    4ff0:	220a      	movs	r2, #10
    4ff2:	3b01      	subs	r3, #1
    4ff4:	9303      	str	r3, [sp, #12]
    4ff6:	9905      	ldr	r1, [sp, #20]
    4ff8:	2300      	movs	r3, #0
    4ffa:	9804      	ldr	r0, [sp, #16]
    4ffc:	f7fe ffee 	bl	3fdc <__multadd>
    5000:	9b0e      	ldr	r3, [sp, #56]	; 0x38
    5002:	9005      	str	r0, [sp, #20]
    5004:	2b00      	cmp	r3, #0
    5006:	d100      	bne.n	500a <_dtoa_r+0x8ea>
    5008:	e159      	b.n	52be <_dtoa_r+0xb9e>
    500a:	2300      	movs	r3, #0
    500c:	0031      	movs	r1, r6
    500e:	220a      	movs	r2, #10
    5010:	9804      	ldr	r0, [sp, #16]
    5012:	f7fe ffe3 	bl	3fdc <__multadd>
    5016:	9b0c      	ldr	r3, [sp, #48]	; 0x30
    5018:	0006      	movs	r6, r0
    501a:	2b00      	cmp	r3, #0
    501c:	dc02      	bgt.n	5024 <_dtoa_r+0x904>
    501e:	9b22      	ldr	r3, [sp, #136]	; 0x88
    5020:	2b02      	cmp	r3, #2
    5022:	dc6c      	bgt.n	50fe <_dtoa_r+0x9de>
    5024:	2c00      	cmp	r4, #0
    5026:	dd05      	ble.n	5034 <_dtoa_r+0x914>
    5028:	0031      	movs	r1, r6
    502a:	0022      	movs	r2, r4
    502c:	9804      	ldr	r0, [sp, #16]
    502e:	f7ff f939 	bl	42a4 <__lshift>
    5032:	0006      	movs	r6, r0
    5034:	0030      	movs	r0, r6
    5036:	b18d      	cbz	r5, 505c <_dtoa_r+0x93c>
    5038:	6871      	ldr	r1, [r6, #4]
    503a:	9804      	ldr	r0, [sp, #16]
    503c:	f7fe ff83 	bl	3f46 <_Balloc>
    5040:	0031      	movs	r1, r6
    5042:	0004      	movs	r4, r0
    5044:	6933      	ldr	r3, [r6, #16]
    5046:	310c      	adds	r1, #12
    5048:	1c9a      	adds	r2, r3, #2
    504a:	0092      	lsls	r2, r2, #2
    504c:	300c      	adds	r0, #12
    504e:	f7fe ff71 	bl	3f34 <memcpy>
    5052:	2201      	movs	r2, #1
    5054:	0021      	movs	r1, r4
    5056:	9804      	ldr	r0, [sp, #16]
    5058:	f7ff f924 	bl	42a4 <__lshift>
    505c:	9f0c      	ldr	r7, [sp, #48]	; 0x30
    505e:	9b0a      	ldr	r3, [sp, #40]	; 0x28
    5060:	3f01      	subs	r7, #1
    5062:	930b      	str	r3, [sp, #44]	; 0x2c
    5064:	19db      	adds	r3, r3, r7
    5066:	0037      	movs	r7, r6
    5068:	0006      	movs	r6, r0
    506a:	930f      	str	r3, [sp, #60]	; 0x3c
    506c:	9906      	ldr	r1, [sp, #24]
    506e:	9805      	ldr	r0, [sp, #20]
    5070:	f7ff fad4 	bl	461c <quorem>
    5074:	0039      	movs	r1, r7
    5076:	900d      	str	r0, [sp, #52]	; 0x34
    5078:	0004      	movs	r4, r0
    507a:	9805      	ldr	r0, [sp, #20]
    507c:	f7ff f962 	bl	4344 <__mcmp>
    5080:	0032      	movs	r2, r6
    5082:	900e      	str	r0, [sp, #56]	; 0x38
    5084:	9906      	ldr	r1, [sp, #24]
    5086:	9804      	ldr	r0, [sp, #16]
    5088:	f7ff f975 	bl	4376 <__mdiff>
    508c:	2301      	movs	r3, #1
    508e:	930c      	str	r3, [sp, #48]	; 0x30
    5090:	68c3      	ldr	r3, [r0, #12]
    5092:	3430      	adds	r4, #48	; 0x30
    5094:	0005      	movs	r5, r0
    5096:	b923      	cbnz	r3, 50a2 <_dtoa_r+0x982>
    5098:	0001      	movs	r1, r0
    509a:	9805      	ldr	r0, [sp, #20]
    509c:	f7ff f952 	bl	4344 <__mcmp>
    50a0:	900c      	str	r0, [sp, #48]	; 0x30
    50a2:	0029      	movs	r1, r5
    50a4:	9804      	ldr	r0, [sp, #16]
    50a6:	f7fe ff82 	bl	3fae <_Bfree>
    50aa:	9b0c      	ldr	r3, [sp, #48]	; 0x30
    50ac:	9a22      	ldr	r2, [sp, #136]	; 0x88
    50ae:	4313      	orrs	r3, r2
    50b0:	2b00      	cmp	r3, #0
    50b2:	d000      	beq.n	50b6 <_dtoa_r+0x996>
    50b4:	e085      	b.n	51c2 <_dtoa_r+0xaa2>
    50b6:	9a08      	ldr	r2, [sp, #32]
    50b8:	3301      	adds	r3, #1
    50ba:	4213      	tst	r3, r2
    50bc:	d000      	beq.n	50c0 <_dtoa_r+0x9a0>
    50be:	e080      	b.n	51c2 <_dtoa_r+0xaa2>
    50c0:	2c39      	cmp	r4, #57	; 0x39
    50c2:	d100      	bne.n	50c6 <_dtoa_r+0x9a6>
    50c4:	e0a0      	b.n	5208 <_dtoa_r+0xae8>
    50c6:	9b0e      	ldr	r3, [sp, #56]	; 0x38
    50c8:	2b00      	cmp	r3, #0
    50ca:	dd01      	ble.n	50d0 <_dtoa_r+0x9b0>
    50cc:	9c0d      	ldr	r4, [sp, #52]	; 0x34
    50ce:	3431      	adds	r4, #49	; 0x31
    50d0:	9b0b      	ldr	r3, [sp, #44]	; 0x2c
    50d2:	1c5d      	adds	r5, r3, #1
    50d4:	701c      	strb	r4, [r3, #0]
    50d6:	e026      	b.n	5126 <_dtoa_r+0xa06>
    50d8:	2b04      	cmp	r3, #4
    50da:	d100      	bne.n	50de <_dtoa_r+0x9be>
    50dc:	e76a      	b.n	4fb4 <_dtoa_r+0x894>
    50de:	9a0b      	ldr	r2, [sp, #44]	; 0x2c
    50e0:	331c      	adds	r3, #28
    50e2:	18d2      	adds	r2, r2, r3
    50e4:	920b      	str	r2, [sp, #44]	; 0x2c
    50e6:	9a0d      	ldr	r2, [sp, #52]	; 0x34
    50e8:	18e4      	adds	r4, r4, r3
    50ea:	18d3      	adds	r3, r2, r3
    50ec:	e761      	b.n	4fb2 <_dtoa_r+0x892>
    50ee:	0003      	movs	r3, r0
    50f0:	e7f5      	b.n	50de <_dtoa_r+0x9be>
    50f2:	2f00      	cmp	r7, #0
    50f4:	dc38      	bgt.n	5168 <_dtoa_r+0xa48>
    50f6:	9b22      	ldr	r3, [sp, #136]	; 0x88
    50f8:	2b02      	cmp	r3, #2
    50fa:	dd35      	ble.n	5168 <_dtoa_r+0xa48>
    50fc:	970c      	str	r7, [sp, #48]	; 0x30
    50fe:	9b0c      	ldr	r3, [sp, #48]	; 0x30
    5100:	b963      	cbnz	r3, 511c <_dtoa_r+0x9fc>
    5102:	9906      	ldr	r1, [sp, #24]
    5104:	2205      	movs	r2, #5
    5106:	9804      	ldr	r0, [sp, #16]
    5108:	f7fe ff68 	bl	3fdc <__multadd>
    510c:	9006      	str	r0, [sp, #24]
    510e:	0001      	movs	r1, r0
    5110:	9805      	ldr	r0, [sp, #20]
    5112:	f7ff f917 	bl	4344 <__mcmp>
    5116:	2800      	cmp	r0, #0
    5118:	dd00      	ble.n	511c <_dtoa_r+0x9fc>
    511a:	e561      	b.n	4be0 <_dtoa_r+0x4c0>
    511c:	9b23      	ldr	r3, [sp, #140]	; 0x8c
    511e:	9d0a      	ldr	r5, [sp, #40]	; 0x28
    5120:	43db      	mvns	r3, r3
    5122:	9303      	str	r3, [sp, #12]
    5124:	2700      	movs	r7, #0
    5126:	9906      	ldr	r1, [sp, #24]
    5128:	9804      	ldr	r0, [sp, #16]
    512a:	f7fe ff40 	bl	3fae <_Bfree>
    512e:	2e00      	cmp	r6, #0
    5130:	d100      	bne.n	5134 <_dtoa_r+0xa14>
    5132:	e645      	b.n	4dc0 <_dtoa_r+0x6a0>
    5134:	b12f      	cbz	r7, 5142 <_dtoa_r+0xa22>
    5136:	42b7      	cmp	r7, r6
    5138:	d003      	beq.n	5142 <_dtoa_r+0xa22>
    513a:	0039      	movs	r1, r7
    513c:	9804      	ldr	r0, [sp, #16]
    513e:	f7fe ff36 	bl	3fae <_Bfree>
    5142:	0031      	movs	r1, r6
    5144:	9804      	ldr	r0, [sp, #16]
    5146:	f7fe ff32 	bl	3fae <_Bfree>
    514a:	e639      	b.n	4dc0 <_dtoa_r+0x6a0>
    514c:	9506      	str	r5, [sp, #24]
    514e:	002e      	movs	r6, r5
    5150:	e7e4      	b.n	511c <_dtoa_r+0x9fc>
    5152:	2300      	movs	r3, #0
    5154:	9306      	str	r3, [sp, #24]
    5156:	001e      	movs	r6, r3
    5158:	e7e0      	b.n	511c <_dtoa_r+0x9fc>
    515a:	46c0      	nop			; (mov r8, r8)
    515c:	40240000 	.word	0x40240000
    5160:	9603      	str	r6, [sp, #12]
    5162:	9506      	str	r5, [sp, #24]
    5164:	002e      	movs	r6, r5
    5166:	e53b      	b.n	4be0 <_dtoa_r+0x4c0>
    5168:	9b0e      	ldr	r3, [sp, #56]	; 0x38
    516a:	970c      	str	r7, [sp, #48]	; 0x30
    516c:	2b00      	cmp	r3, #0
    516e:	d000      	beq.n	5172 <_dtoa_r+0xa52>
    5170:	e758      	b.n	5024 <_dtoa_r+0x904>
    5172:	9d0a      	ldr	r5, [sp, #40]	; 0x28
    5174:	9906      	ldr	r1, [sp, #24]
    5176:	9805      	ldr	r0, [sp, #20]
    5178:	f7ff fa50 	bl	461c <quorem>
    517c:	9b0a      	ldr	r3, [sp, #40]	; 0x28
    517e:	3030      	adds	r0, #48	; 0x30
    5180:	9a0c      	ldr	r2, [sp, #48]	; 0x30
    5182:	7028      	strb	r0, [r5, #0]
    5184:	3501      	adds	r5, #1
    5186:	0004      	movs	r4, r0
    5188:	1aeb      	subs	r3, r5, r3
    518a:	429a      	cmp	r2, r3
    518c:	dc79      	bgt.n	5282 <_dtoa_r+0xb62>
    518e:	1e15      	subs	r5, r2, #0
    5190:	dc00      	bgt.n	5194 <_dtoa_r+0xa74>
    5192:	2501      	movs	r5, #1
    5194:	2700      	movs	r7, #0
    5196:	9b0a      	ldr	r3, [sp, #40]	; 0x28
    5198:	195d      	adds	r5, r3, r5
    519a:	9905      	ldr	r1, [sp, #20]
    519c:	2201      	movs	r2, #1
    519e:	9804      	ldr	r0, [sp, #16]
    51a0:	f7ff f880 	bl	42a4 <__lshift>
    51a4:	9906      	ldr	r1, [sp, #24]
    51a6:	9005      	str	r0, [sp, #20]
    51a8:	f7ff f8cc 	bl	4344 <__mcmp>
    51ac:	2800      	cmp	r0, #0
    51ae:	dc30      	bgt.n	5212 <_dtoa_r+0xaf2>
    51b0:	b908      	cbnz	r0, 51b6 <_dtoa_r+0xa96>
    51b2:	07e3      	lsls	r3, r4, #31
    51b4:	d42d      	bmi.n	5212 <_dtoa_r+0xaf2>
    51b6:	1e6b      	subs	r3, r5, #1
    51b8:	781a      	ldrb	r2, [r3, #0]
    51ba:	2a30      	cmp	r2, #48	; 0x30
    51bc:	d1b3      	bne.n	5126 <_dtoa_r+0xa06>
    51be:	001d      	movs	r5, r3
    51c0:	e7f9      	b.n	51b6 <_dtoa_r+0xa96>
    51c2:	9b0e      	ldr	r3, [sp, #56]	; 0x38
    51c4:	2b00      	cmp	r3, #0
    51c6:	db07      	blt.n	51d8 <_dtoa_r+0xab8>
    51c8:	001d      	movs	r5, r3
    51ca:	9b22      	ldr	r3, [sp, #136]	; 0x88
    51cc:	431d      	orrs	r5, r3
    51ce:	bb3d      	cbnz	r5, 5220 <_dtoa_r+0xb00>
    51d0:	2301      	movs	r3, #1
    51d2:	9a08      	ldr	r2, [sp, #32]
    51d4:	4213      	tst	r3, r2
    51d6:	d123      	bne.n	5220 <_dtoa_r+0xb00>
    51d8:	9b0c      	ldr	r3, [sp, #48]	; 0x30
    51da:	2b00      	cmp	r3, #0
    51dc:	dc00      	bgt.n	51e0 <_dtoa_r+0xac0>
    51de:	e777      	b.n	50d0 <_dtoa_r+0x9b0>
    51e0:	9905      	ldr	r1, [sp, #20]
    51e2:	2201      	movs	r2, #1
    51e4:	9804      	ldr	r0, [sp, #16]
    51e6:	f7ff f85d 	bl	42a4 <__lshift>
    51ea:	9906      	ldr	r1, [sp, #24]
    51ec:	9005      	str	r0, [sp, #20]
    51ee:	f7ff f8a9 	bl	4344 <__mcmp>
    51f2:	2800      	cmp	r0, #0
    51f4:	dc05      	bgt.n	5202 <_dtoa_r+0xae2>
    51f6:	2800      	cmp	r0, #0
    51f8:	d000      	beq.n	51fc <_dtoa_r+0xadc>
    51fa:	e769      	b.n	50d0 <_dtoa_r+0x9b0>
    51fc:	07e3      	lsls	r3, r4, #31
    51fe:	d400      	bmi.n	5202 <_dtoa_r+0xae2>
    5200:	e766      	b.n	50d0 <_dtoa_r+0x9b0>
    5202:	2c39      	cmp	r4, #57	; 0x39
    5204:	d000      	beq.n	5208 <_dtoa_r+0xae8>
    5206:	e761      	b.n	50cc <_dtoa_r+0x9ac>
    5208:	9b0b      	ldr	r3, [sp, #44]	; 0x2c
    520a:	9a0b      	ldr	r2, [sp, #44]	; 0x2c
    520c:	1c5d      	adds	r5, r3, #1
    520e:	2339      	movs	r3, #57	; 0x39
    5210:	7013      	strb	r3, [r2, #0]
    5212:	1e6b      	subs	r3, r5, #1
    5214:	781a      	ldrb	r2, [r3, #0]
    5216:	2a39      	cmp	r2, #57	; 0x39
    5218:	d03b      	beq.n	5292 <_dtoa_r+0xb72>
    521a:	3201      	adds	r2, #1
    521c:	701a      	strb	r2, [r3, #0]
    521e:	e782      	b.n	5126 <_dtoa_r+0xa06>
    5220:	9b0b      	ldr	r3, [sp, #44]	; 0x2c
    5222:	3301      	adds	r3, #1
    5224:	930d      	str	r3, [sp, #52]	; 0x34
    5226:	9b0c      	ldr	r3, [sp, #48]	; 0x30
    5228:	2b00      	cmp	r3, #0
    522a:	dd05      	ble.n	5238 <_dtoa_r+0xb18>
    522c:	2c39      	cmp	r4, #57	; 0x39
    522e:	d0eb      	beq.n	5208 <_dtoa_r+0xae8>
    5230:	9d0d      	ldr	r5, [sp, #52]	; 0x34
    5232:	3401      	adds	r4, #1
    5234:	9b0b      	ldr	r3, [sp, #44]	; 0x2c
    5236:	e74d      	b.n	50d4 <_dtoa_r+0x9b4>
    5238:	9b0b      	ldr	r3, [sp, #44]	; 0x2c
    523a:	9a0f      	ldr	r2, [sp, #60]	; 0x3c
    523c:	9d0d      	ldr	r5, [sp, #52]	; 0x34
    523e:	701c      	strb	r4, [r3, #0]
    5240:	4293      	cmp	r3, r2
    5242:	d0aa      	beq.n	519a <_dtoa_r+0xa7a>
    5244:	2300      	movs	r3, #0
    5246:	220a      	movs	r2, #10
    5248:	9905      	ldr	r1, [sp, #20]
    524a:	9804      	ldr	r0, [sp, #16]
    524c:	f7fe fec6 	bl	3fdc <__multadd>
    5250:	2300      	movs	r3, #0
    5252:	9005      	str	r0, [sp, #20]
    5254:	220a      	movs	r2, #10
    5256:	0039      	movs	r1, r7
    5258:	9804      	ldr	r0, [sp, #16]
    525a:	42b7      	cmp	r7, r6
    525c:	d106      	bne.n	526c <_dtoa_r+0xb4c>
    525e:	f7fe febd 	bl	3fdc <__multadd>
    5262:	0007      	movs	r7, r0
    5264:	0006      	movs	r6, r0
    5266:	9b0d      	ldr	r3, [sp, #52]	; 0x34
    5268:	930b      	str	r3, [sp, #44]	; 0x2c
    526a:	e6ff      	b.n	506c <_dtoa_r+0x94c>
    526c:	f7fe feb6 	bl	3fdc <__multadd>
    5270:	0031      	movs	r1, r6
    5272:	0007      	movs	r7, r0
    5274:	2300      	movs	r3, #0
    5276:	220a      	movs	r2, #10
    5278:	9804      	ldr	r0, [sp, #16]
    527a:	f7fe feaf 	bl	3fdc <__multadd>
    527e:	0006      	movs	r6, r0
    5280:	e7f1      	b.n	5266 <_dtoa_r+0xb46>
    5282:	2300      	movs	r3, #0
    5284:	220a      	movs	r2, #10
    5286:	9905      	ldr	r1, [sp, #20]
    5288:	9804      	ldr	r0, [sp, #16]
    528a:	f7fe fea7 	bl	3fdc <__multadd>
    528e:	9005      	str	r0, [sp, #20]
    5290:	e770      	b.n	5174 <_dtoa_r+0xa54>
    5292:	9a0a      	ldr	r2, [sp, #40]	; 0x28
    5294:	429a      	cmp	r2, r3
    5296:	d105      	bne.n	52a4 <_dtoa_r+0xb84>
    5298:	9b03      	ldr	r3, [sp, #12]
    529a:	3301      	adds	r3, #1
    529c:	9303      	str	r3, [sp, #12]
    529e:	2331      	movs	r3, #49	; 0x31
    52a0:	7013      	strb	r3, [r2, #0]
    52a2:	e740      	b.n	5126 <_dtoa_r+0xa06>
    52a4:	001d      	movs	r5, r3
    52a6:	e7b4      	b.n	5212 <_dtoa_r+0xaf2>
    52a8:	4b09      	ldr	r3, [pc, #36]	; (52d0 <_dtoa_r+0xbb0>)
    52aa:	f7ff fa9f 	bl	47ec <_dtoa_r+0xcc>
    52ae:	9b26      	ldr	r3, [sp, #152]	; 0x98
    52b0:	2b00      	cmp	r3, #0
    52b2:	d001      	beq.n	52b8 <_dtoa_r+0xb98>
    52b4:	f7ff fa78 	bl	47a8 <_dtoa_r+0x88>
    52b8:	4b06      	ldr	r3, [pc, #24]	; (52d4 <_dtoa_r+0xbb4>)
    52ba:	f7ff fa97 	bl	47ec <_dtoa_r+0xcc>
    52be:	9b0c      	ldr	r3, [sp, #48]	; 0x30
    52c0:	2b00      	cmp	r3, #0
    52c2:	dd00      	ble.n	52c6 <_dtoa_r+0xba6>
    52c4:	e755      	b.n	5172 <_dtoa_r+0xa52>
    52c6:	9b22      	ldr	r3, [sp, #136]	; 0x88
    52c8:	2b02      	cmp	r3, #2
    52ca:	dc00      	bgt.n	52ce <_dtoa_r+0xbae>
    52cc:	e751      	b.n	5172 <_dtoa_r+0xa52>
    52ce:	e716      	b.n	50fe <_dtoa_r+0x9de>
    52d0:	00005dc9 	.word	0x00005dc9
    52d4:	00005dbc 	.word	0x00005dbc

000052d8 <malloc>:
    52d8:	b510      	push	{r4, lr}
    52da:	4b03      	ldr	r3, [pc, #12]	; (52e8 <malloc+0x10>)
    52dc:	0001      	movs	r1, r0
    52de:	6818      	ldr	r0, [r3, #0]
    52e0:	f7ff f926 	bl	4530 <_malloc_r>
    52e4:	bd10      	pop	{r4, pc}
    52e6:	46c0      	nop			; (mov r8, r8)
    52e8:	20000004 	.word	0x20000004

000052ec <__malloc_lock>:
    52ec:	4770      	bx	lr

000052ee <__malloc_unlock>:
    52ee:	4770      	bx	lr

000052f0 <__gnu_thumb1_case_uqi>:
    52f0:	b402      	push	{r1}
    52f2:	4671      	mov	r1, lr
    52f4:	0849      	lsrs	r1, r1, #1
    52f6:	0049      	lsls	r1, r1, #1
    52f8:	5c09      	ldrb	r1, [r1, r0]
    52fa:	0049      	lsls	r1, r1, #1
    52fc:	448e      	add	lr, r1
    52fe:	bc02      	pop	{r1}
    5300:	4770      	bx	lr
    5302:	46c0      	nop			; (mov r8, r8)

00005304 <__aeabi_dadd>:
    5304:	b5f8      	push	{r3, r4, r5, r6, r7, lr}
    5306:	4657      	mov	r7, sl
    5308:	4645      	mov	r5, r8
    530a:	46de      	mov	lr, fp
    530c:	464e      	mov	r6, r9
    530e:	030c      	lsls	r4, r1, #12
    5310:	b5e0      	push	{r5, r6, r7, lr}
    5312:	004d      	lsls	r5, r1, #1
    5314:	0fcf      	lsrs	r7, r1, #31
    5316:	0a61      	lsrs	r1, r4, #9
    5318:	0f44      	lsrs	r4, r0, #29
    531a:	430c      	orrs	r4, r1
    531c:	00c6      	lsls	r6, r0, #3
    531e:	0319      	lsls	r1, r3, #12
    5320:	0058      	lsls	r0, r3, #1
    5322:	0fdb      	lsrs	r3, r3, #31
    5324:	469b      	mov	fp, r3
    5326:	0a4b      	lsrs	r3, r1, #9
    5328:	0f51      	lsrs	r1, r2, #29
    532a:	430b      	orrs	r3, r1
    532c:	0d6d      	lsrs	r5, r5, #21
    532e:	0019      	movs	r1, r3
    5330:	00d3      	lsls	r3, r2, #3
    5332:	46a8      	mov	r8, r5
    5334:	0d40      	lsrs	r0, r0, #21
    5336:	003d      	movs	r5, r7
    5338:	469a      	mov	sl, r3
    533a:	455f      	cmp	r7, fp
    533c:	d100      	bne.n	5340 <__aeabi_dadd+0x3c>
    533e:	e0b7      	b.n	54b0 <__aeabi_dadd+0x1ac>
    5340:	4645      	mov	r5, r8
    5342:	1a2d      	subs	r5, r5, r0
    5344:	2d00      	cmp	r5, #0
    5346:	dc00      	bgt.n	534a <__aeabi_dadd+0x46>
    5348:	e109      	b.n	555e <__aeabi_dadd+0x25a>
    534a:	b998      	cbnz	r0, 5374 <__aeabi_dadd+0x70>
    534c:	000b      	movs	r3, r1
    534e:	4652      	mov	r2, sl
    5350:	4313      	orrs	r3, r2
    5352:	2b00      	cmp	r3, #0
    5354:	d100      	bne.n	5358 <__aeabi_dadd+0x54>
    5356:	e0e8      	b.n	552a <__aeabi_dadd+0x226>
    5358:	1e6b      	subs	r3, r5, #1
    535a:	2b00      	cmp	r3, #0
    535c:	d000      	beq.n	5360 <__aeabi_dadd+0x5c>
    535e:	e159      	b.n	5614 <__aeabi_dadd+0x310>
    5360:	1ab2      	subs	r2, r6, r2
    5362:	4296      	cmp	r6, r2
    5364:	41b6      	sbcs	r6, r6
    5366:	1a64      	subs	r4, r4, r1
    5368:	4276      	negs	r6, r6
    536a:	1ba4      	subs	r4, r4, r6
    536c:	f240 0801 	movw	r8, #1
    5370:	0016      	movs	r6, r2
    5372:	e021      	b.n	53b8 <__aeabi_dadd+0xb4>
    5374:	f240 73ff 	movw	r3, #2047	; 0x7ff
    5378:	4598      	cmp	r8, r3
    537a:	d04b      	beq.n	5414 <__aeabi_dadd+0x110>
    537c:	2380      	movs	r3, #128	; 0x80
    537e:	041b      	lsls	r3, r3, #16
    5380:	4319      	orrs	r1, r3
    5382:	2d38      	cmp	r5, #56	; 0x38
    5384:	dd00      	ble.n	5388 <__aeabi_dadd+0x84>
    5386:	e123      	b.n	55d0 <__aeabi_dadd+0x2cc>
    5388:	2d1f      	cmp	r5, #31
    538a:	dd00      	ble.n	538e <__aeabi_dadd+0x8a>
    538c:	e15a      	b.n	5644 <__aeabi_dadd+0x340>
    538e:	2020      	movs	r0, #32
    5390:	000b      	movs	r3, r1
    5392:	1b40      	subs	r0, r0, r5
    5394:	4083      	lsls	r3, r0
    5396:	001a      	movs	r2, r3
    5398:	4653      	mov	r3, sl
    539a:	40eb      	lsrs	r3, r5
    539c:	4313      	orrs	r3, r2
    539e:	4652      	mov	r2, sl
    53a0:	4082      	lsls	r2, r0
    53a2:	1e50      	subs	r0, r2, #1
    53a4:	4182      	sbcs	r2, r0
    53a6:	40e9      	lsrs	r1, r5
    53a8:	431a      	orrs	r2, r3
    53aa:	1ab2      	subs	r2, r6, r2
    53ac:	1a61      	subs	r1, r4, r1
    53ae:	4296      	cmp	r6, r2
    53b0:	41a4      	sbcs	r4, r4
    53b2:	0016      	movs	r6, r2
    53b4:	4264      	negs	r4, r4
    53b6:	1b0c      	subs	r4, r1, r4
    53b8:	0223      	lsls	r3, r4, #8
    53ba:	d569      	bpl.n	5490 <__aeabi_dadd+0x18c>
    53bc:	0264      	lsls	r4, r4, #9
    53be:	0a65      	lsrs	r5, r4, #9
    53c0:	2d00      	cmp	r5, #0
    53c2:	d100      	bne.n	53c6 <__aeabi_dadd+0xc2>
    53c4:	e0ea      	b.n	559c <__aeabi_dadd+0x298>
    53c6:	0028      	movs	r0, r5
    53c8:	f7fe faba 	bl	3940 <__clzsi2>
    53cc:	0003      	movs	r3, r0
    53ce:	3b08      	subs	r3, #8
    53d0:	2b1f      	cmp	r3, #31
    53d2:	dd00      	ble.n	53d6 <__aeabi_dadd+0xd2>
    53d4:	e0eb      	b.n	55ae <__aeabi_dadd+0x2aa>
    53d6:	2220      	movs	r2, #32
    53d8:	0034      	movs	r4, r6
    53da:	1ad2      	subs	r2, r2, r3
    53dc:	40d4      	lsrs	r4, r2
    53de:	409d      	lsls	r5, r3
    53e0:	409e      	lsls	r6, r3
    53e2:	4325      	orrs	r5, r4
    53e4:	4642      	mov	r2, r8
    53e6:	4598      	cmp	r8, r3
    53e8:	dd00      	ble.n	53ec <__aeabi_dadd+0xe8>
    53ea:	e0e8      	b.n	55be <__aeabi_dadd+0x2ba>
    53ec:	1a9b      	subs	r3, r3, r2
    53ee:	1c5a      	adds	r2, r3, #1
    53f0:	2a1f      	cmp	r2, #31
    53f2:	dd00      	ble.n	53f6 <__aeabi_dadd+0xf2>
    53f4:	e115      	b.n	5622 <__aeabi_dadd+0x31e>
    53f6:	2320      	movs	r3, #32
    53f8:	0030      	movs	r0, r6
    53fa:	0029      	movs	r1, r5
    53fc:	1a9b      	subs	r3, r3, r2
    53fe:	40d0      	lsrs	r0, r2
    5400:	4099      	lsls	r1, r3
    5402:	409e      	lsls	r6, r3
    5404:	002c      	movs	r4, r5
    5406:	4301      	orrs	r1, r0
    5408:	1e70      	subs	r0, r6, #1
    540a:	4186      	sbcs	r6, r0
    540c:	40d4      	lsrs	r4, r2
    540e:	f240 0800 	movw	r8, #0
    5412:	430e      	orrs	r6, r1
    5414:	0773      	lsls	r3, r6, #29
    5416:	d009      	beq.n	542c <__aeabi_dadd+0x128>
    5418:	230f      	movs	r3, #15
    541a:	4033      	ands	r3, r6
    541c:	2b04      	cmp	r3, #4
    541e:	d005      	beq.n	542c <__aeabi_dadd+0x128>
    5420:	1d33      	adds	r3, r6, #4
    5422:	42b3      	cmp	r3, r6
    5424:	41b6      	sbcs	r6, r6
    5426:	4276      	negs	r6, r6
    5428:	19a4      	adds	r4, r4, r6
    542a:	001e      	movs	r6, r3
    542c:	0223      	lsls	r3, r4, #8
    542e:	d531      	bpl.n	5494 <__aeabi_dadd+0x190>
    5430:	4643      	mov	r3, r8
    5432:	f240 72ff 	movw	r2, #2047	; 0x7ff
    5436:	3301      	adds	r3, #1
    5438:	4293      	cmp	r3, r2
    543a:	d100      	bne.n	543e <__aeabi_dadd+0x13a>
    543c:	e0c4      	b.n	55c8 <__aeabi_dadd+0x2c4>
    543e:	003d      	movs	r5, r7
    5440:	49ce      	ldr	r1, [pc, #824]	; (577c <__aeabi_dadd+0x478>)
    5442:	08f6      	lsrs	r6, r6, #3
    5444:	400c      	ands	r4, r1
    5446:	0760      	lsls	r0, r4, #29
    5448:	0264      	lsls	r4, r4, #9
    544a:	4306      	orrs	r6, r0
    544c:	0b24      	lsrs	r4, r4, #12
    544e:	401a      	ands	r2, r3
    5450:	2100      	movs	r1, #0
    5452:	0324      	lsls	r4, r4, #12
    5454:	0b23      	lsrs	r3, r4, #12
    5456:	0d0c      	lsrs	r4, r1, #20
    5458:	0524      	lsls	r4, r4, #20
    545a:	431c      	orrs	r4, r3
    545c:	0513      	lsls	r3, r2, #20
    545e:	f64f 72ff 	movw	r2, #65535	; 0xffff
    5462:	f2c8 020f 	movt	r2, #32783	; 0x800f
    5466:	4014      	ands	r4, r2
    5468:	4323      	orrs	r3, r4
    546a:	005b      	lsls	r3, r3, #1
    546c:	07ed      	lsls	r5, r5, #31
    546e:	085b      	lsrs	r3, r3, #1
    5470:	432b      	orrs	r3, r5
    5472:	0030      	movs	r0, r6
    5474:	0019      	movs	r1, r3
    5476:	bc3c      	pop	{r2, r3, r4, r5}
    5478:	4690      	mov	r8, r2
    547a:	4699      	mov	r9, r3
    547c:	46a2      	mov	sl, r4
    547e:	46ab      	mov	fp, r5
    5480:	bdf8      	pop	{r3, r4, r5, r6, r7, pc}
    5482:	4664      	mov	r4, ip
    5484:	4304      	orrs	r4, r0
    5486:	2c00      	cmp	r4, #0
    5488:	d100      	bne.n	548c <__aeabi_dadd+0x188>
    548a:	e254      	b.n	5936 <__aeabi_dadd+0x632>
    548c:	0004      	movs	r4, r0
    548e:	4666      	mov	r6, ip
    5490:	0773      	lsls	r3, r6, #29
    5492:	d1c1      	bne.n	5418 <__aeabi_dadd+0x114>
    5494:	003d      	movs	r5, r7
    5496:	0760      	lsls	r0, r4, #29
    5498:	08f6      	lsrs	r6, r6, #3
    549a:	4306      	orrs	r6, r0
    549c:	08e4      	lsrs	r4, r4, #3
    549e:	f240 72ff 	movw	r2, #2047	; 0x7ff
    54a2:	4590      	cmp	r8, r2
    54a4:	d034      	beq.n	5510 <__aeabi_dadd+0x20c>
    54a6:	4643      	mov	r3, r8
    54a8:	0324      	lsls	r4, r4, #12
    54aa:	0b24      	lsrs	r4, r4, #12
    54ac:	401a      	ands	r2, r3
    54ae:	e7cf      	b.n	5450 <__aeabi_dadd+0x14c>
    54b0:	4643      	mov	r3, r8
    54b2:	1a1b      	subs	r3, r3, r0
    54b4:	2b00      	cmp	r3, #0
    54b6:	dc00      	bgt.n	54ba <__aeabi_dadd+0x1b6>
    54b8:	e090      	b.n	55dc <__aeabi_dadd+0x2d8>
    54ba:	b3c0      	cbz	r0, 552e <__aeabi_dadd+0x22a>
    54bc:	f240 70ff 	movw	r0, #2047	; 0x7ff
    54c0:	4580      	cmp	r8, r0
    54c2:	d0a7      	beq.n	5414 <__aeabi_dadd+0x110>
    54c4:	2080      	movs	r0, #128	; 0x80
    54c6:	0400      	lsls	r0, r0, #16
    54c8:	4301      	orrs	r1, r0
    54ca:	2b38      	cmp	r3, #56	; 0x38
    54cc:	dc00      	bgt.n	54d0 <__aeabi_dadd+0x1cc>
    54ce:	e100      	b.n	56d2 <__aeabi_dadd+0x3ce>
    54d0:	4652      	mov	r2, sl
    54d2:	430a      	orrs	r2, r1
    54d4:	1e51      	subs	r1, r2, #1
    54d6:	418a      	sbcs	r2, r1
    54d8:	2100      	movs	r1, #0
    54da:	1992      	adds	r2, r2, r6
    54dc:	42b2      	cmp	r2, r6
    54de:	41b6      	sbcs	r6, r6
    54e0:	1909      	adds	r1, r1, r4
    54e2:	4274      	negs	r4, r6
    54e4:	0016      	movs	r6, r2
    54e6:	190c      	adds	r4, r1, r4
    54e8:	0223      	lsls	r3, r4, #8
    54ea:	d5d1      	bpl.n	5490 <__aeabi_dadd+0x18c>
    54ec:	f240 0c01 	movw	ip, #1
    54f0:	f240 73ff 	movw	r3, #2047	; 0x7ff
    54f4:	44e0      	add	r8, ip
    54f6:	4598      	cmp	r8, r3
    54f8:	d100      	bne.n	54fc <__aeabi_dadd+0x1f8>
    54fa:	e154      	b.n	57a6 <__aeabi_dadd+0x4a2>
    54fc:	2001      	movs	r0, #1
    54fe:	4b9f      	ldr	r3, [pc, #636]	; (577c <__aeabi_dadd+0x478>)
    5500:	401c      	ands	r4, r3
    5502:	0873      	lsrs	r3, r6, #1
    5504:	4006      	ands	r6, r0
    5506:	431e      	orrs	r6, r3
    5508:	07e0      	lsls	r0, r4, #31
    550a:	4306      	orrs	r6, r0
    550c:	0864      	lsrs	r4, r4, #1
    550e:	e781      	b.n	5414 <__aeabi_dadd+0x110>
    5510:	0023      	movs	r3, r4
    5512:	4333      	orrs	r3, r6
    5514:	2b00      	cmp	r3, #0
    5516:	d100      	bne.n	551a <__aeabi_dadd+0x216>
    5518:	e206      	b.n	5928 <__aeabi_dadd+0x624>
    551a:	2380      	movs	r3, #128	; 0x80
    551c:	031b      	lsls	r3, r3, #12
    551e:	431c      	orrs	r4, r3
    5520:	0324      	lsls	r4, r4, #12
    5522:	0b24      	lsrs	r4, r4, #12
    5524:	f240 72ff 	movw	r2, #2047	; 0x7ff
    5528:	e792      	b.n	5450 <__aeabi_dadd+0x14c>
    552a:	46a8      	mov	r8, r5
    552c:	e772      	b.n	5414 <__aeabi_dadd+0x110>
    552e:	0008      	movs	r0, r1
    5530:	4652      	mov	r2, sl
    5532:	4310      	orrs	r0, r2
    5534:	2800      	cmp	r0, #0
    5536:	d100      	bne.n	553a <__aeabi_dadd+0x236>
    5538:	e0c9      	b.n	56ce <__aeabi_dadd+0x3ca>
    553a:	1e58      	subs	r0, r3, #1
    553c:	2800      	cmp	r0, #0
    553e:	d000      	beq.n	5542 <__aeabi_dadd+0x23e>
    5540:	e0ee      	b.n	5720 <__aeabi_dadd+0x41c>
    5542:	18b2      	adds	r2, r6, r2
    5544:	42b2      	cmp	r2, r6
    5546:	419b      	sbcs	r3, r3
    5548:	1864      	adds	r4, r4, r1
    554a:	425b      	negs	r3, r3
    554c:	18e4      	adds	r4, r4, r3
    554e:	0016      	movs	r6, r2
    5550:	f240 0801 	movw	r8, #1
    5554:	0223      	lsls	r3, r4, #8
    5556:	d59b      	bpl.n	5490 <__aeabi_dadd+0x18c>
    5558:	f240 0802 	movw	r8, #2
    555c:	e7ce      	b.n	54fc <__aeabi_dadd+0x1f8>
    555e:	2d00      	cmp	r5, #0
    5560:	d000      	beq.n	5564 <__aeabi_dadd+0x260>
    5562:	e080      	b.n	5666 <__aeabi_dadd+0x362>
    5564:	4640      	mov	r0, r8
    5566:	1c45      	adds	r5, r0, #1
    5568:	f240 70ff 	movw	r0, #2047	; 0x7ff
    556c:	4028      	ands	r0, r5
    556e:	2801      	cmp	r0, #1
    5570:	dc00      	bgt.n	5574 <__aeabi_dadd+0x270>
    5572:	e105      	b.n	5780 <__aeabi_dadd+0x47c>
    5574:	1af0      	subs	r0, r6, r3
    5576:	4684      	mov	ip, r0
    5578:	4286      	cmp	r6, r0
    557a:	4180      	sbcs	r0, r0
    557c:	1a65      	subs	r5, r4, r1
    557e:	4240      	negs	r0, r0
    5580:	1a2d      	subs	r5, r5, r0
    5582:	022a      	lsls	r2, r5, #8
    5584:	d400      	bmi.n	5588 <__aeabi_dadd+0x284>
    5586:	e097      	b.n	56b8 <__aeabi_dadd+0x3b4>
    5588:	1b9e      	subs	r6, r3, r6
    558a:	45b2      	cmp	sl, r6
    558c:	4192      	sbcs	r2, r2
    558e:	1b0c      	subs	r4, r1, r4
    5590:	4252      	negs	r2, r2
    5592:	1aa5      	subs	r5, r4, r2
    5594:	465f      	mov	r7, fp
    5596:	2d00      	cmp	r5, #0
    5598:	d000      	beq.n	559c <__aeabi_dadd+0x298>
    559a:	e714      	b.n	53c6 <__aeabi_dadd+0xc2>
    559c:	0030      	movs	r0, r6
    559e:	f7fe f9cf 	bl	3940 <__clzsi2>
    55a2:	3020      	adds	r0, #32
    55a4:	0003      	movs	r3, r0
    55a6:	3b08      	subs	r3, #8
    55a8:	2b1f      	cmp	r3, #31
    55aa:	dc00      	bgt.n	55ae <__aeabi_dadd+0x2aa>
    55ac:	e713      	b.n	53d6 <__aeabi_dadd+0xd2>
    55ae:	0035      	movs	r5, r6
    55b0:	3828      	subs	r0, #40	; 0x28
    55b2:	4085      	lsls	r5, r0
    55b4:	2600      	movs	r6, #0
    55b6:	4642      	mov	r2, r8
    55b8:	4598      	cmp	r8, r3
    55ba:	dc00      	bgt.n	55be <__aeabi_dadd+0x2ba>
    55bc:	e716      	b.n	53ec <__aeabi_dadd+0xe8>
    55be:	4c6f      	ldr	r4, [pc, #444]	; (577c <__aeabi_dadd+0x478>)
    55c0:	1ad3      	subs	r3, r2, r3
    55c2:	4698      	mov	r8, r3
    55c4:	402c      	ands	r4, r5
    55c6:	e725      	b.n	5414 <__aeabi_dadd+0x110>
    55c8:	003d      	movs	r5, r7
    55ca:	2400      	movs	r4, #0
    55cc:	2600      	movs	r6, #0
    55ce:	e73f      	b.n	5450 <__aeabi_dadd+0x14c>
    55d0:	4652      	mov	r2, sl
    55d2:	430a      	orrs	r2, r1
    55d4:	1e51      	subs	r1, r2, #1
    55d6:	418a      	sbcs	r2, r1
    55d8:	2100      	movs	r1, #0
    55da:	e6e6      	b.n	53aa <__aeabi_dadd+0xa6>
    55dc:	2b00      	cmp	r3, #0
    55de:	d000      	beq.n	55e2 <__aeabi_dadd+0x2de>
    55e0:	e0f8      	b.n	57d4 <__aeabi_dadd+0x4d0>
    55e2:	f240 70ff 	movw	r0, #2047	; 0x7ff
    55e6:	4643      	mov	r3, r8
    55e8:	0002      	movs	r2, r0
    55ea:	3301      	adds	r3, #1
    55ec:	401a      	ands	r2, r3
    55ee:	2a01      	cmp	r2, #1
    55f0:	dc00      	bgt.n	55f4 <__aeabi_dadd+0x2f0>
    55f2:	e0a4      	b.n	573e <__aeabi_dadd+0x43a>
    55f4:	4283      	cmp	r3, r0
    55f6:	d100      	bne.n	55fa <__aeabi_dadd+0x2f6>
    55f8:	e0d3      	b.n	57a2 <__aeabi_dadd+0x49e>
    55fa:	4652      	mov	r2, sl
    55fc:	18b2      	adds	r2, r6, r2
    55fe:	42b2      	cmp	r2, r6
    5600:	41b6      	sbcs	r6, r6
    5602:	1864      	adds	r4, r4, r1
    5604:	4276      	negs	r6, r6
    5606:	19a4      	adds	r4, r4, r6
    5608:	07e6      	lsls	r6, r4, #31
    560a:	0852      	lsrs	r2, r2, #1
    560c:	4316      	orrs	r6, r2
    560e:	0864      	lsrs	r4, r4, #1
    5610:	4698      	mov	r8, r3
    5612:	e6ff      	b.n	5414 <__aeabi_dadd+0x110>
    5614:	f240 70ff 	movw	r0, #2047	; 0x7ff
    5618:	4285      	cmp	r5, r0
    561a:	d100      	bne.n	561e <__aeabi_dadd+0x31a>
    561c:	e088      	b.n	5730 <__aeabi_dadd+0x42c>
    561e:	001d      	movs	r5, r3
    5620:	e6af      	b.n	5382 <__aeabi_dadd+0x7e>
    5622:	0029      	movs	r1, r5
    5624:	3b1f      	subs	r3, #31
    5626:	40d9      	lsrs	r1, r3
    5628:	2a20      	cmp	r2, #32
    562a:	d100      	bne.n	562e <__aeabi_dadd+0x32a>
    562c:	e083      	b.n	5736 <__aeabi_dadd+0x432>
    562e:	2340      	movs	r3, #64	; 0x40
    5630:	1a9a      	subs	r2, r3, r2
    5632:	4095      	lsls	r5, r2
    5634:	432e      	orrs	r6, r5
    5636:	1e75      	subs	r5, r6, #1
    5638:	41ae      	sbcs	r6, r5
    563a:	2400      	movs	r4, #0
    563c:	430e      	orrs	r6, r1
    563e:	f240 0800 	movw	r8, #0
    5642:	e725      	b.n	5490 <__aeabi_dadd+0x18c>
    5644:	002b      	movs	r3, r5
    5646:	0008      	movs	r0, r1
    5648:	3b20      	subs	r3, #32
    564a:	40d8      	lsrs	r0, r3
    564c:	0003      	movs	r3, r0
    564e:	2d20      	cmp	r5, #32
    5650:	d073      	beq.n	573a <__aeabi_dadd+0x436>
    5652:	2040      	movs	r0, #64	; 0x40
    5654:	1b45      	subs	r5, r0, r5
    5656:	40a9      	lsls	r1, r5
    5658:	4652      	mov	r2, sl
    565a:	430a      	orrs	r2, r1
    565c:	1e51      	subs	r1, r2, #1
    565e:	418a      	sbcs	r2, r1
    5660:	2100      	movs	r1, #0
    5662:	431a      	orrs	r2, r3
    5664:	e6a1      	b.n	53aa <__aeabi_dadd+0xa6>
    5666:	4642      	mov	r2, r8
    5668:	2a00      	cmp	r2, #0
    566a:	d047      	beq.n	56fc <__aeabi_dadd+0x3f8>
    566c:	f240 77ff 	movw	r7, #2047	; 0x7ff
    5670:	42b8      	cmp	r0, r7
    5672:	d04f      	beq.n	5714 <__aeabi_dadd+0x410>
    5674:	2780      	movs	r7, #128	; 0x80
    5676:	043f      	lsls	r7, r7, #16
    5678:	426d      	negs	r5, r5
    567a:	433c      	orrs	r4, r7
    567c:	2d38      	cmp	r5, #56	; 0x38
    567e:	dd00      	ble.n	5682 <__aeabi_dadd+0x37e>
    5680:	e0ee      	b.n	5860 <__aeabi_dadd+0x55c>
    5682:	2d1f      	cmp	r5, #31
    5684:	dd00      	ble.n	5688 <__aeabi_dadd+0x384>
    5686:	e159      	b.n	593c <__aeabi_dadd+0x638>
    5688:	2720      	movs	r7, #32
    568a:	1b7a      	subs	r2, r7, r5
    568c:	0027      	movs	r7, r4
    568e:	4694      	mov	ip, r2
    5690:	4097      	lsls	r7, r2
    5692:	0032      	movs	r2, r6
    5694:	40ea      	lsrs	r2, r5
    5696:	4317      	orrs	r7, r2
    5698:	4662      	mov	r2, ip
    569a:	4096      	lsls	r6, r2
    569c:	1e72      	subs	r2, r6, #1
    569e:	4196      	sbcs	r6, r2
    56a0:	40ec      	lsrs	r4, r5
    56a2:	433e      	orrs	r6, r7
    56a4:	4653      	mov	r3, sl
    56a6:	1b9e      	subs	r6, r3, r6
    56a8:	45b2      	cmp	sl, r6
    56aa:	4192      	sbcs	r2, r2
    56ac:	1b0c      	subs	r4, r1, r4
    56ae:	4252      	negs	r2, r2
    56b0:	1aa4      	subs	r4, r4, r2
    56b2:	4680      	mov	r8, r0
    56b4:	465f      	mov	r7, fp
    56b6:	e67f      	b.n	53b8 <__aeabi_dadd+0xb4>
    56b8:	4664      	mov	r4, ip
    56ba:	432c      	orrs	r4, r5
    56bc:	4666      	mov	r6, ip
    56be:	2c00      	cmp	r4, #0
    56c0:	d000      	beq.n	56c4 <__aeabi_dadd+0x3c0>
    56c2:	e67d      	b.n	53c0 <__aeabi_dadd+0xbc>
    56c4:	2500      	movs	r5, #0
    56c6:	f240 0800 	movw	r8, #0
    56ca:	2600      	movs	r6, #0
    56cc:	e6e7      	b.n	549e <__aeabi_dadd+0x19a>
    56ce:	4698      	mov	r8, r3
    56d0:	e6a0      	b.n	5414 <__aeabi_dadd+0x110>
    56d2:	2b1f      	cmp	r3, #31
    56d4:	dc6a      	bgt.n	57ac <__aeabi_dadd+0x4a8>
    56d6:	2020      	movs	r0, #32
    56d8:	1ac2      	subs	r2, r0, r3
    56da:	0008      	movs	r0, r1
    56dc:	4694      	mov	ip, r2
    56de:	4090      	lsls	r0, r2
    56e0:	4652      	mov	r2, sl
    56e2:	40da      	lsrs	r2, r3
    56e4:	4310      	orrs	r0, r2
    56e6:	4681      	mov	r9, r0
    56e8:	4662      	mov	r2, ip
    56ea:	4650      	mov	r0, sl
    56ec:	4090      	lsls	r0, r2
    56ee:	0002      	movs	r2, r0
    56f0:	1e50      	subs	r0, r2, #1
    56f2:	4182      	sbcs	r2, r0
    56f4:	4648      	mov	r0, r9
    56f6:	40d9      	lsrs	r1, r3
    56f8:	4302      	orrs	r2, r0
    56fa:	e6ee      	b.n	54da <__aeabi_dadd+0x1d6>
    56fc:	0027      	movs	r7, r4
    56fe:	4337      	orrs	r7, r6
    5700:	2f00      	cmp	r7, #0
    5702:	d100      	bne.n	5706 <__aeabi_dadd+0x402>
    5704:	e0a7      	b.n	5856 <__aeabi_dadd+0x552>
    5706:	43ed      	mvns	r5, r5
    5708:	2d00      	cmp	r5, #0
    570a:	d0cb      	beq.n	56a4 <__aeabi_dadd+0x3a0>
    570c:	f240 77ff 	movw	r7, #2047	; 0x7ff
    5710:	42b8      	cmp	r0, r7
    5712:	d1b3      	bne.n	567c <__aeabi_dadd+0x378>
    5714:	000c      	movs	r4, r1
    5716:	4656      	mov	r6, sl
    5718:	f240 78ff 	movw	r8, #2047	; 0x7ff
    571c:	465f      	mov	r7, fp
    571e:	e679      	b.n	5414 <__aeabi_dadd+0x110>
    5720:	f240 7cff 	movw	ip, #2047	; 0x7ff
    5724:	4563      	cmp	r3, ip
    5726:	d003      	beq.n	5730 <__aeabi_dadd+0x42c>
    5728:	0003      	movs	r3, r0
    572a:	e6ce      	b.n	54ca <__aeabi_dadd+0x1c6>
    572c:	000c      	movs	r4, r1
    572e:	4656      	mov	r6, sl
    5730:	f240 78ff 	movw	r8, #2047	; 0x7ff
    5734:	e66e      	b.n	5414 <__aeabi_dadd+0x110>
    5736:	2500      	movs	r5, #0
    5738:	e77c      	b.n	5634 <__aeabi_dadd+0x330>
    573a:	2100      	movs	r1, #0
    573c:	e78c      	b.n	5658 <__aeabi_dadd+0x354>
    573e:	4643      	mov	r3, r8
    5740:	2b00      	cmp	r3, #0
    5742:	d000      	beq.n	5746 <__aeabi_dadd+0x442>
    5744:	e0d2      	b.n	58ec <__aeabi_dadd+0x5e8>
    5746:	0023      	movs	r3, r4
    5748:	4333      	orrs	r3, r6
    574a:	2b00      	cmp	r3, #0
    574c:	d100      	bne.n	5750 <__aeabi_dadd+0x44c>
    574e:	e117      	b.n	5980 <__aeabi_dadd+0x67c>
    5750:	000b      	movs	r3, r1
    5752:	4652      	mov	r2, sl
    5754:	4313      	orrs	r3, r2
    5756:	2b00      	cmp	r3, #0
    5758:	d100      	bne.n	575c <__aeabi_dadd+0x458>
    575a:	e65b      	b.n	5414 <__aeabi_dadd+0x110>
    575c:	18b2      	adds	r2, r6, r2
    575e:	42b2      	cmp	r2, r6
    5760:	41b6      	sbcs	r6, r6
    5762:	1864      	adds	r4, r4, r1
    5764:	4276      	negs	r6, r6
    5766:	19a4      	adds	r4, r4, r6
    5768:	0223      	lsls	r3, r4, #8
    576a:	d400      	bmi.n	576e <__aeabi_dadd+0x46a>
    576c:	e126      	b.n	59bc <__aeabi_dadd+0x6b8>
    576e:	4b03      	ldr	r3, [pc, #12]	; (577c <__aeabi_dadd+0x478>)
    5770:	0016      	movs	r6, r2
    5772:	401c      	ands	r4, r3
    5774:	f240 0801 	movw	r8, #1
    5778:	e64c      	b.n	5414 <__aeabi_dadd+0x110>
    577a:	46c0      	nop			; (mov r8, r8)
    577c:	ff7fffff 	.word	0xff7fffff
    5780:	0020      	movs	r0, r4
    5782:	4642      	mov	r2, r8
    5784:	4330      	orrs	r0, r6
    5786:	2a00      	cmp	r2, #0
    5788:	d159      	bne.n	583e <__aeabi_dadd+0x53a>
    578a:	2800      	cmp	r0, #0
    578c:	d000      	beq.n	5790 <__aeabi_dadd+0x48c>
    578e:	e096      	b.n	58be <__aeabi_dadd+0x5ba>
    5790:	000c      	movs	r4, r1
    5792:	431c      	orrs	r4, r3
    5794:	2c00      	cmp	r4, #0
    5796:	d100      	bne.n	579a <__aeabi_dadd+0x496>
    5798:	e0cd      	b.n	5936 <__aeabi_dadd+0x632>
    579a:	000c      	movs	r4, r1
    579c:	001e      	movs	r6, r3
    579e:	465f      	mov	r7, fp
    57a0:	e638      	b.n	5414 <__aeabi_dadd+0x110>
    57a2:	f240 78ff 	movw	r8, #2047	; 0x7ff
    57a6:	2400      	movs	r4, #0
    57a8:	2600      	movs	r6, #0
    57aa:	e678      	b.n	549e <__aeabi_dadd+0x19a>
    57ac:	0018      	movs	r0, r3
    57ae:	000a      	movs	r2, r1
    57b0:	3820      	subs	r0, #32
    57b2:	40c2      	lsrs	r2, r0
    57b4:	0010      	movs	r0, r2
    57b6:	2b20      	cmp	r3, #32
    57b8:	d100      	bne.n	57bc <__aeabi_dadd+0x4b8>
    57ba:	e0ba      	b.n	5932 <__aeabi_dadd+0x62e>
    57bc:	f240 0c40 	movw	ip, #64	; 0x40
    57c0:	4662      	mov	r2, ip
    57c2:	1ad3      	subs	r3, r2, r3
    57c4:	4099      	lsls	r1, r3
    57c6:	4652      	mov	r2, sl
    57c8:	430a      	orrs	r2, r1
    57ca:	1e51      	subs	r1, r2, #1
    57cc:	418a      	sbcs	r2, r1
    57ce:	2100      	movs	r1, #0
    57d0:	4302      	orrs	r2, r0
    57d2:	e682      	b.n	54da <__aeabi_dadd+0x1d6>
    57d4:	4642      	mov	r2, r8
    57d6:	2a00      	cmp	r2, #0
    57d8:	d147      	bne.n	586a <__aeabi_dadd+0x566>
    57da:	0022      	movs	r2, r4
    57dc:	4332      	orrs	r2, r6
    57de:	2a00      	cmp	r2, #0
    57e0:	d100      	bne.n	57e4 <__aeabi_dadd+0x4e0>
    57e2:	e0bd      	b.n	5960 <__aeabi_dadd+0x65c>
    57e4:	43db      	mvns	r3, r3
    57e6:	469b      	mov	fp, r3
    57e8:	b30b      	cbz	r3, 582e <__aeabi_dadd+0x52a>
    57ea:	f240 7cff 	movw	ip, #2047	; 0x7ff
    57ee:	4560      	cmp	r0, ip
    57f0:	d09c      	beq.n	572c <__aeabi_dadd+0x428>
    57f2:	465b      	mov	r3, fp
    57f4:	2b38      	cmp	r3, #56	; 0x38
    57f6:	dd00      	ble.n	57fa <__aeabi_dadd+0x4f6>
    57f8:	e0bd      	b.n	5976 <__aeabi_dadd+0x672>
    57fa:	2b1f      	cmp	r3, #31
    57fc:	dd00      	ble.n	5800 <__aeabi_dadd+0x4fc>
    57fe:	e0c2      	b.n	5986 <__aeabi_dadd+0x682>
    5800:	f240 0820 	movw	r8, #32
    5804:	4642      	mov	r2, r8
    5806:	1ad2      	subs	r2, r2, r3
    5808:	4690      	mov	r8, r2
    580a:	0022      	movs	r2, r4
    580c:	4643      	mov	r3, r8
    580e:	409a      	lsls	r2, r3
    5810:	465b      	mov	r3, fp
    5812:	4694      	mov	ip, r2
    5814:	0032      	movs	r2, r6
    5816:	40da      	lsrs	r2, r3
    5818:	4691      	mov	r9, r2
    581a:	4662      	mov	r2, ip
    581c:	464b      	mov	r3, r9
    581e:	431a      	orrs	r2, r3
    5820:	4643      	mov	r3, r8
    5822:	409e      	lsls	r6, r3
    5824:	1e73      	subs	r3, r6, #1
    5826:	419e      	sbcs	r6, r3
    5828:	465b      	mov	r3, fp
    582a:	40dc      	lsrs	r4, r3
    582c:	4316      	orrs	r6, r2
    582e:	4456      	add	r6, sl
    5830:	4556      	cmp	r6, sl
    5832:	4192      	sbcs	r2, r2
    5834:	1864      	adds	r4, r4, r1
    5836:	4252      	negs	r2, r2
    5838:	18a4      	adds	r4, r4, r2
    583a:	4680      	mov	r8, r0
    583c:	e654      	b.n	54e8 <__aeabi_dadd+0x1e4>
    583e:	b9f8      	cbnz	r0, 5880 <__aeabi_dadd+0x57c>
    5840:	0008      	movs	r0, r1
    5842:	4318      	orrs	r0, r3
    5844:	2800      	cmp	r0, #0
    5846:	d100      	bne.n	584a <__aeabi_dadd+0x546>
    5848:	e08e      	b.n	5968 <__aeabi_dadd+0x664>
    584a:	000c      	movs	r4, r1
    584c:	001e      	movs	r6, r3
    584e:	465f      	mov	r7, fp
    5850:	f240 78ff 	movw	r8, #2047	; 0x7ff
    5854:	e5de      	b.n	5414 <__aeabi_dadd+0x110>
    5856:	000c      	movs	r4, r1
    5858:	001e      	movs	r6, r3
    585a:	4680      	mov	r8, r0
    585c:	465f      	mov	r7, fp
    585e:	e5d9      	b.n	5414 <__aeabi_dadd+0x110>
    5860:	4326      	orrs	r6, r4
    5862:	1e74      	subs	r4, r6, #1
    5864:	41a6      	sbcs	r6, r4
    5866:	2400      	movs	r4, #0
    5868:	e71c      	b.n	56a4 <__aeabi_dadd+0x3a0>
    586a:	f240 7cff 	movw	ip, #2047	; 0x7ff
    586e:	4560      	cmp	r0, ip
    5870:	d100      	bne.n	5874 <__aeabi_dadd+0x570>
    5872:	e75b      	b.n	572c <__aeabi_dadd+0x428>
    5874:	2280      	movs	r2, #128	; 0x80
    5876:	425b      	negs	r3, r3
    5878:	0412      	lsls	r2, r2, #16
    587a:	469b      	mov	fp, r3
    587c:	4314      	orrs	r4, r2
    587e:	e7b8      	b.n	57f2 <__aeabi_dadd+0x4ee>
    5880:	0008      	movs	r0, r1
    5882:	4318      	orrs	r0, r3
    5884:	f240 78ff 	movw	r8, #2047	; 0x7ff
    5888:	2800      	cmp	r0, #0
    588a:	d100      	bne.n	588e <__aeabi_dadd+0x58a>
    588c:	e5c2      	b.n	5414 <__aeabi_dadd+0x110>
    588e:	08f0      	lsrs	r0, r6, #3
    5890:	0766      	lsls	r6, r4, #29
    5892:	4306      	orrs	r6, r0
    5894:	2080      	movs	r0, #128	; 0x80
    5896:	08e4      	lsrs	r4, r4, #3
    5898:	0300      	lsls	r0, r0, #12
    589a:	4204      	tst	r4, r0
    589c:	d008      	beq.n	58b0 <__aeabi_dadd+0x5ac>
    589e:	08cd      	lsrs	r5, r1, #3
    58a0:	4205      	tst	r5, r0
    58a2:	d105      	bne.n	58b0 <__aeabi_dadd+0x5ac>
    58a4:	08da      	lsrs	r2, r3, #3
    58a6:	0749      	lsls	r1, r1, #29
    58a8:	4311      	orrs	r1, r2
    58aa:	000e      	movs	r6, r1
    58ac:	002c      	movs	r4, r5
    58ae:	465f      	mov	r7, fp
    58b0:	0f73      	lsrs	r3, r6, #29
    58b2:	00e4      	lsls	r4, r4, #3
    58b4:	431c      	orrs	r4, r3
    58b6:	00f6      	lsls	r6, r6, #3
    58b8:	f240 78ff 	movw	r8, #2047	; 0x7ff
    58bc:	e5aa      	b.n	5414 <__aeabi_dadd+0x110>
    58be:	0008      	movs	r0, r1
    58c0:	4318      	orrs	r0, r3
    58c2:	2800      	cmp	r0, #0
    58c4:	d100      	bne.n	58c8 <__aeabi_dadd+0x5c4>
    58c6:	e5a5      	b.n	5414 <__aeabi_dadd+0x110>
    58c8:	1af2      	subs	r2, r6, r3
    58ca:	4296      	cmp	r6, r2
    58cc:	41ad      	sbcs	r5, r5
    58ce:	1a60      	subs	r0, r4, r1
    58d0:	426d      	negs	r5, r5
    58d2:	1b40      	subs	r0, r0, r5
    58d4:	4694      	mov	ip, r2
    58d6:	0202      	lsls	r2, r0, #8
    58d8:	d400      	bmi.n	58dc <__aeabi_dadd+0x5d8>
    58da:	e5d2      	b.n	5482 <__aeabi_dadd+0x17e>
    58dc:	1b9e      	subs	r6, r3, r6
    58de:	45b2      	cmp	sl, r6
    58e0:	4192      	sbcs	r2, r2
    58e2:	1b0c      	subs	r4, r1, r4
    58e4:	4252      	negs	r2, r2
    58e6:	1aa4      	subs	r4, r4, r2
    58e8:	465f      	mov	r7, fp
    58ea:	e593      	b.n	5414 <__aeabi_dadd+0x110>
    58ec:	0023      	movs	r3, r4
    58ee:	4333      	orrs	r3, r6
    58f0:	2b00      	cmp	r3, #0
    58f2:	d100      	bne.n	58f6 <__aeabi_dadd+0x5f2>
    58f4:	e71a      	b.n	572c <__aeabi_dadd+0x428>
    58f6:	000b      	movs	r3, r1
    58f8:	4652      	mov	r2, sl
    58fa:	4313      	orrs	r3, r2
    58fc:	f240 78ff 	movw	r8, #2047	; 0x7ff
    5900:	2b00      	cmp	r3, #0
    5902:	d100      	bne.n	5906 <__aeabi_dadd+0x602>
    5904:	e586      	b.n	5414 <__aeabi_dadd+0x110>
    5906:	08f0      	lsrs	r0, r6, #3
    5908:	0766      	lsls	r6, r4, #29
    590a:	4306      	orrs	r6, r0
    590c:	2080      	movs	r0, #128	; 0x80
    590e:	08e4      	lsrs	r4, r4, #3
    5910:	0300      	lsls	r0, r0, #12
    5912:	4204      	tst	r4, r0
    5914:	d0cc      	beq.n	58b0 <__aeabi_dadd+0x5ac>
    5916:	08cb      	lsrs	r3, r1, #3
    5918:	4203      	tst	r3, r0
    591a:	d1c9      	bne.n	58b0 <__aeabi_dadd+0x5ac>
    591c:	08d2      	lsrs	r2, r2, #3
    591e:	0749      	lsls	r1, r1, #29
    5920:	4311      	orrs	r1, r2
    5922:	000e      	movs	r6, r1
    5924:	001c      	movs	r4, r3
    5926:	e7c3      	b.n	58b0 <__aeabi_dadd+0x5ac>
    5928:	2600      	movs	r6, #0
    592a:	f240 72ff 	movw	r2, #2047	; 0x7ff
    592e:	2400      	movs	r4, #0
    5930:	e58e      	b.n	5450 <__aeabi_dadd+0x14c>
    5932:	2100      	movs	r1, #0
    5934:	e747      	b.n	57c6 <__aeabi_dadd+0x4c2>
    5936:	2500      	movs	r5, #0
    5938:	2600      	movs	r6, #0
    593a:	e5b0      	b.n	549e <__aeabi_dadd+0x19a>
    593c:	002f      	movs	r7, r5
    593e:	0022      	movs	r2, r4
    5940:	3f20      	subs	r7, #32
    5942:	40fa      	lsrs	r2, r7
    5944:	0017      	movs	r7, r2
    5946:	2d20      	cmp	r5, #32
    5948:	d036      	beq.n	59b8 <__aeabi_dadd+0x6b4>
    594a:	f240 0c40 	movw	ip, #64	; 0x40
    594e:	4662      	mov	r2, ip
    5950:	1b55      	subs	r5, r2, r5
    5952:	40ac      	lsls	r4, r5
    5954:	4326      	orrs	r6, r4
    5956:	1e74      	subs	r4, r6, #1
    5958:	41a6      	sbcs	r6, r4
    595a:	2400      	movs	r4, #0
    595c:	433e      	orrs	r6, r7
    595e:	e6a1      	b.n	56a4 <__aeabi_dadd+0x3a0>
    5960:	000c      	movs	r4, r1
    5962:	4656      	mov	r6, sl
    5964:	4680      	mov	r8, r0
    5966:	e555      	b.n	5414 <__aeabi_dadd+0x110>
    5968:	2480      	movs	r4, #128	; 0x80
    596a:	2500      	movs	r5, #0
    596c:	0324      	lsls	r4, r4, #12
    596e:	f240 78ff 	movw	r8, #2047	; 0x7ff
    5972:	2600      	movs	r6, #0
    5974:	e593      	b.n	549e <__aeabi_dadd+0x19a>
    5976:	4326      	orrs	r6, r4
    5978:	1e74      	subs	r4, r6, #1
    597a:	41a6      	sbcs	r6, r4
    597c:	2400      	movs	r4, #0
    597e:	e756      	b.n	582e <__aeabi_dadd+0x52a>
    5980:	000c      	movs	r4, r1
    5982:	4656      	mov	r6, sl
    5984:	e546      	b.n	5414 <__aeabi_dadd+0x110>
    5986:	2320      	movs	r3, #32
    5988:	425b      	negs	r3, r3
    598a:	469c      	mov	ip, r3
    598c:	44dc      	add	ip, fp
    598e:	4663      	mov	r3, ip
    5990:	0022      	movs	r2, r4
    5992:	40da      	lsrs	r2, r3
    5994:	465b      	mov	r3, fp
    5996:	4694      	mov	ip, r2
    5998:	2b20      	cmp	r3, #32
    599a:	d011      	beq.n	59c0 <__aeabi_dadd+0x6bc>
    599c:	f240 0840 	movw	r8, #64	; 0x40
    59a0:	465a      	mov	r2, fp
    59a2:	4643      	mov	r3, r8
    59a4:	1a9b      	subs	r3, r3, r2
    59a6:	409c      	lsls	r4, r3
    59a8:	4326      	orrs	r6, r4
    59aa:	1e74      	subs	r4, r6, #1
    59ac:	41a6      	sbcs	r6, r4
    59ae:	4663      	mov	r3, ip
    59b0:	4333      	orrs	r3, r6
    59b2:	001e      	movs	r6, r3
    59b4:	2400      	movs	r4, #0
    59b6:	e73a      	b.n	582e <__aeabi_dadd+0x52a>
    59b8:	2400      	movs	r4, #0
    59ba:	e7cb      	b.n	5954 <__aeabi_dadd+0x650>
    59bc:	0016      	movs	r6, r2
    59be:	e567      	b.n	5490 <__aeabi_dadd+0x18c>
    59c0:	2400      	movs	r4, #0
    59c2:	e7f1      	b.n	59a8 <__aeabi_dadd+0x6a4>
    59c4:	682f2e2e 	.word	0x682f2e2e
    59c8:	692f6c61 	.word	0x692f6c61
    59cc:	756c636e 	.word	0x756c636e
    59d0:	682f6564 	.word	0x682f6564
    59d4:	775f6c61 	.word	0x775f6c61
    59d8:	682e7464 	.word	0x682e7464
    59dc:	00000000 	.word	0x00000000
    59e0:	682f2e2e 	.word	0x682f2e2e
    59e4:	732f6c61 	.word	0x732f6c61
    59e8:	682f6372 	.word	0x682f6372
    59ec:	695f6c61 	.word	0x695f6c61
    59f0:	6d5f6332 	.word	0x6d5f6332
    59f4:	6e79735f 	.word	0x6e79735f
    59f8:	00632e63 	.word	0x00632e63
    59fc:	682f2e2e 	.word	0x682f2e2e
    5a00:	732f6c61 	.word	0x732f6c61
    5a04:	682f6372 	.word	0x682f6372
    5a08:	695f6c61 	.word	0x695f6c61
    5a0c:	00632e6f 	.word	0x00632e6f
    5a10:	682f2e2e 	.word	0x682f2e2e
    5a14:	732f6c61 	.word	0x732f6c61
    5a18:	682f6372 	.word	0x682f6372
    5a1c:	755f6c61 	.word	0x755f6c61
    5a20:	74726173 	.word	0x74726173
    5a24:	6e79735f 	.word	0x6e79735f
    5a28:	00632e63 	.word	0x00632e63
    5a2c:	42000400 	.word	0x42000400
    5a30:	42000800 	.word	0x42000800
    5a34:	42000c00 	.word	0x42000c00

00005a38 <_i2cms>:
    5a38:	00000000 00200014 00000100 00000f0e     ...... .........
    5a48:	00d70000 003d0900 682f2e2e 732f6c70     ......=.../hpl/s
    5a58:	6f637265 70682f6d 65735f6c 6d6f6372     ercom/hpl_sercom
    5a68:	0000632e 682f2e2e 772f6c70 682f7464     .c..../hpl/wdt/h
    5a78:	775f6c70 632e7464 00000000 31314c24     pl_wdt.c....$L11
    5a88:	00003a54 6d65543a 003a4670 000a2a46     T:..:TempF:.F*..
    5a98:	31314c24 00003a50 6572503a 00003a73     $L11P:..:Pres:..
    5aa8:	2a615068 0000000a 31314c24 00003a48     hPa*....$L11H:..
    5ab8:	6d75483a 003a6469 000a2a48 4c4d4153     :Humid:.H*..SAML
    5ac8:	53203131 74726174 20676e69 0a0d7055     11 Starting Up..
    5ad8:	00000000 32454d42 43203038 656e6e6f     ....BME280 Conne
    5ae8:	64657463 0a0d2e2e 00000000 0000204a     cted........J ..
    5af8:	0000201a 0000202c 00001f70 0000202c     . .., ..p..., ..
    5b08:	00002010 0000202c 00001f70 0000201a     . .., ..p.... ..
    5b18:	0000201a 00002010 00001f70 00001f78     . ... ..p...x...
    5b28:	00001f78 00001f78 00002032 0000201a     x...x...2 ... ..
    5b38:	0000201a 00001fee 000020d2 00001fee     . ....... ......
    5b48:	00002010 00001fee 000020d2 0000201a     . ....... ... ..
    5b58:	0000201a 00002010 000020d2 00001f78     . ... ... ..x...
    5b68:	00001f78 00001f78 000020dc 00002284     x...x.... ..."..
    5b78:	000021e2 000021e2 000021e0 00002276     .!...!...!..v"..
    5b88:	00002276 0000226c 000021e0 00002276     v"..l"...!..v"..
    5b98:	0000226c 00002276 000021e0 0000227c     l"..v"...!..|"..
    5ba8:	0000227c 0000227c 00002318 000026e4     |"..|"...#...&..
    5bb8:	000026cc 000026c4 00002590 000026c4     .&...&...%...&..
    5bc8:	00002672 000026c4 00002590 000026cc     r&...&...%...&..
    5bd8:	000026cc 00002672 00002590 00002586     .&..r&...%...%..
    5be8:	00002586 00002586 000028f6 00002d34     .%...%...(..4-..
    5bf8:	00002be8 00002be8 00002be4 00002d16     .+...+...+...-..
    5c08:	00002d16 00002d08 00002be4 00002d16     .-...-...+...-..
    5c18:	00002d08 00002d16 00002be4 00002d1e     .-...-...+...-..
    5c28:	00002d1e 00002d1e 00002f28 33323130     .-...-..(/..0123
    5c38:	37363534 62613938 66656463 6a696867     456789abcdefghij
    5c48:	6e6d6c6b 7271706f 76757473 7a797877     klmnopqrstuvwxyz
    5c58:	00000000                                ....

00005c5c <__sf_fake_stderr>:
	...

00005c7c <__sf_fake_stdin>:
	...

00005c9c <__sf_fake_stdout>:
	...

00005cc0 <__mprec_bigtens>:
    5cc0:	37e08000 4341c379 b5056e17 4693b8b5     ...7y.AC.n.....F
    5cd0:	e93ff9f5 4d384f03 f9301d32 5a827748     ..?..O8M2.0.Hw.Z
    5ce0:	7f73bf3c 75154fdd                       <.s..O.u

00005ce8 <__mprec_tens>:
    5ce8:	00000000 3ff00000 00000000 40240000     .......?......$@
    5cf8:	00000000 40590000 00000000 408f4000     ......Y@.....@.@
    5d08:	00000000 40c38800 00000000 40f86a00     .......@.....j.@
    5d18:	00000000 412e8480 00000000 416312d0     .......A......cA
    5d28:	00000000 4197d784 00000000 41cdcd65     .......A....e..A
    5d38:	20000000 4202a05f e8000000 42374876     ... _..B....vH7B
    5d48:	a2000000 426d1a94 e5400000 42a2309c     ......mB..@..0.B
    5d58:	1e900000 42d6bcc4 26340000 430c6bf5     .......B..4&.k.C
    5d68:	37e08000 4341c379 85d8a000 43763457     ...7y.AC....W4vC
    5d78:	674ec800 43abc16d 60913d00 43e158e4     ..Ngm..C.=.`.X.C
    5d88:	78b58c40 4415af1d d6e2ef50 444b1ae4     @..x...DP.....KD
    5d98:	064dd592 4480f0cf c7e14af6 44b52d02     ..M....D.J...-.D
    5da8:	79d99db4 44ea7843                       ...yCx.D

00005db0 <p05.6047>:
    5db0:	00000005 00000019 0000007d 69666e49     ........}...Infi
    5dc0:	7974696e 4e614e00 00003000              nity.NaN.0..

00005dcc <_init>:
    5dcc:	b5f8      	push	{r3, r4, r5, r6, r7, lr}
    5dce:	46c0      	nop			; (mov r8, r8)
    5dd0:	bcf8      	pop	{r3, r4, r5, r6, r7}
    5dd2:	bc08      	pop	{r3}
    5dd4:	469e      	mov	lr, r3
    5dd6:	4770      	bx	lr

00005dd8 <__init_array_start>:
    5dd8:	00000241 	.word	0x00000241

00005ddc <_fini>:
    5ddc:	b5f8      	push	{r3, r4, r5, r6, r7, lr}
    5dde:	46c0      	nop			; (mov r8, r8)
    5de0:	bcf8      	pop	{r3, r4, r5, r6, r7}
    5de2:	bc08      	pop	{r3}
    5de4:	469e      	mov	lr, r3
    5de6:	4770      	bx	lr

00005de8 <__fini_array_start>:
    5de8:	00000215 	.word	0x00000215

Disassembly of section .gnu.sgstubs:

0000fb00 <nsc_ext_irq_init>:
    fb00:	e97f e97f 	sg
    fb04:	f7f0 bb0f 	b.w	126 <__acle_se_nsc_ext_irq_init>

0000fb08 <nsc_periph_clock_init>:
    fb08:	e97f e97f 	sg
    fb0c:	f7f0 baf2 	b.w	f4 <__acle_se_nsc_periph_clock_init>
	...
